
RTOS-OLED-Xplained-Pro.elf:     file format elf32-littlearm

Sections:
Idx Name          Size      VMA       LMA       File off  Algn
  0 .text         00008fe4  00400000  00400000  00010000  2**6
                  CONTENTS, ALLOC, LOAD, READONLY, CODE
  1 .ARM.exidx    00000008  00408fe4  00408fe4  00018fe4  2**2
                  CONTENTS, ALLOC, LOAD, READONLY, DATA
  2 .relocate     000009c0  20400000  00408fec  00020000  2**3
                  CONTENTS, ALLOC, LOAD, CODE
  3 .bss          00000488  204009c0  004099ac  000209c0  2**2
                  ALLOC
  4 .stack        00002000  20400e48  00409e34  000209c0  2**0
                  ALLOC
  5 .heap         00000200  20402e48  0040be34  000209c0  2**0
                  ALLOC
  6 .ARM.attributes 0000002e  00000000  00000000  000209c0  2**0
                  CONTENTS, READONLY
  7 .comment      00000059  00000000  00000000  000209ee  2**0
                  CONTENTS, READONLY
  8 .debug_info   00023f3d  00000000  00000000  00020a47  2**0
                  CONTENTS, READONLY, DEBUGGING
  9 .debug_abbrev 00004cf9  00000000  00000000  00044984  2**0
                  CONTENTS, READONLY, DEBUGGING
 10 .debug_loc    0000ab83  00000000  00000000  0004967d  2**0
                  CONTENTS, READONLY, DEBUGGING
 11 .debug_aranges 00000fe0  00000000  00000000  00054200  2**0
                  CONTENTS, READONLY, DEBUGGING
 12 .debug_ranges 00001138  00000000  00000000  000551e0  2**0
                  CONTENTS, READONLY, DEBUGGING
 13 .debug_macro  0000ddf9  00000000  00000000  00056318  2**0
                  CONTENTS, READONLY, DEBUGGING
 14 .debug_line   00015796  00000000  00000000  00064111  2**0
                  CONTENTS, READONLY, DEBUGGING
 15 .debug_str    000961a0  00000000  00000000  000798a7  2**0
                  CONTENTS, READONLY, DEBUGGING
 16 .debug_frame  00003948  00000000  00000000  0010fa48  2**2
                  CONTENTS, READONLY, DEBUGGING

Disassembly of section .text:

00400000 <exception_table>:
  400000:	48 2e 40 20 c9 10 40 00 c7 10 40 00 c7 10 40 00     H.@ ..@...@...@.
  400010:	c7 10 40 00 c7 10 40 00 c7 10 40 00 00 00 00 00     ..@...@...@.....
	...
  40002c:	a1 14 40 00 c7 10 40 00 00 00 00 00 41 15 40 00     ..@...@.....A.@.
  40003c:	a9 15 40 00 c7 10 40 00 c7 10 40 00 c7 10 40 00     ..@...@...@...@.
  40004c:	c7 10 40 00 c7 10 40 00 c7 10 40 00 c7 10 40 00     ..@...@...@...@.
  40005c:	c7 10 40 00 c7 10 40 00 00 00 00 00 b9 0d 40 00     ..@...@.......@.
  40006c:	cd 0d 40 00 e1 0d 40 00 c7 10 40 00 c7 10 40 00     ..@...@...@...@.
  40007c:	c7 10 40 00 f5 0d 40 00 09 0e 40 00 c7 10 40 00     ..@...@...@...@.
  40008c:	c7 10 40 00 c7 10 40 00 c7 10 40 00 c7 10 40 00     ..@...@...@...@.
  40009c:	c7 10 40 00 c7 10 40 00 c7 10 40 00 c7 10 40 00     ..@...@...@...@.
  4000ac:	c7 10 40 00 c7 10 40 00 c7 10 40 00 c7 10 40 00     ..@...@...@...@.
  4000bc:	c7 10 40 00 c7 10 40 00 c7 10 40 00 c7 10 40 00     ..@...@...@...@.
  4000cc:	c7 10 40 00 00 00 00 00 c7 10 40 00 00 00 00 00     ..@.......@.....
  4000dc:	c7 10 40 00 c7 10 40 00 c7 10 40 00 c7 10 40 00     ..@...@...@...@.
  4000ec:	c7 10 40 00 c7 10 40 00 c7 10 40 00 c7 10 40 00     ..@...@...@...@.
  4000fc:	c7 10 40 00 c7 10 40 00 c7 10 40 00 c7 10 40 00     ..@...@...@...@.
  40010c:	c7 10 40 00 c7 10 40 00 00 00 00 00 00 00 00 00     ..@...@.........
  40011c:	00 00 00 00 c7 10 40 00 c7 10 40 00 c7 10 40 00     ......@...@...@.
  40012c:	c7 10 40 00 c7 10 40 00 00 00 00 00 c7 10 40 00     ..@...@.......@.
  40013c:	c7 10 40 00                                         ..@.

00400140 <__do_global_dtors_aux>:
  400140:	b510      	push	{r4, lr}
  400142:	4c05      	ldr	r4, [pc, #20]	; (400158 <__do_global_dtors_aux+0x18>)
  400144:	7823      	ldrb	r3, [r4, #0]
  400146:	b933      	cbnz	r3, 400156 <__do_global_dtors_aux+0x16>
  400148:	4b04      	ldr	r3, [pc, #16]	; (40015c <__do_global_dtors_aux+0x1c>)
  40014a:	b113      	cbz	r3, 400152 <__do_global_dtors_aux+0x12>
  40014c:	4804      	ldr	r0, [pc, #16]	; (400160 <__do_global_dtors_aux+0x20>)
  40014e:	f3af 8000 	nop.w
  400152:	2301      	movs	r3, #1
  400154:	7023      	strb	r3, [r4, #0]
  400156:	bd10      	pop	{r4, pc}
  400158:	204009c0 	.word	0x204009c0
  40015c:	00000000 	.word	0x00000000
  400160:	00408fec 	.word	0x00408fec

00400164 <frame_dummy>:
  400164:	4b0c      	ldr	r3, [pc, #48]	; (400198 <frame_dummy+0x34>)
  400166:	b143      	cbz	r3, 40017a <frame_dummy+0x16>
  400168:	480c      	ldr	r0, [pc, #48]	; (40019c <frame_dummy+0x38>)
  40016a:	490d      	ldr	r1, [pc, #52]	; (4001a0 <frame_dummy+0x3c>)
  40016c:	b510      	push	{r4, lr}
  40016e:	f3af 8000 	nop.w
  400172:	480c      	ldr	r0, [pc, #48]	; (4001a4 <frame_dummy+0x40>)
  400174:	6803      	ldr	r3, [r0, #0]
  400176:	b923      	cbnz	r3, 400182 <frame_dummy+0x1e>
  400178:	bd10      	pop	{r4, pc}
  40017a:	480a      	ldr	r0, [pc, #40]	; (4001a4 <frame_dummy+0x40>)
  40017c:	6803      	ldr	r3, [r0, #0]
  40017e:	b933      	cbnz	r3, 40018e <frame_dummy+0x2a>
  400180:	4770      	bx	lr
  400182:	4b09      	ldr	r3, [pc, #36]	; (4001a8 <frame_dummy+0x44>)
  400184:	2b00      	cmp	r3, #0
  400186:	d0f7      	beq.n	400178 <frame_dummy+0x14>
  400188:	e8bd 4010 	ldmia.w	sp!, {r4, lr}
  40018c:	4718      	bx	r3
  40018e:	4b06      	ldr	r3, [pc, #24]	; (4001a8 <frame_dummy+0x44>)
  400190:	2b00      	cmp	r3, #0
  400192:	d0f5      	beq.n	400180 <frame_dummy+0x1c>
  400194:	4718      	bx	r3
  400196:	bf00      	nop
  400198:	00000000 	.word	0x00000000
  40019c:	00408fec 	.word	0x00408fec
  4001a0:	204009c4 	.word	0x204009c4
  4001a4:	00408fec 	.word	0x00408fec
  4001a8:	00000000 	.word	0x00000000

004001ac <spi_enable_clock>:
  4001ac:	b508      	push	{r3, lr}
  4001ae:	4b07      	ldr	r3, [pc, #28]	; (4001cc <spi_enable_clock+0x20>)
  4001b0:	4298      	cmp	r0, r3
  4001b2:	d003      	beq.n	4001bc <spi_enable_clock+0x10>
  4001b4:	4b06      	ldr	r3, [pc, #24]	; (4001d0 <spi_enable_clock+0x24>)
  4001b6:	4298      	cmp	r0, r3
  4001b8:	d004      	beq.n	4001c4 <spi_enable_clock+0x18>
  4001ba:	bd08      	pop	{r3, pc}
  4001bc:	2015      	movs	r0, #21
  4001be:	4b05      	ldr	r3, [pc, #20]	; (4001d4 <spi_enable_clock+0x28>)
  4001c0:	4798      	blx	r3
  4001c2:	bd08      	pop	{r3, pc}
  4001c4:	202a      	movs	r0, #42	; 0x2a
  4001c6:	4b03      	ldr	r3, [pc, #12]	; (4001d4 <spi_enable_clock+0x28>)
  4001c8:	4798      	blx	r3
  4001ca:	e7f6      	b.n	4001ba <spi_enable_clock+0xe>
  4001cc:	40008000 	.word	0x40008000
  4001d0:	40058000 	.word	0x40058000
  4001d4:	00400f3d 	.word	0x00400f3d

004001d8 <spi_set_peripheral_chip_select_value>:
  4001d8:	6843      	ldr	r3, [r0, #4]
  4001da:	f423 2370 	bic.w	r3, r3, #983040	; 0xf0000
  4001de:	6043      	str	r3, [r0, #4]
  4001e0:	6843      	ldr	r3, [r0, #4]
  4001e2:	0409      	lsls	r1, r1, #16
  4001e4:	f401 2170 	and.w	r1, r1, #983040	; 0xf0000
  4001e8:	4319      	orrs	r1, r3
  4001ea:	6041      	str	r1, [r0, #4]
  4001ec:	4770      	bx	lr

004001ee <spi_write>:
  4001ee:	b430      	push	{r4, r5}
  4001f0:	f643 2499 	movw	r4, #15001	; 0x3a99
  4001f4:	6905      	ldr	r5, [r0, #16]
  4001f6:	f015 0f02 	tst.w	r5, #2
  4001fa:	d103      	bne.n	400204 <spi_write+0x16>
  4001fc:	3c01      	subs	r4, #1
  4001fe:	d1f9      	bne.n	4001f4 <spi_write+0x6>
  400200:	2001      	movs	r0, #1
  400202:	e00c      	b.n	40021e <spi_write+0x30>
  400204:	6844      	ldr	r4, [r0, #4]
  400206:	f014 0f02 	tst.w	r4, #2
  40020a:	d006      	beq.n	40021a <spi_write+0x2c>
  40020c:	0412      	lsls	r2, r2, #16
  40020e:	f402 2270 	and.w	r2, r2, #983040	; 0xf0000
  400212:	4311      	orrs	r1, r2
  400214:	b10b      	cbz	r3, 40021a <spi_write+0x2c>
  400216:	f041 7180 	orr.w	r1, r1, #16777216	; 0x1000000
  40021a:	60c1      	str	r1, [r0, #12]
  40021c:	2000      	movs	r0, #0
  40021e:	bc30      	pop	{r4, r5}
  400220:	4770      	bx	lr

00400222 <spi_set_clock_polarity>:
  400222:	b932      	cbnz	r2, 400232 <spi_set_clock_polarity+0x10>
  400224:	eb00 0081 	add.w	r0, r0, r1, lsl #2
  400228:	6b03      	ldr	r3, [r0, #48]	; 0x30
  40022a:	f023 0301 	bic.w	r3, r3, #1
  40022e:	6303      	str	r3, [r0, #48]	; 0x30
  400230:	4770      	bx	lr
  400232:	eb00 0081 	add.w	r0, r0, r1, lsl #2
  400236:	6b03      	ldr	r3, [r0, #48]	; 0x30
  400238:	f043 0301 	orr.w	r3, r3, #1
  40023c:	6303      	str	r3, [r0, #48]	; 0x30
  40023e:	4770      	bx	lr

00400240 <spi_set_clock_phase>:
  400240:	b932      	cbnz	r2, 400250 <spi_set_clock_phase+0x10>
  400242:	eb00 0081 	add.w	r0, r0, r1, lsl #2
  400246:	6b03      	ldr	r3, [r0, #48]	; 0x30
  400248:	f023 0302 	bic.w	r3, r3, #2
  40024c:	6303      	str	r3, [r0, #48]	; 0x30
  40024e:	4770      	bx	lr
  400250:	eb00 0081 	add.w	r0, r0, r1, lsl #2
  400254:	6b03      	ldr	r3, [r0, #48]	; 0x30
  400256:	f043 0302 	orr.w	r3, r3, #2
  40025a:	6303      	str	r3, [r0, #48]	; 0x30
  40025c:	4770      	bx	lr

0040025e <spi_configure_cs_behavior>:
  40025e:	2a04      	cmp	r2, #4
  400260:	d003      	beq.n	40026a <spi_configure_cs_behavior+0xc>
  400262:	b16a      	cbz	r2, 400280 <spi_configure_cs_behavior+0x22>
  400264:	2a08      	cmp	r2, #8
  400266:	d016      	beq.n	400296 <spi_configure_cs_behavior+0x38>
  400268:	4770      	bx	lr
  40026a:	eb00 0081 	add.w	r0, r0, r1, lsl #2
  40026e:	6b03      	ldr	r3, [r0, #48]	; 0x30
  400270:	f023 0308 	bic.w	r3, r3, #8
  400274:	6303      	str	r3, [r0, #48]	; 0x30
  400276:	6b03      	ldr	r3, [r0, #48]	; 0x30
  400278:	f043 0304 	orr.w	r3, r3, #4
  40027c:	6303      	str	r3, [r0, #48]	; 0x30
  40027e:	4770      	bx	lr
  400280:	eb00 0081 	add.w	r0, r0, r1, lsl #2
  400284:	6b03      	ldr	r3, [r0, #48]	; 0x30
  400286:	f023 0308 	bic.w	r3, r3, #8
  40028a:	6303      	str	r3, [r0, #48]	; 0x30
  40028c:	6b03      	ldr	r3, [r0, #48]	; 0x30
  40028e:	f023 0304 	bic.w	r3, r3, #4
  400292:	6303      	str	r3, [r0, #48]	; 0x30
  400294:	4770      	bx	lr
  400296:	eb00 0081 	add.w	r0, r0, r1, lsl #2
  40029a:	6b03      	ldr	r3, [r0, #48]	; 0x30
  40029c:	f043 0308 	orr.w	r3, r3, #8
  4002a0:	6303      	str	r3, [r0, #48]	; 0x30
  4002a2:	e7e1      	b.n	400268 <spi_configure_cs_behavior+0xa>

004002a4 <spi_set_bits_per_transfer>:
  4002a4:	eb00 0181 	add.w	r1, r0, r1, lsl #2
  4002a8:	6b0b      	ldr	r3, [r1, #48]	; 0x30
  4002aa:	f023 03f0 	bic.w	r3, r3, #240	; 0xf0
  4002ae:	630b      	str	r3, [r1, #48]	; 0x30
  4002b0:	6b0b      	ldr	r3, [r1, #48]	; 0x30
  4002b2:	431a      	orrs	r2, r3
  4002b4:	630a      	str	r2, [r1, #48]	; 0x30
  4002b6:	4770      	bx	lr

004002b8 <spi_calc_baudrate_div>:
  4002b8:	1e43      	subs	r3, r0, #1
  4002ba:	4419      	add	r1, r3
  4002bc:	fbb1 f0f0 	udiv	r0, r1, r0
  4002c0:	1e43      	subs	r3, r0, #1
  4002c2:	2bfe      	cmp	r3, #254	; 0xfe
  4002c4:	bf94      	ite	ls
  4002c6:	b200      	sxthls	r0, r0
  4002c8:	f04f 30ff 	movhi.w	r0, #4294967295
  4002cc:	4770      	bx	lr

004002ce <spi_set_baudrate_div>:
  4002ce:	b17a      	cbz	r2, 4002f0 <spi_set_baudrate_div+0x22>
  4002d0:	b410      	push	{r4}
  4002d2:	4614      	mov	r4, r2
  4002d4:	eb00 0181 	add.w	r1, r0, r1, lsl #2
  4002d8:	6b0b      	ldr	r3, [r1, #48]	; 0x30
  4002da:	f423 437f 	bic.w	r3, r3, #65280	; 0xff00
  4002de:	630b      	str	r3, [r1, #48]	; 0x30
  4002e0:	6b0a      	ldr	r2, [r1, #48]	; 0x30
  4002e2:	ea42 2204 	orr.w	r2, r2, r4, lsl #8
  4002e6:	630a      	str	r2, [r1, #48]	; 0x30
  4002e8:	2000      	movs	r0, #0
  4002ea:	f85d 4b04 	ldr.w	r4, [sp], #4
  4002ee:	4770      	bx	lr
  4002f0:	f04f 30ff 	mov.w	r0, #4294967295
  4002f4:	4770      	bx	lr
	...

004002f8 <gfx_mono_set_framebuffer>:
  4002f8:	4b01      	ldr	r3, [pc, #4]	; (400300 <gfx_mono_set_framebuffer+0x8>)
  4002fa:	6018      	str	r0, [r3, #0]
  4002fc:	4770      	bx	lr
  4002fe:	bf00      	nop
  400300:	204009dc 	.word	0x204009dc

00400304 <gfx_mono_framebuffer_put_byte>:
  400304:	4b02      	ldr	r3, [pc, #8]	; (400310 <gfx_mono_framebuffer_put_byte+0xc>)
  400306:	681b      	ldr	r3, [r3, #0]
  400308:	eb03 10c0 	add.w	r0, r3, r0, lsl #7
  40030c:	5442      	strb	r2, [r0, r1]
  40030e:	4770      	bx	lr
  400310:	204009dc 	.word	0x204009dc

00400314 <gfx_mono_framebuffer_get_byte>:
  400314:	4b02      	ldr	r3, [pc, #8]	; (400320 <gfx_mono_framebuffer_get_byte+0xc>)
  400316:	681b      	ldr	r3, [r3, #0]
  400318:	eb03 10c0 	add.w	r0, r3, r0, lsl #7
  40031c:	5c40      	ldrb	r0, [r0, r1]
  40031e:	4770      	bx	lr
  400320:	204009dc 	.word	0x204009dc

00400324 <gfx_mono_generic_draw_vertical_line>:
  400324:	2a00      	cmp	r2, #0
  400326:	d048      	beq.n	4003ba <gfx_mono_generic_draw_vertical_line+0x96>
  400328:	e92d 47f0 	stmdb	sp!, {r4, r5, r6, r7, r8, r9, sl, lr}
  40032c:	4614      	mov	r4, r2
  40032e:	461f      	mov	r7, r3
  400330:	4606      	mov	r6, r0
  400332:	1e4a      	subs	r2, r1, #1
  400334:	4422      	add	r2, r4
  400336:	b2d2      	uxtb	r2, r2
  400338:	4291      	cmp	r1, r2
  40033a:	d031      	beq.n	4003a0 <gfx_mono_generic_draw_vertical_line+0x7c>
  40033c:	2a1f      	cmp	r2, #31
  40033e:	bf28      	it	cs
  400340:	221f      	movcs	r2, #31
  400342:	4615      	mov	r5, r2
  400344:	08cc      	lsrs	r4, r1, #3
  400346:	ea4f 08d2 	mov.w	r8, r2, lsr #3
  40034a:	f001 0207 	and.w	r2, r1, #7
  40034e:	23ff      	movs	r3, #255	; 0xff
  400350:	fa03 f202 	lsl.w	r2, r3, r2
  400354:	b2d2      	uxtb	r2, r2
  400356:	f005 0507 	and.w	r5, r5, #7
  40035a:	f1c5 0507 	rsb	r5, r5, #7
  40035e:	fa43 f505 	asr.w	r5, r3, r5
  400362:	b2ed      	uxtb	r5, r5
  400364:	4544      	cmp	r4, r8
  400366:	d020      	beq.n	4003aa <gfx_mono_generic_draw_vertical_line+0x86>
  400368:	463b      	mov	r3, r7
  40036a:	4601      	mov	r1, r0
  40036c:	4620      	mov	r0, r4
  40036e:	f8df 904c 	ldr.w	r9, [pc, #76]	; 4003bc <gfx_mono_generic_draw_vertical_line+0x98>
  400372:	47c8      	blx	r9
  400374:	3401      	adds	r4, #1
  400376:	45a0      	cmp	r8, r4
  400378:	d90a      	bls.n	400390 <gfx_mono_generic_draw_vertical_line+0x6c>
  40037a:	f04f 0aff 	mov.w	sl, #255	; 0xff
  40037e:	463b      	mov	r3, r7
  400380:	4652      	mov	r2, sl
  400382:	4631      	mov	r1, r6
  400384:	4620      	mov	r0, r4
  400386:	47c8      	blx	r9
  400388:	3401      	adds	r4, #1
  40038a:	b2e4      	uxtb	r4, r4
  40038c:	45a0      	cmp	r8, r4
  40038e:	d8f6      	bhi.n	40037e <gfx_mono_generic_draw_vertical_line+0x5a>
  400390:	463b      	mov	r3, r7
  400392:	462a      	mov	r2, r5
  400394:	4631      	mov	r1, r6
  400396:	4640      	mov	r0, r8
  400398:	4c08      	ldr	r4, [pc, #32]	; (4003bc <gfx_mono_generic_draw_vertical_line+0x98>)
  40039a:	47a0      	blx	r4
  40039c:	e8bd 87f0 	ldmia.w	sp!, {r4, r5, r6, r7, r8, r9, sl, pc}
  4003a0:	461a      	mov	r2, r3
  4003a2:	4b07      	ldr	r3, [pc, #28]	; (4003c0 <gfx_mono_generic_draw_vertical_line+0x9c>)
  4003a4:	4798      	blx	r3
  4003a6:	e8bd 87f0 	ldmia.w	sp!, {r4, r5, r6, r7, r8, r9, sl, pc}
  4003aa:	463b      	mov	r3, r7
  4003ac:	402a      	ands	r2, r5
  4003ae:	4601      	mov	r1, r0
  4003b0:	4620      	mov	r0, r4
  4003b2:	4c02      	ldr	r4, [pc, #8]	; (4003bc <gfx_mono_generic_draw_vertical_line+0x98>)
  4003b4:	47a0      	blx	r4
  4003b6:	e8bd 87f0 	ldmia.w	sp!, {r4, r5, r6, r7, r8, r9, sl, pc}
  4003ba:	4770      	bx	lr
  4003bc:	004005e5 	.word	0x004005e5
  4003c0:	00400581 	.word	0x00400581

004003c4 <gfx_mono_generic_draw_filled_circle>:
  4003c4:	e92d 4ff0 	stmdb	sp!, {r4, r5, r6, r7, r8, r9, sl, fp, lr}
  4003c8:	b085      	sub	sp, #20
  4003ca:	4681      	mov	r9, r0
  4003cc:	9100      	str	r1, [sp, #0]
  4003ce:	9301      	str	r3, [sp, #4]
  4003d0:	f89d b038 	ldrb.w	fp, [sp, #56]	; 0x38
  4003d4:	b17a      	cbz	r2, 4003f6 <gfx_mono_generic_draw_filled_circle+0x32>
  4003d6:	4616      	mov	r6, r2
  4003d8:	0055      	lsls	r5, r2, #1
  4003da:	f1c5 0503 	rsb	r5, r5, #3
  4003de:	2701      	movs	r7, #1
  4003e0:	f04f 0800 	mov.w	r8, #0
  4003e4:	f00b 0303 	and.w	r3, fp, #3
  4003e8:	9302      	str	r3, [sp, #8]
  4003ea:	f8df a0f0 	ldr.w	sl, [pc, #240]	; 4004dc <gfx_mono_generic_draw_filled_circle+0x118>
  4003ee:	f00b 030c 	and.w	r3, fp, #12
  4003f2:	9303      	str	r3, [sp, #12]
  4003f4:	e04d      	b.n	400492 <gfx_mono_generic_draw_filled_circle+0xce>
  4003f6:	461a      	mov	r2, r3
  4003f8:	4b37      	ldr	r3, [pc, #220]	; (4004d8 <gfx_mono_generic_draw_filled_circle+0x114>)
  4003fa:	4798      	blx	r3
  4003fc:	b005      	add	sp, #20
  4003fe:	e8bd 8ff0 	ldmia.w	sp!, {r4, r5, r6, r7, r8, r9, sl, fp, pc}
  400402:	9b00      	ldr	r3, [sp, #0]
  400404:	1b19      	subs	r1, r3, r4
  400406:	eb09 0006 	add.w	r0, r9, r6
  40040a:	9b01      	ldr	r3, [sp, #4]
  40040c:	463a      	mov	r2, r7
  40040e:	b2c9      	uxtb	r1, r1
  400410:	b2c0      	uxtb	r0, r0
  400412:	47d0      	blx	sl
  400414:	1c72      	adds	r2, r6, #1
  400416:	9900      	ldr	r1, [sp, #0]
  400418:	1b89      	subs	r1, r1, r6
  40041a:	eb09 0004 	add.w	r0, r9, r4
  40041e:	9b01      	ldr	r3, [sp, #4]
  400420:	b2d2      	uxtb	r2, r2
  400422:	b2c9      	uxtb	r1, r1
  400424:	b2c0      	uxtb	r0, r0
  400426:	47d0      	blx	sl
  400428:	e038      	b.n	40049c <gfx_mono_generic_draw_filled_circle+0xd8>
  40042a:	9b00      	ldr	r3, [sp, #0]
  40042c:	1b19      	subs	r1, r3, r4
  40042e:	eba9 0006 	sub.w	r0, r9, r6
  400432:	9b01      	ldr	r3, [sp, #4]
  400434:	463a      	mov	r2, r7
  400436:	b2c9      	uxtb	r1, r1
  400438:	b2c0      	uxtb	r0, r0
  40043a:	47d0      	blx	sl
  40043c:	1c72      	adds	r2, r6, #1
  40043e:	9900      	ldr	r1, [sp, #0]
  400440:	1b89      	subs	r1, r1, r6
  400442:	eba9 0004 	sub.w	r0, r9, r4
  400446:	9b01      	ldr	r3, [sp, #4]
  400448:	b2d2      	uxtb	r2, r2
  40044a:	b2c9      	uxtb	r1, r1
  40044c:	b2c0      	uxtb	r0, r0
  40044e:	47d0      	blx	sl
  400450:	e027      	b.n	4004a2 <gfx_mono_generic_draw_filled_circle+0xde>
  400452:	eba9 0006 	sub.w	r0, r9, r6
  400456:	9b01      	ldr	r3, [sp, #4]
  400458:	463a      	mov	r2, r7
  40045a:	9900      	ldr	r1, [sp, #0]
  40045c:	b2c0      	uxtb	r0, r0
  40045e:	47d0      	blx	sl
  400460:	1c72      	adds	r2, r6, #1
  400462:	eba9 0004 	sub.w	r0, r9, r4
  400466:	9b01      	ldr	r3, [sp, #4]
  400468:	b2d2      	uxtb	r2, r2
  40046a:	9900      	ldr	r1, [sp, #0]
  40046c:	b2c0      	uxtb	r0, r0
  40046e:	47d0      	blx	sl
  400470:	e01a      	b.n	4004a8 <gfx_mono_generic_draw_filled_circle+0xe4>
  400472:	2d00      	cmp	r5, #0
  400474:	db2b      	blt.n	4004ce <gfx_mono_generic_draw_filled_circle+0x10a>
  400476:	1ba4      	subs	r4, r4, r6
  400478:	350a      	adds	r5, #10
  40047a:	eb05 0484 	add.w	r4, r5, r4, lsl #2
  40047e:	b225      	sxth	r5, r4
  400480:	3e01      	subs	r6, #1
  400482:	b2f6      	uxtb	r6, r6
  400484:	f108 0801 	add.w	r8, r8, #1
  400488:	1c7b      	adds	r3, r7, #1
  40048a:	b2db      	uxtb	r3, r3
  40048c:	42be      	cmp	r6, r7
  40048e:	d3b5      	bcc.n	4003fc <gfx_mono_generic_draw_filled_circle+0x38>
  400490:	461f      	mov	r7, r3
  400492:	fa5f f488 	uxtb.w	r4, r8
  400496:	9b02      	ldr	r3, [sp, #8]
  400498:	2b00      	cmp	r3, #0
  40049a:	d1b2      	bne.n	400402 <gfx_mono_generic_draw_filled_circle+0x3e>
  40049c:	9b03      	ldr	r3, [sp, #12]
  40049e:	2b00      	cmp	r3, #0
  4004a0:	d1c3      	bne.n	40042a <gfx_mono_generic_draw_filled_circle+0x66>
  4004a2:	f01b 0f30 	tst.w	fp, #48	; 0x30
  4004a6:	d1d4      	bne.n	400452 <gfx_mono_generic_draw_filled_circle+0x8e>
  4004a8:	f01b 0fc0 	tst.w	fp, #192	; 0xc0
  4004ac:	d0e1      	beq.n	400472 <gfx_mono_generic_draw_filled_circle+0xae>
  4004ae:	eb09 0006 	add.w	r0, r9, r6
  4004b2:	9b01      	ldr	r3, [sp, #4]
  4004b4:	463a      	mov	r2, r7
  4004b6:	9900      	ldr	r1, [sp, #0]
  4004b8:	b2c0      	uxtb	r0, r0
  4004ba:	47d0      	blx	sl
  4004bc:	1c72      	adds	r2, r6, #1
  4004be:	eb09 0004 	add.w	r0, r9, r4
  4004c2:	9b01      	ldr	r3, [sp, #4]
  4004c4:	b2d2      	uxtb	r2, r2
  4004c6:	9900      	ldr	r1, [sp, #0]
  4004c8:	b2c0      	uxtb	r0, r0
  4004ca:	47d0      	blx	sl
  4004cc:	e7d1      	b.n	400472 <gfx_mono_generic_draw_filled_circle+0xae>
  4004ce:	3506      	adds	r5, #6
  4004d0:	eb05 0584 	add.w	r5, r5, r4, lsl #2
  4004d4:	b22d      	sxth	r5, r5
  4004d6:	e7d5      	b.n	400484 <gfx_mono_generic_draw_filled_circle+0xc0>
  4004d8:	00400581 	.word	0x00400581
  4004dc:	00400325 	.word	0x00400325

004004e0 <gfx_mono_ssd1306_put_byte>:
  4004e0:	b570      	push	{r4, r5, r6, lr}
  4004e2:	4604      	mov	r4, r0
  4004e4:	460d      	mov	r5, r1
  4004e6:	4616      	mov	r6, r2
  4004e8:	b91b      	cbnz	r3, 4004f2 <gfx_mono_ssd1306_put_byte+0x12>
  4004ea:	4b0d      	ldr	r3, [pc, #52]	; (400520 <gfx_mono_ssd1306_put_byte+0x40>)
  4004ec:	4798      	blx	r3
  4004ee:	42b0      	cmp	r0, r6
  4004f0:	d015      	beq.n	40051e <gfx_mono_ssd1306_put_byte+0x3e>
  4004f2:	4632      	mov	r2, r6
  4004f4:	4629      	mov	r1, r5
  4004f6:	4620      	mov	r0, r4
  4004f8:	4b0a      	ldr	r3, [pc, #40]	; (400524 <gfx_mono_ssd1306_put_byte+0x44>)
  4004fa:	4798      	blx	r3
  4004fc:	f004 000f 	and.w	r0, r4, #15
  400500:	f040 00b0 	orr.w	r0, r0, #176	; 0xb0
  400504:	4c08      	ldr	r4, [pc, #32]	; (400528 <gfx_mono_ssd1306_put_byte+0x48>)
  400506:	47a0      	blx	r4
  400508:	f3c5 1002 	ubfx	r0, r5, #4, #3
  40050c:	f040 0010 	orr.w	r0, r0, #16
  400510:	47a0      	blx	r4
  400512:	f005 000f 	and.w	r0, r5, #15
  400516:	47a0      	blx	r4
  400518:	4630      	mov	r0, r6
  40051a:	4b04      	ldr	r3, [pc, #16]	; (40052c <gfx_mono_ssd1306_put_byte+0x4c>)
  40051c:	4798      	blx	r3
  40051e:	bd70      	pop	{r4, r5, r6, pc}
  400520:	00400315 	.word	0x00400315
  400524:	00400305 	.word	0x00400305
  400528:	00400629 	.word	0x00400629
  40052c:	00400849 	.word	0x00400849

00400530 <gfx_mono_ssd1306_init>:
  400530:	e92d 41f0 	stmdb	sp!, {r4, r5, r6, r7, r8, lr}
  400534:	480d      	ldr	r0, [pc, #52]	; (40056c <gfx_mono_ssd1306_init+0x3c>)
  400536:	4b0e      	ldr	r3, [pc, #56]	; (400570 <gfx_mono_ssd1306_init+0x40>)
  400538:	4798      	blx	r3
  40053a:	4b0e      	ldr	r3, [pc, #56]	; (400574 <gfx_mono_ssd1306_init+0x44>)
  40053c:	4798      	blx	r3
  40053e:	2040      	movs	r0, #64	; 0x40
  400540:	4b0d      	ldr	r3, [pc, #52]	; (400578 <gfx_mono_ssd1306_init+0x48>)
  400542:	4798      	blx	r3
  400544:	2500      	movs	r5, #0
  400546:	f04f 0801 	mov.w	r8, #1
  40054a:	462f      	mov	r7, r5
  40054c:	4e0b      	ldr	r6, [pc, #44]	; (40057c <gfx_mono_ssd1306_init+0x4c>)
  40054e:	2400      	movs	r4, #0
  400550:	4643      	mov	r3, r8
  400552:	463a      	mov	r2, r7
  400554:	b2e1      	uxtb	r1, r4
  400556:	4628      	mov	r0, r5
  400558:	47b0      	blx	r6
  40055a:	3401      	adds	r4, #1
  40055c:	2c80      	cmp	r4, #128	; 0x80
  40055e:	d1f7      	bne.n	400550 <gfx_mono_ssd1306_init+0x20>
  400560:	3501      	adds	r5, #1
  400562:	b2ed      	uxtb	r5, r5
  400564:	2d04      	cmp	r5, #4
  400566:	d1f2      	bne.n	40054e <gfx_mono_ssd1306_init+0x1e>
  400568:	e8bd 81f0 	ldmia.w	sp!, {r4, r5, r6, r7, r8, pc}
  40056c:	204009e0 	.word	0x204009e0
  400570:	004002f9 	.word	0x004002f9
  400574:	00400669 	.word	0x00400669
  400578:	00400629 	.word	0x00400629
  40057c:	004004e1 	.word	0x004004e1

00400580 <gfx_mono_ssd1306_draw_pixel>:
  400580:	09c3      	lsrs	r3, r0, #7
  400582:	d12a      	bne.n	4005da <gfx_mono_ssd1306_draw_pixel+0x5a>
  400584:	291f      	cmp	r1, #31
  400586:	d828      	bhi.n	4005da <gfx_mono_ssd1306_draw_pixel+0x5a>
  400588:	e92d 41f0 	stmdb	sp!, {r4, r5, r6, r7, r8, lr}
  40058c:	4614      	mov	r4, r2
  40058e:	4605      	mov	r5, r0
  400590:	08ce      	lsrs	r6, r1, #3
  400592:	eba1 01c6 	sub.w	r1, r1, r6, lsl #3
  400596:	2201      	movs	r2, #1
  400598:	fa02 f701 	lsl.w	r7, r2, r1
  40059c:	fa5f f887 	uxtb.w	r8, r7
  4005a0:	4601      	mov	r1, r0
  4005a2:	4630      	mov	r0, r6
  4005a4:	4b0d      	ldr	r3, [pc, #52]	; (4005dc <gfx_mono_ssd1306_draw_pixel+0x5c>)
  4005a6:	4798      	blx	r3
  4005a8:	4602      	mov	r2, r0
  4005aa:	2c01      	cmp	r4, #1
  4005ac:	d009      	beq.n	4005c2 <gfx_mono_ssd1306_draw_pixel+0x42>
  4005ae:	b164      	cbz	r4, 4005ca <gfx_mono_ssd1306_draw_pixel+0x4a>
  4005b0:	2c02      	cmp	r4, #2
  4005b2:	d00e      	beq.n	4005d2 <gfx_mono_ssd1306_draw_pixel+0x52>
  4005b4:	2300      	movs	r3, #0
  4005b6:	4629      	mov	r1, r5
  4005b8:	4630      	mov	r0, r6
  4005ba:	4c09      	ldr	r4, [pc, #36]	; (4005e0 <gfx_mono_ssd1306_draw_pixel+0x60>)
  4005bc:	47a0      	blx	r4
  4005be:	e8bd 81f0 	ldmia.w	sp!, {r4, r5, r6, r7, r8, pc}
  4005c2:	ea48 0200 	orr.w	r2, r8, r0
  4005c6:	b2d2      	uxtb	r2, r2
  4005c8:	e7f4      	b.n	4005b4 <gfx_mono_ssd1306_draw_pixel+0x34>
  4005ca:	ea20 0207 	bic.w	r2, r0, r7
  4005ce:	b2d2      	uxtb	r2, r2
  4005d0:	e7f0      	b.n	4005b4 <gfx_mono_ssd1306_draw_pixel+0x34>
  4005d2:	ea88 0200 	eor.w	r2, r8, r0
  4005d6:	b2d2      	uxtb	r2, r2
  4005d8:	e7ec      	b.n	4005b4 <gfx_mono_ssd1306_draw_pixel+0x34>
  4005da:	4770      	bx	lr
  4005dc:	00400315 	.word	0x00400315
  4005e0:	004004e1 	.word	0x004004e1

004005e4 <gfx_mono_ssd1306_mask_byte>:
  4005e4:	b5f8      	push	{r3, r4, r5, r6, r7, lr}
  4005e6:	4605      	mov	r5, r0
  4005e8:	460e      	mov	r6, r1
  4005ea:	4617      	mov	r7, r2
  4005ec:	461c      	mov	r4, r3
  4005ee:	4b0c      	ldr	r3, [pc, #48]	; (400620 <gfx_mono_ssd1306_mask_byte+0x3c>)
  4005f0:	4798      	blx	r3
  4005f2:	4602      	mov	r2, r0
  4005f4:	2c01      	cmp	r4, #1
  4005f6:	d008      	beq.n	40060a <gfx_mono_ssd1306_mask_byte+0x26>
  4005f8:	b154      	cbz	r4, 400610 <gfx_mono_ssd1306_mask_byte+0x2c>
  4005fa:	2c02      	cmp	r4, #2
  4005fc:	d00c      	beq.n	400618 <gfx_mono_ssd1306_mask_byte+0x34>
  4005fe:	2300      	movs	r3, #0
  400600:	4631      	mov	r1, r6
  400602:	4628      	mov	r0, r5
  400604:	4c07      	ldr	r4, [pc, #28]	; (400624 <gfx_mono_ssd1306_mask_byte+0x40>)
  400606:	47a0      	blx	r4
  400608:	bdf8      	pop	{r3, r4, r5, r6, r7, pc}
  40060a:	433a      	orrs	r2, r7
  40060c:	b2d2      	uxtb	r2, r2
  40060e:	e7f6      	b.n	4005fe <gfx_mono_ssd1306_mask_byte+0x1a>
  400610:	ea20 0207 	bic.w	r2, r0, r7
  400614:	b2d2      	uxtb	r2, r2
  400616:	e7f2      	b.n	4005fe <gfx_mono_ssd1306_mask_byte+0x1a>
  400618:	407a      	eors	r2, r7
  40061a:	b2d2      	uxtb	r2, r2
  40061c:	e7ef      	b.n	4005fe <gfx_mono_ssd1306_mask_byte+0x1a>
  40061e:	bf00      	nop
  400620:	00400315 	.word	0x00400315
  400624:	004004e1 	.word	0x004004e1

00400628 <ssd1306_write_command>:
  400628:	b538      	push	{r3, r4, r5, lr}
  40062a:	4605      	mov	r5, r0
  40062c:	2208      	movs	r2, #8
  40062e:	4b09      	ldr	r3, [pc, #36]	; (400654 <ssd1306_write_command+0x2c>)
  400630:	635a      	str	r2, [r3, #52]	; 0x34
  400632:	4c09      	ldr	r4, [pc, #36]	; (400658 <ssd1306_write_command+0x30>)
  400634:	2101      	movs	r1, #1
  400636:	4620      	mov	r0, r4
  400638:	4b08      	ldr	r3, [pc, #32]	; (40065c <ssd1306_write_command+0x34>)
  40063a:	4798      	blx	r3
  40063c:	2301      	movs	r3, #1
  40063e:	461a      	mov	r2, r3
  400640:	4629      	mov	r1, r5
  400642:	4620      	mov	r0, r4
  400644:	4c06      	ldr	r4, [pc, #24]	; (400660 <ssd1306_write_command+0x38>)
  400646:	47a0      	blx	r4
  400648:	f44f 70fd 	mov.w	r0, #506	; 0x1fa
  40064c:	4b05      	ldr	r3, [pc, #20]	; (400664 <ssd1306_write_command+0x3c>)
  40064e:	4798      	blx	r3
  400650:	bd38      	pop	{r3, r4, r5, pc}
  400652:	bf00      	nop
  400654:	400e1000 	.word	0x400e1000
  400658:	40008000 	.word	0x40008000
  40065c:	004001d9 	.word	0x004001d9
  400660:	004001ef 	.word	0x004001ef
  400664:	20400001 	.word	0x20400001

00400668 <ssd1306_init>:
  400668:	e92d 43f8 	stmdb	sp!, {r3, r4, r5, r6, r7, r8, r9, lr}
  40066c:	4d66      	ldr	r5, [pc, #408]	; (400808 <ssd1306_init+0x1a0>)
  40066e:	f44f 3600 	mov.w	r6, #131072	; 0x20000
  400672:	612e      	str	r6, [r5, #16]
  400674:	f8c5 60a0 	str.w	r6, [r5, #160]	; 0xa0
  400678:	4b64      	ldr	r3, [pc, #400]	; (40080c <ssd1306_init+0x1a4>)
  40067a:	2708      	movs	r7, #8
  40067c:	611f      	str	r7, [r3, #16]
  40067e:	f8c3 70a0 	str.w	r7, [r3, #160]	; 0xa0
  400682:	666e      	str	r6, [r5, #100]	; 0x64
  400684:	f8c5 6090 	str.w	r6, [r5, #144]	; 0x90
  400688:	656e      	str	r6, [r5, #84]	; 0x54
  40068a:	626e      	str	r6, [r5, #36]	; 0x24
  40068c:	f8c5 6080 	str.w	r6, [r5, #128]	; 0x80
  400690:	6f2a      	ldr	r2, [r5, #112]	; 0x70
  400692:	f422 3200 	bic.w	r2, r2, #131072	; 0x20000
  400696:	672a      	str	r2, [r5, #112]	; 0x70
  400698:	6f6a      	ldr	r2, [r5, #116]	; 0x74
  40069a:	f422 3200 	bic.w	r2, r2, #131072	; 0x20000
  40069e:	676a      	str	r2, [r5, #116]	; 0x74
  4006a0:	665f      	str	r7, [r3, #100]	; 0x64
  4006a2:	f8c3 7090 	str.w	r7, [r3, #144]	; 0x90
  4006a6:	655f      	str	r7, [r3, #84]	; 0x54
  4006a8:	625f      	str	r7, [r3, #36]	; 0x24
  4006aa:	f8c3 7080 	str.w	r7, [r3, #128]	; 0x80
  4006ae:	6f1a      	ldr	r2, [r3, #112]	; 0x70
  4006b0:	f022 0208 	bic.w	r2, r2, #8
  4006b4:	671a      	str	r2, [r3, #112]	; 0x70
  4006b6:	6f5a      	ldr	r2, [r3, #116]	; 0x74
  4006b8:	f022 0208 	bic.w	r2, r2, #8
  4006bc:	675a      	str	r2, [r3, #116]	; 0x74
  4006be:	601f      	str	r7, [r3, #0]
  4006c0:	602e      	str	r6, [r5, #0]
  4006c2:	631f      	str	r7, [r3, #48]	; 0x30
  4006c4:	632e      	str	r6, [r5, #48]	; 0x30
  4006c6:	f8df 817c 	ldr.w	r8, [pc, #380]	; 400844 <ssd1306_init+0x1dc>
  4006ca:	2300      	movs	r3, #0
  4006cc:	f44f 0280 	mov.w	r2, #4194304	; 0x400000
  4006d0:	f04f 5180 	mov.w	r1, #268435456	; 0x10000000
  4006d4:	4640      	mov	r0, r8
  4006d6:	4c4e      	ldr	r4, [pc, #312]	; (400810 <ssd1306_init+0x1a8>)
  4006d8:	47a0      	blx	r4
  4006da:	2300      	movs	r3, #0
  4006dc:	f44f 1200 	mov.w	r2, #2097152	; 0x200000
  4006e0:	f04f 5180 	mov.w	r1, #268435456	; 0x10000000
  4006e4:	4640      	mov	r0, r8
  4006e6:	47a0      	blx	r4
  4006e8:	2300      	movs	r3, #0
  4006ea:	f04f 7200 	mov.w	r2, #33554432	; 0x2000000
  4006ee:	f04f 5180 	mov.w	r1, #268435456	; 0x10000000
  4006f2:	4640      	mov	r0, r8
  4006f4:	47a0      	blx	r4
  4006f6:	2300      	movs	r3, #0
  4006f8:	f44f 0280 	mov.w	r2, #4194304	; 0x400000
  4006fc:	f04f 5180 	mov.w	r1, #268435456	; 0x10000000
  400700:	4640      	mov	r0, r8
  400702:	47a0      	blx	r4
  400704:	2300      	movs	r3, #0
  400706:	f44f 1200 	mov.w	r2, #2097152	; 0x200000
  40070a:	f04f 5180 	mov.w	r1, #268435456	; 0x10000000
  40070e:	4640      	mov	r0, r8
  400710:	47a0      	blx	r4
  400712:	2300      	movs	r3, #0
  400714:	f04f 7200 	mov.w	r2, #33554432	; 0x2000000
  400718:	f04f 5180 	mov.w	r1, #268435456	; 0x10000000
  40071c:	4640      	mov	r0, r8
  40071e:	47a0      	blx	r4
  400720:	4c3c      	ldr	r4, [pc, #240]	; (400814 <ssd1306_init+0x1ac>)
  400722:	f04f 0902 	mov.w	r9, #2
  400726:	f8c4 9000 	str.w	r9, [r4]
  40072a:	f04f 0880 	mov.w	r8, #128	; 0x80
  40072e:	f8c4 8000 	str.w	r8, [r4]
  400732:	6863      	ldr	r3, [r4, #4]
  400734:	f043 0301 	orr.w	r3, r3, #1
  400738:	6063      	str	r3, [r4, #4]
  40073a:	463a      	mov	r2, r7
  40073c:	2101      	movs	r1, #1
  40073e:	4620      	mov	r0, r4
  400740:	4b35      	ldr	r3, [pc, #212]	; (400818 <ssd1306_init+0x1b0>)
  400742:	4798      	blx	r3
  400744:	2200      	movs	r2, #0
  400746:	2101      	movs	r1, #1
  400748:	4620      	mov	r0, r4
  40074a:	4b34      	ldr	r3, [pc, #208]	; (40081c <ssd1306_init+0x1b4>)
  40074c:	4798      	blx	r3
  40074e:	2200      	movs	r2, #0
  400750:	2101      	movs	r1, #1
  400752:	4620      	mov	r0, r4
  400754:	4b32      	ldr	r3, [pc, #200]	; (400820 <ssd1306_init+0x1b8>)
  400756:	4798      	blx	r3
  400758:	6863      	ldr	r3, [r4, #4]
  40075a:	f023 0302 	bic.w	r3, r3, #2
  40075e:	6063      	str	r3, [r4, #4]
  400760:	2200      	movs	r2, #0
  400762:	2101      	movs	r1, #1
  400764:	4620      	mov	r0, r4
  400766:	4b2f      	ldr	r3, [pc, #188]	; (400824 <ssd1306_init+0x1bc>)
  400768:	4798      	blx	r3
  40076a:	6863      	ldr	r3, [r4, #4]
  40076c:	f023 0380 	bic.w	r3, r3, #128	; 0x80
  400770:	6063      	str	r3, [r4, #4]
  400772:	6863      	ldr	r3, [r4, #4]
  400774:	f043 0310 	orr.w	r3, r3, #16
  400778:	6063      	str	r3, [r4, #4]
  40077a:	492b      	ldr	r1, [pc, #172]	; (400828 <ssd1306_init+0x1c0>)
  40077c:	482b      	ldr	r0, [pc, #172]	; (40082c <ssd1306_init+0x1c4>)
  40077e:	4b2c      	ldr	r3, [pc, #176]	; (400830 <ssd1306_init+0x1c8>)
  400780:	4798      	blx	r3
  400782:	b2c2      	uxtb	r2, r0
  400784:	2101      	movs	r1, #1
  400786:	4620      	mov	r0, r4
  400788:	4b2a      	ldr	r3, [pc, #168]	; (400834 <ssd1306_init+0x1cc>)
  40078a:	4798      	blx	r3
  40078c:	4620      	mov	r0, r4
  40078e:	4b2a      	ldr	r3, [pc, #168]	; (400838 <ssd1306_init+0x1d0>)
  400790:	4798      	blx	r3
  400792:	2301      	movs	r3, #1
  400794:	6023      	str	r3, [r4, #0]
  400796:	636e      	str	r6, [r5, #52]	; 0x34
  400798:	f640 30b8 	movw	r0, #3000	; 0xbb8
  40079c:	4c27      	ldr	r4, [pc, #156]	; (40083c <ssd1306_init+0x1d4>)
  40079e:	47a0      	blx	r4
  4007a0:	632e      	str	r6, [r5, #48]	; 0x30
  4007a2:	f640 30b8 	movw	r0, #3000	; 0xbb8
  4007a6:	47a0      	blx	r4
  4007a8:	632e      	str	r6, [r5, #48]	; 0x30
  4007aa:	20a8      	movs	r0, #168	; 0xa8
  4007ac:	4c24      	ldr	r4, [pc, #144]	; (400840 <ssd1306_init+0x1d8>)
  4007ae:	47a0      	blx	r4
  4007b0:	201f      	movs	r0, #31
  4007b2:	47a0      	blx	r4
  4007b4:	20d3      	movs	r0, #211	; 0xd3
  4007b6:	47a0      	blx	r4
  4007b8:	2000      	movs	r0, #0
  4007ba:	47a0      	blx	r4
  4007bc:	2040      	movs	r0, #64	; 0x40
  4007be:	47a0      	blx	r4
  4007c0:	20a1      	movs	r0, #161	; 0xa1
  4007c2:	47a0      	blx	r4
  4007c4:	20c8      	movs	r0, #200	; 0xc8
  4007c6:	47a0      	blx	r4
  4007c8:	20da      	movs	r0, #218	; 0xda
  4007ca:	47a0      	blx	r4
  4007cc:	4648      	mov	r0, r9
  4007ce:	47a0      	blx	r4
  4007d0:	2081      	movs	r0, #129	; 0x81
  4007d2:	47a0      	blx	r4
  4007d4:	208f      	movs	r0, #143	; 0x8f
  4007d6:	47a0      	blx	r4
  4007d8:	20a4      	movs	r0, #164	; 0xa4
  4007da:	47a0      	blx	r4
  4007dc:	20a6      	movs	r0, #166	; 0xa6
  4007de:	47a0      	blx	r4
  4007e0:	20d5      	movs	r0, #213	; 0xd5
  4007e2:	47a0      	blx	r4
  4007e4:	4640      	mov	r0, r8
  4007e6:	47a0      	blx	r4
  4007e8:	208d      	movs	r0, #141	; 0x8d
  4007ea:	47a0      	blx	r4
  4007ec:	2014      	movs	r0, #20
  4007ee:	47a0      	blx	r4
  4007f0:	20db      	movs	r0, #219	; 0xdb
  4007f2:	47a0      	blx	r4
  4007f4:	2040      	movs	r0, #64	; 0x40
  4007f6:	47a0      	blx	r4
  4007f8:	20d9      	movs	r0, #217	; 0xd9
  4007fa:	47a0      	blx	r4
  4007fc:	20f1      	movs	r0, #241	; 0xf1
  4007fe:	47a0      	blx	r4
  400800:	20af      	movs	r0, #175	; 0xaf
  400802:	47a0      	blx	r4
  400804:	e8bd 83f8 	ldmia.w	sp!, {r3, r4, r5, r6, r7, r8, r9, pc}
  400808:	400e1200 	.word	0x400e1200
  40080c:	400e1000 	.word	0x400e1000
  400810:	00400c29 	.word	0x00400c29
  400814:	40008000 	.word	0x40008000
  400818:	0040025f 	.word	0x0040025f
  40081c:	00400223 	.word	0x00400223
  400820:	00400241 	.word	0x00400241
  400824:	004002a5 	.word	0x004002a5
  400828:	08f0d180 	.word	0x08f0d180
  40082c:	001e8480 	.word	0x001e8480
  400830:	004002b9 	.word	0x004002b9
  400834:	004002cf 	.word	0x004002cf
  400838:	004001ad 	.word	0x004001ad
  40083c:	20400001 	.word	0x20400001
  400840:	00400629 	.word	0x00400629
  400844:	400e1400 	.word	0x400e1400

00400848 <ssd1306_write_data>:
  400848:	b538      	push	{r3, r4, r5, lr}
  40084a:	4605      	mov	r5, r0
  40084c:	2208      	movs	r2, #8
  40084e:	4b09      	ldr	r3, [pc, #36]	; (400874 <ssd1306_write_data+0x2c>)
  400850:	631a      	str	r2, [r3, #48]	; 0x30
  400852:	4c09      	ldr	r4, [pc, #36]	; (400878 <ssd1306_write_data+0x30>)
  400854:	2101      	movs	r1, #1
  400856:	4620      	mov	r0, r4
  400858:	4b08      	ldr	r3, [pc, #32]	; (40087c <ssd1306_write_data+0x34>)
  40085a:	4798      	blx	r3
  40085c:	2301      	movs	r3, #1
  40085e:	461a      	mov	r2, r3
  400860:	4629      	mov	r1, r5
  400862:	4620      	mov	r0, r4
  400864:	4c06      	ldr	r4, [pc, #24]	; (400880 <ssd1306_write_data+0x38>)
  400866:	47a0      	blx	r4
  400868:	f44f 70fd 	mov.w	r0, #506	; 0x1fa
  40086c:	4b05      	ldr	r3, [pc, #20]	; (400884 <ssd1306_write_data+0x3c>)
  40086e:	4798      	blx	r3
  400870:	bd38      	pop	{r3, r4, r5, pc}
  400872:	bf00      	nop
  400874:	400e1000 	.word	0x400e1000
  400878:	40008000 	.word	0x40008000
  40087c:	004001d9 	.word	0x004001d9
  400880:	004001ef 	.word	0x004001ef
  400884:	20400001 	.word	0x20400001

00400888 <sysclk_init>:
  400888:	b510      	push	{r4, lr}
  40088a:	4810      	ldr	r0, [pc, #64]	; (4008cc <sysclk_init+0x44>)
  40088c:	4b10      	ldr	r3, [pc, #64]	; (4008d0 <sysclk_init+0x48>)
  40088e:	4798      	blx	r3
  400890:	213e      	movs	r1, #62	; 0x3e
  400892:	2000      	movs	r0, #0
  400894:	4b0f      	ldr	r3, [pc, #60]	; (4008d4 <sysclk_init+0x4c>)
  400896:	4798      	blx	r3
  400898:	4c0f      	ldr	r4, [pc, #60]	; (4008d8 <sysclk_init+0x50>)
  40089a:	47a0      	blx	r4
  40089c:	2800      	cmp	r0, #0
  40089e:	d0fc      	beq.n	40089a <sysclk_init+0x12>
  4008a0:	4b0e      	ldr	r3, [pc, #56]	; (4008dc <sysclk_init+0x54>)
  4008a2:	4798      	blx	r3
  4008a4:	4a0e      	ldr	r2, [pc, #56]	; (4008e0 <sysclk_init+0x58>)
  4008a6:	4b0f      	ldr	r3, [pc, #60]	; (4008e4 <sysclk_init+0x5c>)
  4008a8:	629a      	str	r2, [r3, #40]	; 0x28
  4008aa:	4c0f      	ldr	r4, [pc, #60]	; (4008e8 <sysclk_init+0x60>)
  4008ac:	47a0      	blx	r4
  4008ae:	2800      	cmp	r0, #0
  4008b0:	d0fc      	beq.n	4008ac <sysclk_init+0x24>
  4008b2:	2002      	movs	r0, #2
  4008b4:	4b0d      	ldr	r3, [pc, #52]	; (4008ec <sysclk_init+0x64>)
  4008b6:	4798      	blx	r3
  4008b8:	2000      	movs	r0, #0
  4008ba:	4b0d      	ldr	r3, [pc, #52]	; (4008f0 <sysclk_init+0x68>)
  4008bc:	4798      	blx	r3
  4008be:	4b0d      	ldr	r3, [pc, #52]	; (4008f4 <sysclk_init+0x6c>)
  4008c0:	4798      	blx	r3
  4008c2:	4802      	ldr	r0, [pc, #8]	; (4008cc <sysclk_init+0x44>)
  4008c4:	4b02      	ldr	r3, [pc, #8]	; (4008d0 <sysclk_init+0x48>)
  4008c6:	4798      	blx	r3
  4008c8:	bd10      	pop	{r4, pc}
  4008ca:	bf00      	nop
  4008cc:	11e1a300 	.word	0x11e1a300
  4008d0:	0040129d 	.word	0x0040129d
  4008d4:	00400eb9 	.word	0x00400eb9
  4008d8:	00400f0d 	.word	0x00400f0d
  4008dc:	00400f1d 	.word	0x00400f1d
  4008e0:	20183f01 	.word	0x20183f01
  4008e4:	400e0600 	.word	0x400e0600
  4008e8:	00400f2d 	.word	0x00400f2d
  4008ec:	00400e1d 	.word	0x00400e1d
  4008f0:	00400e55 	.word	0x00400e55
  4008f4:	00401191 	.word	0x00401191

004008f8 <_read>:
  4008f8:	e92d 41f0 	stmdb	sp!, {r4, r5, r6, r7, r8, lr}
  4008fc:	b980      	cbnz	r0, 400920 <_read+0x28>
  4008fe:	460c      	mov	r4, r1
  400900:	4690      	mov	r8, r2
  400902:	2a00      	cmp	r2, #0
  400904:	dd0f      	ble.n	400926 <_read+0x2e>
  400906:	188f      	adds	r7, r1, r2
  400908:	4e08      	ldr	r6, [pc, #32]	; (40092c <_read+0x34>)
  40090a:	4d09      	ldr	r5, [pc, #36]	; (400930 <_read+0x38>)
  40090c:	6830      	ldr	r0, [r6, #0]
  40090e:	4621      	mov	r1, r4
  400910:	682b      	ldr	r3, [r5, #0]
  400912:	4798      	blx	r3
  400914:	3401      	adds	r4, #1
  400916:	42bc      	cmp	r4, r7
  400918:	d1f8      	bne.n	40090c <_read+0x14>
  40091a:	4640      	mov	r0, r8
  40091c:	e8bd 81f0 	ldmia.w	sp!, {r4, r5, r6, r7, r8, pc}
  400920:	f04f 38ff 	mov.w	r8, #4294967295
  400924:	e7f9      	b.n	40091a <_read+0x22>
  400926:	4680      	mov	r8, r0
  400928:	e7f7      	b.n	40091a <_read+0x22>
  40092a:	bf00      	nop
  40092c:	20400ddc 	.word	0x20400ddc
  400930:	20400dd4 	.word	0x20400dd4

00400934 <_write>:
  400934:	3801      	subs	r0, #1
  400936:	2802      	cmp	r0, #2
  400938:	d815      	bhi.n	400966 <_write+0x32>
  40093a:	e92d 41f0 	stmdb	sp!, {r4, r5, r6, r7, r8, lr}
  40093e:	460e      	mov	r6, r1
  400940:	4614      	mov	r4, r2
  400942:	b19a      	cbz	r2, 40096c <_write+0x38>
  400944:	460d      	mov	r5, r1
  400946:	f8df 8038 	ldr.w	r8, [pc, #56]	; 400980 <_write+0x4c>
  40094a:	4f0c      	ldr	r7, [pc, #48]	; (40097c <_write+0x48>)
  40094c:	f8d8 0000 	ldr.w	r0, [r8]
  400950:	f815 1b01 	ldrb.w	r1, [r5], #1
  400954:	683b      	ldr	r3, [r7, #0]
  400956:	4798      	blx	r3
  400958:	2800      	cmp	r0, #0
  40095a:	db0a      	blt.n	400972 <_write+0x3e>
  40095c:	1ba8      	subs	r0, r5, r6
  40095e:	3c01      	subs	r4, #1
  400960:	d1f4      	bne.n	40094c <_write+0x18>
  400962:	e8bd 81f0 	ldmia.w	sp!, {r4, r5, r6, r7, r8, pc}
  400966:	f04f 30ff 	mov.w	r0, #4294967295
  40096a:	4770      	bx	lr
  40096c:	4610      	mov	r0, r2
  40096e:	e8bd 81f0 	ldmia.w	sp!, {r4, r5, r6, r7, r8, pc}
  400972:	f04f 30ff 	mov.w	r0, #4294967295
  400976:	e8bd 81f0 	ldmia.w	sp!, {r4, r5, r6, r7, r8, pc}
  40097a:	bf00      	nop
  40097c:	20400dd8 	.word	0x20400dd8
  400980:	20400ddc 	.word	0x20400ddc

00400984 <board_init>:
  400984:	b5f8      	push	{r3, r4, r5, r6, r7, lr}
  400986:	f44f 4200 	mov.w	r2, #32768	; 0x8000
  40098a:	4b5c      	ldr	r3, [pc, #368]	; (400afc <board_init+0x178>)
  40098c:	605a      	str	r2, [r3, #4]
  40098e:	f3bf 8f4f 	dsb	sy
  400992:	f3bf 8f6f 	isb	sy
  400996:	4b5a      	ldr	r3, [pc, #360]	; (400b00 <board_init+0x17c>)
  400998:	2200      	movs	r2, #0
  40099a:	f8c3 2250 	str.w	r2, [r3, #592]	; 0x250
  40099e:	695a      	ldr	r2, [r3, #20]
  4009a0:	f442 3200 	orr.w	r2, r2, #131072	; 0x20000
  4009a4:	615a      	str	r2, [r3, #20]
  4009a6:	f3bf 8f4f 	dsb	sy
  4009aa:	f3bf 8f6f 	isb	sy
  4009ae:	f8d3 7080 	ldr.w	r7, [r3, #128]	; 0x80
  4009b2:	f3c7 364e 	ubfx	r6, r7, #13, #15
  4009b6:	f007 0007 	and.w	r0, r7, #7
  4009ba:	3004      	adds	r0, #4
  4009bc:	f3c7 07c9 	ubfx	r7, r7, #3, #10
  4009c0:	fab7 fe87 	clz	lr, r7
  4009c4:	f00e 0e1f 	and.w	lr, lr, #31
  4009c8:	f3bf 8f4f 	dsb	sy
  4009cc:	f04f 34ff 	mov.w	r4, #4294967295
  4009d0:	fa04 fc00 	lsl.w	ip, r4, r0
  4009d4:	fa06 f000 	lsl.w	r0, r6, r0
  4009d8:	fa04 f40e 	lsl.w	r4, r4, lr
  4009dc:	fa07 fe0e 	lsl.w	lr, r7, lr
  4009e0:	461d      	mov	r5, r3
  4009e2:	463a      	mov	r2, r7
  4009e4:	4673      	mov	r3, lr
  4009e6:	ea40 0103 	orr.w	r1, r0, r3
  4009ea:	f8c5 1260 	str.w	r1, [r5, #608]	; 0x260
  4009ee:	3a01      	subs	r2, #1
  4009f0:	4423      	add	r3, r4
  4009f2:	f1b2 3fff 	cmp.w	r2, #4294967295
  4009f6:	d1f6      	bne.n	4009e6 <board_init+0x62>
  4009f8:	3e01      	subs	r6, #1
  4009fa:	4460      	add	r0, ip
  4009fc:	f1b6 3fff 	cmp.w	r6, #4294967295
  400a00:	d1ef      	bne.n	4009e2 <board_init+0x5e>
  400a02:	f3bf 8f4f 	dsb	sy
  400a06:	4b3e      	ldr	r3, [pc, #248]	; (400b00 <board_init+0x17c>)
  400a08:	695a      	ldr	r2, [r3, #20]
  400a0a:	f442 3280 	orr.w	r2, r2, #65536	; 0x10000
  400a0e:	615a      	str	r2, [r3, #20]
  400a10:	f3bf 8f4f 	dsb	sy
  400a14:	f3bf 8f6f 	isb	sy
  400a18:	4a3a      	ldr	r2, [pc, #232]	; (400b04 <board_init+0x180>)
  400a1a:	493b      	ldr	r1, [pc, #236]	; (400b08 <board_init+0x184>)
  400a1c:	6051      	str	r1, [r2, #4]
  400a1e:	f5a1 7180 	sub.w	r1, r1, #256	; 0x100
  400a22:	6051      	str	r1, [r2, #4]
  400a24:	f3bf 8f4f 	dsb	sy
  400a28:	f3bf 8f6f 	isb	sy
  400a2c:	f8d3 2290 	ldr.w	r2, [r3, #656]	; 0x290
  400a30:	f022 0201 	bic.w	r2, r2, #1
  400a34:	f8c3 2290 	str.w	r2, [r3, #656]	; 0x290
  400a38:	f8d3 2294 	ldr.w	r2, [r3, #660]	; 0x294
  400a3c:	f022 0201 	bic.w	r2, r2, #1
  400a40:	f8c3 2294 	str.w	r2, [r3, #660]	; 0x294
  400a44:	f3bf 8f4f 	dsb	sy
  400a48:	f3bf 8f6f 	isb	sy
  400a4c:	200a      	movs	r0, #10
  400a4e:	4c2f      	ldr	r4, [pc, #188]	; (400b0c <board_init+0x188>)
  400a50:	47a0      	blx	r4
  400a52:	200b      	movs	r0, #11
  400a54:	47a0      	blx	r4
  400a56:	200c      	movs	r0, #12
  400a58:	47a0      	blx	r4
  400a5a:	2010      	movs	r0, #16
  400a5c:	47a0      	blx	r4
  400a5e:	2011      	movs	r0, #17
  400a60:	47a0      	blx	r4
  400a62:	4b2b      	ldr	r3, [pc, #172]	; (400b10 <board_init+0x18c>)
  400a64:	f44f 7280 	mov.w	r2, #256	; 0x100
  400a68:	611a      	str	r2, [r3, #16]
  400a6a:	f8c3 20a0 	str.w	r2, [r3, #160]	; 0xa0
  400a6e:	631a      	str	r2, [r3, #48]	; 0x30
  400a70:	f5a3 6380 	sub.w	r3, r3, #1024	; 0x400
  400a74:	f44f 6200 	mov.w	r2, #2048	; 0x800
  400a78:	615a      	str	r2, [r3, #20]
  400a7a:	f8c3 20a0 	str.w	r2, [r3, #160]	; 0xa0
  400a7e:	665a      	str	r2, [r3, #100]	; 0x64
  400a80:	f8c3 2090 	str.w	r2, [r3, #144]	; 0x90
  400a84:	655a      	str	r2, [r3, #84]	; 0x54
  400a86:	621a      	str	r2, [r3, #32]
  400a88:	f8c3 2084 	str.w	r2, [r3, #132]	; 0x84
  400a8c:	6f19      	ldr	r1, [r3, #112]	; 0x70
  400a8e:	f421 6100 	bic.w	r1, r1, #2048	; 0x800
  400a92:	6719      	str	r1, [r3, #112]	; 0x70
  400a94:	6f59      	ldr	r1, [r3, #116]	; 0x74
  400a96:	f421 6100 	bic.w	r1, r1, #2048	; 0x800
  400a9a:	6759      	str	r1, [r3, #116]	; 0x74
  400a9c:	f8c3 20c0 	str.w	r2, [r3, #192]	; 0xc0
  400aa0:	f8c3 20d4 	str.w	r2, [r3, #212]	; 0xd4
  400aa4:	f8c3 20b0 	str.w	r2, [r3, #176]	; 0xb0
  400aa8:	f44f 1200 	mov.w	r2, #2097152	; 0x200000
  400aac:	661a      	str	r2, [r3, #96]	; 0x60
  400aae:	f8c3 2090 	str.w	r2, [r3, #144]	; 0x90
  400ab2:	655a      	str	r2, [r3, #84]	; 0x54
  400ab4:	625a      	str	r2, [r3, #36]	; 0x24
  400ab6:	f8c3 2080 	str.w	r2, [r3, #128]	; 0x80
  400aba:	6f19      	ldr	r1, [r3, #112]	; 0x70
  400abc:	f421 1100 	bic.w	r1, r1, #2097152	; 0x200000
  400ac0:	6719      	str	r1, [r3, #112]	; 0x70
  400ac2:	6f59      	ldr	r1, [r3, #116]	; 0x74
  400ac4:	f421 1100 	bic.w	r1, r1, #2097152	; 0x200000
  400ac8:	6759      	str	r1, [r3, #116]	; 0x74
  400aca:	605a      	str	r2, [r3, #4]
  400acc:	4a11      	ldr	r2, [pc, #68]	; (400b14 <board_init+0x190>)
  400ace:	f8d2 3114 	ldr.w	r3, [r2, #276]	; 0x114
  400ad2:	f043 0310 	orr.w	r3, r3, #16
  400ad6:	f8c2 3114 	str.w	r3, [r2, #276]	; 0x114
  400ada:	4b0f      	ldr	r3, [pc, #60]	; (400b18 <board_init+0x194>)
  400adc:	2210      	movs	r2, #16
  400ade:	661a      	str	r2, [r3, #96]	; 0x60
  400ae0:	f8c3 2090 	str.w	r2, [r3, #144]	; 0x90
  400ae4:	655a      	str	r2, [r3, #84]	; 0x54
  400ae6:	625a      	str	r2, [r3, #36]	; 0x24
  400ae8:	f8c3 2080 	str.w	r2, [r3, #128]	; 0x80
  400aec:	6f19      	ldr	r1, [r3, #112]	; 0x70
  400aee:	4311      	orrs	r1, r2
  400af0:	6719      	str	r1, [r3, #112]	; 0x70
  400af2:	6f59      	ldr	r1, [r3, #116]	; 0x74
  400af4:	4311      	orrs	r1, r2
  400af6:	6759      	str	r1, [r3, #116]	; 0x74
  400af8:	605a      	str	r2, [r3, #4]
  400afa:	bdf8      	pop	{r3, r4, r5, r6, r7, pc}
  400afc:	400e1850 	.word	0x400e1850
  400b00:	e000ed00 	.word	0xe000ed00
  400b04:	400e0c00 	.word	0x400e0c00
  400b08:	5a00080c 	.word	0x5a00080c
  400b0c:	00400f3d 	.word	0x00400f3d
  400b10:	400e1200 	.word	0x400e1200
  400b14:	40088000 	.word	0x40088000
  400b18:	400e1000 	.word	0x400e1000

00400b1c <pio_set_debounce_filter>:
  400b1c:	f8c0 1084 	str.w	r1, [r0, #132]	; 0x84
  400b20:	0053      	lsls	r3, r2, #1
  400b22:	f44f 4200 	mov.w	r2, #32768	; 0x8000
  400b26:	fbb2 f2f3 	udiv	r2, r2, r3
  400b2a:	3a01      	subs	r2, #1
  400b2c:	f3c2 020d 	ubfx	r2, r2, #0, #14
  400b30:	f8c0 208c 	str.w	r2, [r0, #140]	; 0x8c
  400b34:	4770      	bx	lr

00400b36 <pio_set_peripheral>:
  400b36:	6442      	str	r2, [r0, #68]	; 0x44
  400b38:	f1b1 5fc0 	cmp.w	r1, #402653184	; 0x18000000
  400b3c:	d03a      	beq.n	400bb4 <pio_set_peripheral+0x7e>
  400b3e:	d813      	bhi.n	400b68 <pio_set_peripheral+0x32>
  400b40:	f1b1 6f00 	cmp.w	r1, #134217728	; 0x8000000
  400b44:	d025      	beq.n	400b92 <pio_set_peripheral+0x5c>
  400b46:	f1b1 5f80 	cmp.w	r1, #268435456	; 0x10000000
  400b4a:	d10a      	bne.n	400b62 <pio_set_peripheral+0x2c>
  400b4c:	6f03      	ldr	r3, [r0, #112]	; 0x70
  400b4e:	4313      	orrs	r3, r2
  400b50:	6703      	str	r3, [r0, #112]	; 0x70
  400b52:	6f43      	ldr	r3, [r0, #116]	; 0x74
  400b54:	6f41      	ldr	r1, [r0, #116]	; 0x74
  400b56:	400b      	ands	r3, r1
  400b58:	ea23 0302 	bic.w	r3, r3, r2
  400b5c:	6743      	str	r3, [r0, #116]	; 0x74
  400b5e:	6042      	str	r2, [r0, #4]
  400b60:	4770      	bx	lr
  400b62:	2900      	cmp	r1, #0
  400b64:	d1fb      	bne.n	400b5e <pio_set_peripheral+0x28>
  400b66:	4770      	bx	lr
  400b68:	f1b1 5f20 	cmp.w	r1, #671088640	; 0x28000000
  400b6c:	d021      	beq.n	400bb2 <pio_set_peripheral+0x7c>
  400b6e:	d809      	bhi.n	400b84 <pio_set_peripheral+0x4e>
  400b70:	f1b1 5f00 	cmp.w	r1, #536870912	; 0x20000000
  400b74:	d1f3      	bne.n	400b5e <pio_set_peripheral+0x28>
  400b76:	6f03      	ldr	r3, [r0, #112]	; 0x70
  400b78:	4313      	orrs	r3, r2
  400b7a:	6703      	str	r3, [r0, #112]	; 0x70
  400b7c:	6f43      	ldr	r3, [r0, #116]	; 0x74
  400b7e:	4313      	orrs	r3, r2
  400b80:	6743      	str	r3, [r0, #116]	; 0x74
  400b82:	e7ec      	b.n	400b5e <pio_set_peripheral+0x28>
  400b84:	f1b1 5f40 	cmp.w	r1, #805306368	; 0x30000000
  400b88:	d013      	beq.n	400bb2 <pio_set_peripheral+0x7c>
  400b8a:	f1b1 5f60 	cmp.w	r1, #939524096	; 0x38000000
  400b8e:	d010      	beq.n	400bb2 <pio_set_peripheral+0x7c>
  400b90:	e7e5      	b.n	400b5e <pio_set_peripheral+0x28>
  400b92:	b410      	push	{r4}
  400b94:	6f01      	ldr	r1, [r0, #112]	; 0x70
  400b96:	6f04      	ldr	r4, [r0, #112]	; 0x70
  400b98:	43d3      	mvns	r3, r2
  400b9a:	4021      	ands	r1, r4
  400b9c:	461c      	mov	r4, r3
  400b9e:	4019      	ands	r1, r3
  400ba0:	6701      	str	r1, [r0, #112]	; 0x70
  400ba2:	6f43      	ldr	r3, [r0, #116]	; 0x74
  400ba4:	6f41      	ldr	r1, [r0, #116]	; 0x74
  400ba6:	400b      	ands	r3, r1
  400ba8:	4023      	ands	r3, r4
  400baa:	6743      	str	r3, [r0, #116]	; 0x74
  400bac:	6042      	str	r2, [r0, #4]
  400bae:	f85d 4b04 	ldr.w	r4, [sp], #4
  400bb2:	4770      	bx	lr
  400bb4:	6f03      	ldr	r3, [r0, #112]	; 0x70
  400bb6:	6f01      	ldr	r1, [r0, #112]	; 0x70
  400bb8:	400b      	ands	r3, r1
  400bba:	ea23 0302 	bic.w	r3, r3, r2
  400bbe:	6703      	str	r3, [r0, #112]	; 0x70
  400bc0:	6f43      	ldr	r3, [r0, #116]	; 0x74
  400bc2:	4313      	orrs	r3, r2
  400bc4:	6743      	str	r3, [r0, #116]	; 0x74
  400bc6:	e7ca      	b.n	400b5e <pio_set_peripheral+0x28>

00400bc8 <pio_set_input>:
  400bc8:	6441      	str	r1, [r0, #68]	; 0x44
  400bca:	f012 0f01 	tst.w	r2, #1
  400bce:	d10d      	bne.n	400bec <pio_set_input+0x24>
  400bd0:	6601      	str	r1, [r0, #96]	; 0x60
  400bd2:	f012 0f0a 	tst.w	r2, #10
  400bd6:	d00b      	beq.n	400bf0 <pio_set_input+0x28>
  400bd8:	6201      	str	r1, [r0, #32]
  400bda:	f012 0f02 	tst.w	r2, #2
  400bde:	d109      	bne.n	400bf4 <pio_set_input+0x2c>
  400be0:	f012 0f08 	tst.w	r2, #8
  400be4:	d008      	beq.n	400bf8 <pio_set_input+0x30>
  400be6:	f8c0 1084 	str.w	r1, [r0, #132]	; 0x84
  400bea:	e005      	b.n	400bf8 <pio_set_input+0x30>
  400bec:	6641      	str	r1, [r0, #100]	; 0x64
  400bee:	e7f0      	b.n	400bd2 <pio_set_input+0xa>
  400bf0:	6241      	str	r1, [r0, #36]	; 0x24
  400bf2:	e7f2      	b.n	400bda <pio_set_input+0x12>
  400bf4:	f8c0 1080 	str.w	r1, [r0, #128]	; 0x80
  400bf8:	6141      	str	r1, [r0, #20]
  400bfa:	6001      	str	r1, [r0, #0]
  400bfc:	4770      	bx	lr

00400bfe <pio_set_output>:
  400bfe:	b410      	push	{r4}
  400c00:	9c01      	ldr	r4, [sp, #4]
  400c02:	6441      	str	r1, [r0, #68]	; 0x44
  400c04:	b94c      	cbnz	r4, 400c1a <pio_set_output+0x1c>
  400c06:	6601      	str	r1, [r0, #96]	; 0x60
  400c08:	b14b      	cbz	r3, 400c1e <pio_set_output+0x20>
  400c0a:	6501      	str	r1, [r0, #80]	; 0x50
  400c0c:	b94a      	cbnz	r2, 400c22 <pio_set_output+0x24>
  400c0e:	6341      	str	r1, [r0, #52]	; 0x34
  400c10:	6101      	str	r1, [r0, #16]
  400c12:	6001      	str	r1, [r0, #0]
  400c14:	f85d 4b04 	ldr.w	r4, [sp], #4
  400c18:	4770      	bx	lr
  400c1a:	6641      	str	r1, [r0, #100]	; 0x64
  400c1c:	e7f4      	b.n	400c08 <pio_set_output+0xa>
  400c1e:	6541      	str	r1, [r0, #84]	; 0x54
  400c20:	e7f4      	b.n	400c0c <pio_set_output+0xe>
  400c22:	6301      	str	r1, [r0, #48]	; 0x30
  400c24:	e7f4      	b.n	400c10 <pio_set_output+0x12>
	...

00400c28 <pio_configure>:
  400c28:	b570      	push	{r4, r5, r6, lr}
  400c2a:	b082      	sub	sp, #8
  400c2c:	4605      	mov	r5, r0
  400c2e:	4616      	mov	r6, r2
  400c30:	461c      	mov	r4, r3
  400c32:	f1b1 5f00 	cmp.w	r1, #536870912	; 0x20000000
  400c36:	d014      	beq.n	400c62 <pio_configure+0x3a>
  400c38:	d90a      	bls.n	400c50 <pio_configure+0x28>
  400c3a:	f1b1 5f40 	cmp.w	r1, #805306368	; 0x30000000
  400c3e:	d024      	beq.n	400c8a <pio_configure+0x62>
  400c40:	f1b1 5f60 	cmp.w	r1, #939524096	; 0x38000000
  400c44:	d021      	beq.n	400c8a <pio_configure+0x62>
  400c46:	f1b1 5f20 	cmp.w	r1, #671088640	; 0x28000000
  400c4a:	d017      	beq.n	400c7c <pio_configure+0x54>
  400c4c:	2000      	movs	r0, #0
  400c4e:	e01a      	b.n	400c86 <pio_configure+0x5e>
  400c50:	f1b1 5f80 	cmp.w	r1, #268435456	; 0x10000000
  400c54:	d005      	beq.n	400c62 <pio_configure+0x3a>
  400c56:	f1b1 5fc0 	cmp.w	r1, #402653184	; 0x18000000
  400c5a:	d002      	beq.n	400c62 <pio_configure+0x3a>
  400c5c:	f1b1 6f00 	cmp.w	r1, #134217728	; 0x8000000
  400c60:	d1f4      	bne.n	400c4c <pio_configure+0x24>
  400c62:	4632      	mov	r2, r6
  400c64:	4628      	mov	r0, r5
  400c66:	4b11      	ldr	r3, [pc, #68]	; (400cac <pio_configure+0x84>)
  400c68:	4798      	blx	r3
  400c6a:	f014 0f01 	tst.w	r4, #1
  400c6e:	d102      	bne.n	400c76 <pio_configure+0x4e>
  400c70:	662e      	str	r6, [r5, #96]	; 0x60
  400c72:	2001      	movs	r0, #1
  400c74:	e007      	b.n	400c86 <pio_configure+0x5e>
  400c76:	666e      	str	r6, [r5, #100]	; 0x64
  400c78:	2001      	movs	r0, #1
  400c7a:	e004      	b.n	400c86 <pio_configure+0x5e>
  400c7c:	461a      	mov	r2, r3
  400c7e:	4631      	mov	r1, r6
  400c80:	4b0b      	ldr	r3, [pc, #44]	; (400cb0 <pio_configure+0x88>)
  400c82:	4798      	blx	r3
  400c84:	2001      	movs	r0, #1
  400c86:	b002      	add	sp, #8
  400c88:	bd70      	pop	{r4, r5, r6, pc}
  400c8a:	f004 0301 	and.w	r3, r4, #1
  400c8e:	9300      	str	r3, [sp, #0]
  400c90:	f3c4 0380 	ubfx	r3, r4, #2, #1
  400c94:	f1b1 5f60 	cmp.w	r1, #939524096	; 0x38000000
  400c98:	bf14      	ite	ne
  400c9a:	2200      	movne	r2, #0
  400c9c:	2201      	moveq	r2, #1
  400c9e:	4631      	mov	r1, r6
  400ca0:	4628      	mov	r0, r5
  400ca2:	4c04      	ldr	r4, [pc, #16]	; (400cb4 <pio_configure+0x8c>)
  400ca4:	47a0      	blx	r4
  400ca6:	2001      	movs	r0, #1
  400ca8:	e7ed      	b.n	400c86 <pio_configure+0x5e>
  400caa:	bf00      	nop
  400cac:	00400b37 	.word	0x00400b37
  400cb0:	00400bc9 	.word	0x00400bc9
  400cb4:	00400bff 	.word	0x00400bff

00400cb8 <pio_configure_interrupt>:
  400cb8:	f012 0f10 	tst.w	r2, #16
  400cbc:	d012      	beq.n	400ce4 <pio_configure_interrupt+0x2c>
  400cbe:	f8c0 10b0 	str.w	r1, [r0, #176]	; 0xb0
  400cc2:	f012 0f20 	tst.w	r2, #32
  400cc6:	d007      	beq.n	400cd8 <pio_configure_interrupt+0x20>
  400cc8:	f8c0 10d4 	str.w	r1, [r0, #212]	; 0xd4
  400ccc:	f012 0f40 	tst.w	r2, #64	; 0x40
  400cd0:	d005      	beq.n	400cde <pio_configure_interrupt+0x26>
  400cd2:	f8c0 10c0 	str.w	r1, [r0, #192]	; 0xc0
  400cd6:	4770      	bx	lr
  400cd8:	f8c0 10d0 	str.w	r1, [r0, #208]	; 0xd0
  400cdc:	e7f6      	b.n	400ccc <pio_configure_interrupt+0x14>
  400cde:	f8c0 10c4 	str.w	r1, [r0, #196]	; 0xc4
  400ce2:	4770      	bx	lr
  400ce4:	f8c0 10b4 	str.w	r1, [r0, #180]	; 0xb4
  400ce8:	4770      	bx	lr

00400cea <pio_enable_interrupt>:
  400cea:	6401      	str	r1, [r0, #64]	; 0x40
  400cec:	4770      	bx	lr

00400cee <pio_get_interrupt_status>:
  400cee:	6cc0      	ldr	r0, [r0, #76]	; 0x4c
  400cf0:	4770      	bx	lr

00400cf2 <pio_get_interrupt_mask>:
  400cf2:	6c80      	ldr	r0, [r0, #72]	; 0x48
  400cf4:	4770      	bx	lr
	...

00400cf8 <pio_handler_process>:
  400cf8:	e92d 41f0 	stmdb	sp!, {r4, r5, r6, r7, r8, lr}
  400cfc:	4604      	mov	r4, r0
  400cfe:	4688      	mov	r8, r1
  400d00:	4b0e      	ldr	r3, [pc, #56]	; (400d3c <pio_handler_process+0x44>)
  400d02:	4798      	blx	r3
  400d04:	4605      	mov	r5, r0
  400d06:	4620      	mov	r0, r4
  400d08:	4b0d      	ldr	r3, [pc, #52]	; (400d40 <pio_handler_process+0x48>)
  400d0a:	4798      	blx	r3
  400d0c:	4005      	ands	r5, r0
  400d0e:	d013      	beq.n	400d38 <pio_handler_process+0x40>
  400d10:	4c0c      	ldr	r4, [pc, #48]	; (400d44 <pio_handler_process+0x4c>)
  400d12:	f104 0660 	add.w	r6, r4, #96	; 0x60
  400d16:	e003      	b.n	400d20 <pio_handler_process+0x28>
  400d18:	42b4      	cmp	r4, r6
  400d1a:	d00d      	beq.n	400d38 <pio_handler_process+0x40>
  400d1c:	3410      	adds	r4, #16
  400d1e:	b15d      	cbz	r5, 400d38 <pio_handler_process+0x40>
  400d20:	6820      	ldr	r0, [r4, #0]
  400d22:	4540      	cmp	r0, r8
  400d24:	d1f8      	bne.n	400d18 <pio_handler_process+0x20>
  400d26:	6861      	ldr	r1, [r4, #4]
  400d28:	4229      	tst	r1, r5
  400d2a:	d0f5      	beq.n	400d18 <pio_handler_process+0x20>
  400d2c:	68e3      	ldr	r3, [r4, #12]
  400d2e:	4798      	blx	r3
  400d30:	6863      	ldr	r3, [r4, #4]
  400d32:	ea25 0503 	bic.w	r5, r5, r3
  400d36:	e7ef      	b.n	400d18 <pio_handler_process+0x20>
  400d38:	e8bd 81f0 	ldmia.w	sp!, {r4, r5, r6, r7, r8, pc}
  400d3c:	00400cef 	.word	0x00400cef
  400d40:	00400cf3 	.word	0x00400cf3
  400d44:	20400be0 	.word	0x20400be0

00400d48 <pio_handler_set>:
  400d48:	b5f8      	push	{r3, r4, r5, r6, r7, lr}
  400d4a:	4c18      	ldr	r4, [pc, #96]	; (400dac <pio_handler_set+0x64>)
  400d4c:	6826      	ldr	r6, [r4, #0]
  400d4e:	2e06      	cmp	r6, #6
  400d50:	d82a      	bhi.n	400da8 <pio_handler_set+0x60>
  400d52:	f04f 0c00 	mov.w	ip, #0
  400d56:	4664      	mov	r4, ip
  400d58:	4f15      	ldr	r7, [pc, #84]	; (400db0 <pio_handler_set+0x68>)
  400d5a:	e004      	b.n	400d66 <pio_handler_set+0x1e>
  400d5c:	3401      	adds	r4, #1
  400d5e:	b2e4      	uxtb	r4, r4
  400d60:	46a4      	mov	ip, r4
  400d62:	42a6      	cmp	r6, r4
  400d64:	d309      	bcc.n	400d7a <pio_handler_set+0x32>
  400d66:	46a6      	mov	lr, r4
  400d68:	0125      	lsls	r5, r4, #4
  400d6a:	597d      	ldr	r5, [r7, r5]
  400d6c:	428d      	cmp	r5, r1
  400d6e:	d1f5      	bne.n	400d5c <pio_handler_set+0x14>
  400d70:	eb07 1504 	add.w	r5, r7, r4, lsl #4
  400d74:	686d      	ldr	r5, [r5, #4]
  400d76:	4295      	cmp	r5, r2
  400d78:	d1f0      	bne.n	400d5c <pio_handler_set+0x14>
  400d7a:	4d0d      	ldr	r5, [pc, #52]	; (400db0 <pio_handler_set+0x68>)
  400d7c:	ea4f 1e0e 	mov.w	lr, lr, lsl #4
  400d80:	eb05 040e 	add.w	r4, r5, lr
  400d84:	f845 100e 	str.w	r1, [r5, lr]
  400d88:	6062      	str	r2, [r4, #4]
  400d8a:	60a3      	str	r3, [r4, #8]
  400d8c:	9906      	ldr	r1, [sp, #24]
  400d8e:	60e1      	str	r1, [r4, #12]
  400d90:	3601      	adds	r6, #1
  400d92:	4566      	cmp	r6, ip
  400d94:	d005      	beq.n	400da2 <pio_handler_set+0x5a>
  400d96:	4611      	mov	r1, r2
  400d98:	461a      	mov	r2, r3
  400d9a:	4b06      	ldr	r3, [pc, #24]	; (400db4 <pio_handler_set+0x6c>)
  400d9c:	4798      	blx	r3
  400d9e:	2000      	movs	r0, #0
  400da0:	bdf8      	pop	{r3, r4, r5, r6, r7, pc}
  400da2:	4902      	ldr	r1, [pc, #8]	; (400dac <pio_handler_set+0x64>)
  400da4:	600e      	str	r6, [r1, #0]
  400da6:	e7f6      	b.n	400d96 <pio_handler_set+0x4e>
  400da8:	2001      	movs	r0, #1
  400daa:	bdf8      	pop	{r3, r4, r5, r6, r7, pc}
  400dac:	20400c50 	.word	0x20400c50
  400db0:	20400be0 	.word	0x20400be0
  400db4:	00400cb9 	.word	0x00400cb9

00400db8 <PIOA_Handler>:
  400db8:	b508      	push	{r3, lr}
  400dba:	210a      	movs	r1, #10
  400dbc:	4801      	ldr	r0, [pc, #4]	; (400dc4 <PIOA_Handler+0xc>)
  400dbe:	4b02      	ldr	r3, [pc, #8]	; (400dc8 <PIOA_Handler+0x10>)
  400dc0:	4798      	blx	r3
  400dc2:	bd08      	pop	{r3, pc}
  400dc4:	400e0e00 	.word	0x400e0e00
  400dc8:	00400cf9 	.word	0x00400cf9

00400dcc <PIOB_Handler>:
  400dcc:	b508      	push	{r3, lr}
  400dce:	210b      	movs	r1, #11
  400dd0:	4801      	ldr	r0, [pc, #4]	; (400dd8 <PIOB_Handler+0xc>)
  400dd2:	4b02      	ldr	r3, [pc, #8]	; (400ddc <PIOB_Handler+0x10>)
  400dd4:	4798      	blx	r3
  400dd6:	bd08      	pop	{r3, pc}
  400dd8:	400e1000 	.word	0x400e1000
  400ddc:	00400cf9 	.word	0x00400cf9

00400de0 <PIOC_Handler>:
  400de0:	b508      	push	{r3, lr}
  400de2:	210c      	movs	r1, #12
  400de4:	4801      	ldr	r0, [pc, #4]	; (400dec <PIOC_Handler+0xc>)
  400de6:	4b02      	ldr	r3, [pc, #8]	; (400df0 <PIOC_Handler+0x10>)
  400de8:	4798      	blx	r3
  400dea:	bd08      	pop	{r3, pc}
  400dec:	400e1200 	.word	0x400e1200
  400df0:	00400cf9 	.word	0x00400cf9

00400df4 <PIOD_Handler>:
  400df4:	b508      	push	{r3, lr}
  400df6:	2110      	movs	r1, #16
  400df8:	4801      	ldr	r0, [pc, #4]	; (400e00 <PIOD_Handler+0xc>)
  400dfa:	4b02      	ldr	r3, [pc, #8]	; (400e04 <PIOD_Handler+0x10>)
  400dfc:	4798      	blx	r3
  400dfe:	bd08      	pop	{r3, pc}
  400e00:	400e1400 	.word	0x400e1400
  400e04:	00400cf9 	.word	0x00400cf9

00400e08 <PIOE_Handler>:
  400e08:	b508      	push	{r3, lr}
  400e0a:	2111      	movs	r1, #17
  400e0c:	4801      	ldr	r0, [pc, #4]	; (400e14 <PIOE_Handler+0xc>)
  400e0e:	4b02      	ldr	r3, [pc, #8]	; (400e18 <PIOE_Handler+0x10>)
  400e10:	4798      	blx	r3
  400e12:	bd08      	pop	{r3, pc}
  400e14:	400e1600 	.word	0x400e1600
  400e18:	00400cf9 	.word	0x00400cf9

00400e1c <pmc_mck_set_division>:
  400e1c:	2803      	cmp	r0, #3
  400e1e:	d011      	beq.n	400e44 <pmc_mck_set_division+0x28>
  400e20:	2804      	cmp	r0, #4
  400e22:	d012      	beq.n	400e4a <pmc_mck_set_division+0x2e>
  400e24:	2802      	cmp	r0, #2
  400e26:	bf0c      	ite	eq
  400e28:	f44f 7180 	moveq.w	r1, #256	; 0x100
  400e2c:	2100      	movne	r1, #0
  400e2e:	4a08      	ldr	r2, [pc, #32]	; (400e50 <pmc_mck_set_division+0x34>)
  400e30:	6b13      	ldr	r3, [r2, #48]	; 0x30
  400e32:	f423 7340 	bic.w	r3, r3, #768	; 0x300
  400e36:	430b      	orrs	r3, r1
  400e38:	6313      	str	r3, [r2, #48]	; 0x30
  400e3a:	6e93      	ldr	r3, [r2, #104]	; 0x68
  400e3c:	f013 0f08 	tst.w	r3, #8
  400e40:	d0fb      	beq.n	400e3a <pmc_mck_set_division+0x1e>
  400e42:	4770      	bx	lr
  400e44:	f44f 7140 	mov.w	r1, #768	; 0x300
  400e48:	e7f1      	b.n	400e2e <pmc_mck_set_division+0x12>
  400e4a:	f44f 7100 	mov.w	r1, #512	; 0x200
  400e4e:	e7ee      	b.n	400e2e <pmc_mck_set_division+0x12>
  400e50:	400e0600 	.word	0x400e0600

00400e54 <pmc_switch_mck_to_pllack>:
  400e54:	4a17      	ldr	r2, [pc, #92]	; (400eb4 <pmc_switch_mck_to_pllack+0x60>)
  400e56:	6b13      	ldr	r3, [r2, #48]	; 0x30
  400e58:	f023 0370 	bic.w	r3, r3, #112	; 0x70
  400e5c:	4318      	orrs	r0, r3
  400e5e:	6310      	str	r0, [r2, #48]	; 0x30
  400e60:	6e93      	ldr	r3, [r2, #104]	; 0x68
  400e62:	f013 0f08 	tst.w	r3, #8
  400e66:	d10a      	bne.n	400e7e <pmc_switch_mck_to_pllack+0x2a>
  400e68:	f44f 5380 	mov.w	r3, #4096	; 0x1000
  400e6c:	4911      	ldr	r1, [pc, #68]	; (400eb4 <pmc_switch_mck_to_pllack+0x60>)
  400e6e:	6e8a      	ldr	r2, [r1, #104]	; 0x68
  400e70:	f012 0f08 	tst.w	r2, #8
  400e74:	d103      	bne.n	400e7e <pmc_switch_mck_to_pllack+0x2a>
  400e76:	3b01      	subs	r3, #1
  400e78:	d1f9      	bne.n	400e6e <pmc_switch_mck_to_pllack+0x1a>
  400e7a:	2001      	movs	r0, #1
  400e7c:	4770      	bx	lr
  400e7e:	4a0d      	ldr	r2, [pc, #52]	; (400eb4 <pmc_switch_mck_to_pllack+0x60>)
  400e80:	6b13      	ldr	r3, [r2, #48]	; 0x30
  400e82:	f023 0303 	bic.w	r3, r3, #3
  400e86:	f043 0302 	orr.w	r3, r3, #2
  400e8a:	6313      	str	r3, [r2, #48]	; 0x30
  400e8c:	6e93      	ldr	r3, [r2, #104]	; 0x68
  400e8e:	f013 0f08 	tst.w	r3, #8
  400e92:	d10a      	bne.n	400eaa <pmc_switch_mck_to_pllack+0x56>
  400e94:	f44f 5380 	mov.w	r3, #4096	; 0x1000
  400e98:	4906      	ldr	r1, [pc, #24]	; (400eb4 <pmc_switch_mck_to_pllack+0x60>)
  400e9a:	6e8a      	ldr	r2, [r1, #104]	; 0x68
  400e9c:	f012 0f08 	tst.w	r2, #8
  400ea0:	d105      	bne.n	400eae <pmc_switch_mck_to_pllack+0x5a>
  400ea2:	3b01      	subs	r3, #1
  400ea4:	d1f9      	bne.n	400e9a <pmc_switch_mck_to_pllack+0x46>
  400ea6:	2001      	movs	r0, #1
  400ea8:	4770      	bx	lr
  400eaa:	2000      	movs	r0, #0
  400eac:	4770      	bx	lr
  400eae:	2000      	movs	r0, #0
  400eb0:	4770      	bx	lr
  400eb2:	bf00      	nop
  400eb4:	400e0600 	.word	0x400e0600

00400eb8 <pmc_switch_mainck_to_xtal>:
  400eb8:	b9a0      	cbnz	r0, 400ee4 <pmc_switch_mainck_to_xtal+0x2c>
  400eba:	480e      	ldr	r0, [pc, #56]	; (400ef4 <pmc_switch_mainck_to_xtal+0x3c>)
  400ebc:	6a03      	ldr	r3, [r0, #32]
  400ebe:	0209      	lsls	r1, r1, #8
  400ec0:	b289      	uxth	r1, r1
  400ec2:	4a0d      	ldr	r2, [pc, #52]	; (400ef8 <pmc_switch_mainck_to_xtal+0x40>)
  400ec4:	401a      	ands	r2, r3
  400ec6:	4b0d      	ldr	r3, [pc, #52]	; (400efc <pmc_switch_mainck_to_xtal+0x44>)
  400ec8:	4313      	orrs	r3, r2
  400eca:	4319      	orrs	r1, r3
  400ecc:	6201      	str	r1, [r0, #32]
  400ece:	4602      	mov	r2, r0
  400ed0:	6e93      	ldr	r3, [r2, #104]	; 0x68
  400ed2:	f013 0f01 	tst.w	r3, #1
  400ed6:	d0fb      	beq.n	400ed0 <pmc_switch_mainck_to_xtal+0x18>
  400ed8:	4a06      	ldr	r2, [pc, #24]	; (400ef4 <pmc_switch_mainck_to_xtal+0x3c>)
  400eda:	6a11      	ldr	r1, [r2, #32]
  400edc:	4b08      	ldr	r3, [pc, #32]	; (400f00 <pmc_switch_mainck_to_xtal+0x48>)
  400ede:	430b      	orrs	r3, r1
  400ee0:	6213      	str	r3, [r2, #32]
  400ee2:	4770      	bx	lr
  400ee4:	4903      	ldr	r1, [pc, #12]	; (400ef4 <pmc_switch_mainck_to_xtal+0x3c>)
  400ee6:	6a0b      	ldr	r3, [r1, #32]
  400ee8:	4a06      	ldr	r2, [pc, #24]	; (400f04 <pmc_switch_mainck_to_xtal+0x4c>)
  400eea:	401a      	ands	r2, r3
  400eec:	4b06      	ldr	r3, [pc, #24]	; (400f08 <pmc_switch_mainck_to_xtal+0x50>)
  400eee:	4313      	orrs	r3, r2
  400ef0:	620b      	str	r3, [r1, #32]
  400ef2:	4770      	bx	lr
  400ef4:	400e0600 	.word	0x400e0600
  400ef8:	ffc8fffc 	.word	0xffc8fffc
  400efc:	00370001 	.word	0x00370001
  400f00:	01370000 	.word	0x01370000
  400f04:	fec8fffc 	.word	0xfec8fffc
  400f08:	01370002 	.word	0x01370002

00400f0c <pmc_osc_is_ready_mainck>:
  400f0c:	4b02      	ldr	r3, [pc, #8]	; (400f18 <pmc_osc_is_ready_mainck+0xc>)
  400f0e:	6e98      	ldr	r0, [r3, #104]	; 0x68
  400f10:	f400 3080 	and.w	r0, r0, #65536	; 0x10000
  400f14:	4770      	bx	lr
  400f16:	bf00      	nop
  400f18:	400e0600 	.word	0x400e0600

00400f1c <pmc_disable_pllack>:
  400f1c:	f04f 5200 	mov.w	r2, #536870912	; 0x20000000
  400f20:	4b01      	ldr	r3, [pc, #4]	; (400f28 <pmc_disable_pllack+0xc>)
  400f22:	629a      	str	r2, [r3, #40]	; 0x28
  400f24:	4770      	bx	lr
  400f26:	bf00      	nop
  400f28:	400e0600 	.word	0x400e0600

00400f2c <pmc_is_locked_pllack>:
  400f2c:	4b02      	ldr	r3, [pc, #8]	; (400f38 <pmc_is_locked_pllack+0xc>)
  400f2e:	6e98      	ldr	r0, [r3, #104]	; 0x68
  400f30:	f000 0002 	and.w	r0, r0, #2
  400f34:	4770      	bx	lr
  400f36:	bf00      	nop
  400f38:	400e0600 	.word	0x400e0600

00400f3c <pmc_enable_periph_clk>:
  400f3c:	283f      	cmp	r0, #63	; 0x3f
  400f3e:	d81e      	bhi.n	400f7e <pmc_enable_periph_clk+0x42>
  400f40:	281f      	cmp	r0, #31
  400f42:	d80c      	bhi.n	400f5e <pmc_enable_periph_clk+0x22>
  400f44:	4b11      	ldr	r3, [pc, #68]	; (400f8c <pmc_enable_periph_clk+0x50>)
  400f46:	699a      	ldr	r2, [r3, #24]
  400f48:	2301      	movs	r3, #1
  400f4a:	4083      	lsls	r3, r0
  400f4c:	4393      	bics	r3, r2
  400f4e:	d018      	beq.n	400f82 <pmc_enable_periph_clk+0x46>
  400f50:	2301      	movs	r3, #1
  400f52:	fa03 f000 	lsl.w	r0, r3, r0
  400f56:	4b0d      	ldr	r3, [pc, #52]	; (400f8c <pmc_enable_periph_clk+0x50>)
  400f58:	6118      	str	r0, [r3, #16]
  400f5a:	2000      	movs	r0, #0
  400f5c:	4770      	bx	lr
  400f5e:	3820      	subs	r0, #32
  400f60:	4b0a      	ldr	r3, [pc, #40]	; (400f8c <pmc_enable_periph_clk+0x50>)
  400f62:	f8d3 2108 	ldr.w	r2, [r3, #264]	; 0x108
  400f66:	2301      	movs	r3, #1
  400f68:	4083      	lsls	r3, r0
  400f6a:	4393      	bics	r3, r2
  400f6c:	d00b      	beq.n	400f86 <pmc_enable_periph_clk+0x4a>
  400f6e:	2301      	movs	r3, #1
  400f70:	fa03 f000 	lsl.w	r0, r3, r0
  400f74:	4b05      	ldr	r3, [pc, #20]	; (400f8c <pmc_enable_periph_clk+0x50>)
  400f76:	f8c3 0100 	str.w	r0, [r3, #256]	; 0x100
  400f7a:	2000      	movs	r0, #0
  400f7c:	4770      	bx	lr
  400f7e:	2001      	movs	r0, #1
  400f80:	4770      	bx	lr
  400f82:	2000      	movs	r0, #0
  400f84:	4770      	bx	lr
  400f86:	2000      	movs	r0, #0
  400f88:	4770      	bx	lr
  400f8a:	bf00      	nop
  400f8c:	400e0600 	.word	0x400e0600

00400f90 <uart_write>:
  400f90:	6943      	ldr	r3, [r0, #20]
  400f92:	f013 0f02 	tst.w	r3, #2
  400f96:	d002      	beq.n	400f9e <uart_write+0xe>
  400f98:	61c1      	str	r1, [r0, #28]
  400f9a:	2000      	movs	r0, #0
  400f9c:	4770      	bx	lr
  400f9e:	2001      	movs	r0, #1
  400fa0:	4770      	bx	lr

00400fa2 <uart_read>:
  400fa2:	6943      	ldr	r3, [r0, #20]
  400fa4:	f013 0f01 	tst.w	r3, #1
  400fa8:	d003      	beq.n	400fb2 <uart_read+0x10>
  400faa:	6983      	ldr	r3, [r0, #24]
  400fac:	700b      	strb	r3, [r1, #0]
  400fae:	2000      	movs	r0, #0
  400fb0:	4770      	bx	lr
  400fb2:	2001      	movs	r0, #1
  400fb4:	4770      	bx	lr

00400fb6 <usart_set_async_baudrate>:
  400fb6:	b410      	push	{r4}
  400fb8:	010b      	lsls	r3, r1, #4
  400fba:	4293      	cmp	r3, r2
  400fbc:	d914      	bls.n	400fe8 <usart_set_async_baudrate+0x32>
  400fbe:	00c9      	lsls	r1, r1, #3
  400fc0:	084b      	lsrs	r3, r1, #1
  400fc2:	eb03 02c2 	add.w	r2, r3, r2, lsl #3
  400fc6:	fbb2 f2f1 	udiv	r2, r2, r1
  400fca:	08d3      	lsrs	r3, r2, #3
  400fcc:	1e5c      	subs	r4, r3, #1
  400fce:	f64f 71fe 	movw	r1, #65534	; 0xfffe
  400fd2:	428c      	cmp	r4, r1
  400fd4:	d901      	bls.n	400fda <usart_set_async_baudrate+0x24>
  400fd6:	2001      	movs	r0, #1
  400fd8:	e017      	b.n	40100a <usart_set_async_baudrate+0x54>
  400fda:	6841      	ldr	r1, [r0, #4]
  400fdc:	f441 2100 	orr.w	r1, r1, #524288	; 0x80000
  400fe0:	6041      	str	r1, [r0, #4]
  400fe2:	e00c      	b.n	400ffe <usart_set_async_baudrate+0x48>
  400fe4:	2001      	movs	r0, #1
  400fe6:	e010      	b.n	40100a <usart_set_async_baudrate+0x54>
  400fe8:	0859      	lsrs	r1, r3, #1
  400fea:	eb01 02c2 	add.w	r2, r1, r2, lsl #3
  400fee:	fbb2 f2f3 	udiv	r2, r2, r3
  400ff2:	08d3      	lsrs	r3, r2, #3
  400ff4:	1e5c      	subs	r4, r3, #1
  400ff6:	f64f 71fe 	movw	r1, #65534	; 0xfffe
  400ffa:	428c      	cmp	r4, r1
  400ffc:	d8f2      	bhi.n	400fe4 <usart_set_async_baudrate+0x2e>
  400ffe:	0412      	lsls	r2, r2, #16
  401000:	f402 22e0 	and.w	r2, r2, #458752	; 0x70000
  401004:	431a      	orrs	r2, r3
  401006:	6202      	str	r2, [r0, #32]
  401008:	2000      	movs	r0, #0
  40100a:	f85d 4b04 	ldr.w	r4, [sp], #4
  40100e:	4770      	bx	lr

00401010 <usart_reset>:
  401010:	4b08      	ldr	r3, [pc, #32]	; (401034 <usart_reset+0x24>)
  401012:	f8c0 30e4 	str.w	r3, [r0, #228]	; 0xe4
  401016:	2300      	movs	r3, #0
  401018:	6043      	str	r3, [r0, #4]
  40101a:	6243      	str	r3, [r0, #36]	; 0x24
  40101c:	6283      	str	r3, [r0, #40]	; 0x28
  40101e:	2388      	movs	r3, #136	; 0x88
  401020:	6003      	str	r3, [r0, #0]
  401022:	2324      	movs	r3, #36	; 0x24
  401024:	6003      	str	r3, [r0, #0]
  401026:	f44f 7380 	mov.w	r3, #256	; 0x100
  40102a:	6003      	str	r3, [r0, #0]
  40102c:	f44f 2300 	mov.w	r3, #524288	; 0x80000
  401030:	6003      	str	r3, [r0, #0]
  401032:	4770      	bx	lr
  401034:	55534100 	.word	0x55534100

00401038 <usart_init_rs232>:
  401038:	b570      	push	{r4, r5, r6, lr}
  40103a:	4605      	mov	r5, r0
  40103c:	460c      	mov	r4, r1
  40103e:	4616      	mov	r6, r2
  401040:	4b0f      	ldr	r3, [pc, #60]	; (401080 <usart_init_rs232+0x48>)
  401042:	4798      	blx	r3
  401044:	2200      	movs	r2, #0
  401046:	4b0f      	ldr	r3, [pc, #60]	; (401084 <usart_init_rs232+0x4c>)
  401048:	601a      	str	r2, [r3, #0]
  40104a:	b1a4      	cbz	r4, 401076 <usart_init_rs232+0x3e>
  40104c:	4632      	mov	r2, r6
  40104e:	6821      	ldr	r1, [r4, #0]
  401050:	4628      	mov	r0, r5
  401052:	4b0d      	ldr	r3, [pc, #52]	; (401088 <usart_init_rs232+0x50>)
  401054:	4798      	blx	r3
  401056:	4602      	mov	r2, r0
  401058:	b978      	cbnz	r0, 40107a <usart_init_rs232+0x42>
  40105a:	6863      	ldr	r3, [r4, #4]
  40105c:	68a1      	ldr	r1, [r4, #8]
  40105e:	430b      	orrs	r3, r1
  401060:	6921      	ldr	r1, [r4, #16]
  401062:	430b      	orrs	r3, r1
  401064:	68e1      	ldr	r1, [r4, #12]
  401066:	430b      	orrs	r3, r1
  401068:	4906      	ldr	r1, [pc, #24]	; (401084 <usart_init_rs232+0x4c>)
  40106a:	600b      	str	r3, [r1, #0]
  40106c:	6869      	ldr	r1, [r5, #4]
  40106e:	430b      	orrs	r3, r1
  401070:	606b      	str	r3, [r5, #4]
  401072:	4610      	mov	r0, r2
  401074:	bd70      	pop	{r4, r5, r6, pc}
  401076:	2201      	movs	r2, #1
  401078:	e7fb      	b.n	401072 <usart_init_rs232+0x3a>
  40107a:	2201      	movs	r2, #1
  40107c:	e7f9      	b.n	401072 <usart_init_rs232+0x3a>
  40107e:	bf00      	nop
  401080:	00401011 	.word	0x00401011
  401084:	20400c54 	.word	0x20400c54
  401088:	00400fb7 	.word	0x00400fb7

0040108c <usart_enable_tx>:
  40108c:	2340      	movs	r3, #64	; 0x40
  40108e:	6003      	str	r3, [r0, #0]
  401090:	4770      	bx	lr

00401092 <usart_enable_rx>:
  401092:	2310      	movs	r3, #16
  401094:	6003      	str	r3, [r0, #0]
  401096:	4770      	bx	lr

00401098 <usart_write>:
  401098:	6943      	ldr	r3, [r0, #20]
  40109a:	f013 0f02 	tst.w	r3, #2
  40109e:	d004      	beq.n	4010aa <usart_write+0x12>
  4010a0:	f3c1 0108 	ubfx	r1, r1, #0, #9
  4010a4:	61c1      	str	r1, [r0, #28]
  4010a6:	2000      	movs	r0, #0
  4010a8:	4770      	bx	lr
  4010aa:	2001      	movs	r0, #1
  4010ac:	4770      	bx	lr

004010ae <usart_read>:
  4010ae:	6943      	ldr	r3, [r0, #20]
  4010b0:	f013 0f01 	tst.w	r3, #1
  4010b4:	d005      	beq.n	4010c2 <usart_read+0x14>
  4010b6:	6983      	ldr	r3, [r0, #24]
  4010b8:	f3c3 0308 	ubfx	r3, r3, #0, #9
  4010bc:	600b      	str	r3, [r1, #0]
  4010be:	2000      	movs	r0, #0
  4010c0:	4770      	bx	lr
  4010c2:	2001      	movs	r0, #1
  4010c4:	4770      	bx	lr

004010c6 <Dummy_Handler>:
  4010c6:	e7fe      	b.n	4010c6 <Dummy_Handler>

004010c8 <Reset_Handler>:
  4010c8:	b500      	push	{lr}
  4010ca:	b083      	sub	sp, #12
  4010cc:	4b25      	ldr	r3, [pc, #148]	; (401164 <Reset_Handler+0x9c>)
  4010ce:	4a26      	ldr	r2, [pc, #152]	; (401168 <Reset_Handler+0xa0>)
  4010d0:	429a      	cmp	r2, r3
  4010d2:	d010      	beq.n	4010f6 <Reset_Handler+0x2e>
  4010d4:	4b25      	ldr	r3, [pc, #148]	; (40116c <Reset_Handler+0xa4>)
  4010d6:	4a23      	ldr	r2, [pc, #140]	; (401164 <Reset_Handler+0x9c>)
  4010d8:	429a      	cmp	r2, r3
  4010da:	d20c      	bcs.n	4010f6 <Reset_Handler+0x2e>
  4010dc:	3b01      	subs	r3, #1
  4010de:	1a9b      	subs	r3, r3, r2
  4010e0:	f023 0303 	bic.w	r3, r3, #3
  4010e4:	3304      	adds	r3, #4
  4010e6:	4413      	add	r3, r2
  4010e8:	491f      	ldr	r1, [pc, #124]	; (401168 <Reset_Handler+0xa0>)
  4010ea:	f851 0b04 	ldr.w	r0, [r1], #4
  4010ee:	f842 0b04 	str.w	r0, [r2], #4
  4010f2:	429a      	cmp	r2, r3
  4010f4:	d1f9      	bne.n	4010ea <Reset_Handler+0x22>
  4010f6:	4b1e      	ldr	r3, [pc, #120]	; (401170 <Reset_Handler+0xa8>)
  4010f8:	4a1e      	ldr	r2, [pc, #120]	; (401174 <Reset_Handler+0xac>)
  4010fa:	429a      	cmp	r2, r3
  4010fc:	d20a      	bcs.n	401114 <Reset_Handler+0x4c>
  4010fe:	3b01      	subs	r3, #1
  401100:	1a9b      	subs	r3, r3, r2
  401102:	f023 0303 	bic.w	r3, r3, #3
  401106:	3304      	adds	r3, #4
  401108:	4413      	add	r3, r2
  40110a:	2100      	movs	r1, #0
  40110c:	f842 1b04 	str.w	r1, [r2], #4
  401110:	4293      	cmp	r3, r2
  401112:	d1fb      	bne.n	40110c <Reset_Handler+0x44>
  401114:	4a18      	ldr	r2, [pc, #96]	; (401178 <Reset_Handler+0xb0>)
  401116:	4b19      	ldr	r3, [pc, #100]	; (40117c <Reset_Handler+0xb4>)
  401118:	f023 037f 	bic.w	r3, r3, #127	; 0x7f
  40111c:	6093      	str	r3, [r2, #8]
  40111e:	f3ef 8310 	mrs	r3, PRIMASK
  401122:	fab3 f383 	clz	r3, r3
  401126:	095b      	lsrs	r3, r3, #5
  401128:	9301      	str	r3, [sp, #4]
  40112a:	b672      	cpsid	i
  40112c:	f3bf 8f5f 	dmb	sy
  401130:	2200      	movs	r2, #0
  401132:	4b13      	ldr	r3, [pc, #76]	; (401180 <Reset_Handler+0xb8>)
  401134:	701a      	strb	r2, [r3, #0]
  401136:	9901      	ldr	r1, [sp, #4]
  401138:	4a12      	ldr	r2, [pc, #72]	; (401184 <Reset_Handler+0xbc>)
  40113a:	6813      	ldr	r3, [r2, #0]
  40113c:	f443 0370 	orr.w	r3, r3, #15728640	; 0xf00000
  401140:	6013      	str	r3, [r2, #0]
  401142:	f3bf 8f4f 	dsb	sy
  401146:	f3bf 8f6f 	isb	sy
  40114a:	b129      	cbz	r1, 401158 <Reset_Handler+0x90>
  40114c:	2201      	movs	r2, #1
  40114e:	4b0c      	ldr	r3, [pc, #48]	; (401180 <Reset_Handler+0xb8>)
  401150:	701a      	strb	r2, [r3, #0]
  401152:	f3bf 8f5f 	dmb	sy
  401156:	b662      	cpsie	i
  401158:	4b0b      	ldr	r3, [pc, #44]	; (401188 <Reset_Handler+0xc0>)
  40115a:	4798      	blx	r3
  40115c:	4b0b      	ldr	r3, [pc, #44]	; (40118c <Reset_Handler+0xc4>)
  40115e:	4798      	blx	r3
  401160:	e7fe      	b.n	401160 <Reset_Handler+0x98>
  401162:	bf00      	nop
  401164:	20400000 	.word	0x20400000
  401168:	00408fec 	.word	0x00408fec
  40116c:	204009c0 	.word	0x204009c0
  401170:	20400e48 	.word	0x20400e48
  401174:	204009c0 	.word	0x204009c0
  401178:	e000ed00 	.word	0xe000ed00
  40117c:	00400000 	.word	0x00400000
  401180:	2040000a 	.word	0x2040000a
  401184:	e000ed88 	.word	0xe000ed88
  401188:	00403489 	.word	0x00403489
  40118c:	00403375 	.word	0x00403375

00401190 <SystemCoreClockUpdate>:
  401190:	4b3b      	ldr	r3, [pc, #236]	; (401280 <SystemCoreClockUpdate+0xf0>)
  401192:	6b1b      	ldr	r3, [r3, #48]	; 0x30
  401194:	f003 0303 	and.w	r3, r3, #3
  401198:	2b01      	cmp	r3, #1
  40119a:	d01d      	beq.n	4011d8 <SystemCoreClockUpdate+0x48>
  40119c:	b183      	cbz	r3, 4011c0 <SystemCoreClockUpdate+0x30>
  40119e:	2b02      	cmp	r3, #2
  4011a0:	d036      	beq.n	401210 <SystemCoreClockUpdate+0x80>
  4011a2:	4b37      	ldr	r3, [pc, #220]	; (401280 <SystemCoreClockUpdate+0xf0>)
  4011a4:	6b1b      	ldr	r3, [r3, #48]	; 0x30
  4011a6:	f003 0370 	and.w	r3, r3, #112	; 0x70
  4011aa:	2b70      	cmp	r3, #112	; 0x70
  4011ac:	d05f      	beq.n	40126e <SystemCoreClockUpdate+0xde>
  4011ae:	4b34      	ldr	r3, [pc, #208]	; (401280 <SystemCoreClockUpdate+0xf0>)
  4011b0:	6b1a      	ldr	r2, [r3, #48]	; 0x30
  4011b2:	4934      	ldr	r1, [pc, #208]	; (401284 <SystemCoreClockUpdate+0xf4>)
  4011b4:	f3c2 1202 	ubfx	r2, r2, #4, #3
  4011b8:	680b      	ldr	r3, [r1, #0]
  4011ba:	40d3      	lsrs	r3, r2
  4011bc:	600b      	str	r3, [r1, #0]
  4011be:	4770      	bx	lr
  4011c0:	4b31      	ldr	r3, [pc, #196]	; (401288 <SystemCoreClockUpdate+0xf8>)
  4011c2:	695b      	ldr	r3, [r3, #20]
  4011c4:	f013 0f80 	tst.w	r3, #128	; 0x80
  4011c8:	bf14      	ite	ne
  4011ca:	f44f 4200 	movne.w	r2, #32768	; 0x8000
  4011ce:	f44f 42fa 	moveq.w	r2, #32000	; 0x7d00
  4011d2:	4b2c      	ldr	r3, [pc, #176]	; (401284 <SystemCoreClockUpdate+0xf4>)
  4011d4:	601a      	str	r2, [r3, #0]
  4011d6:	e7e4      	b.n	4011a2 <SystemCoreClockUpdate+0x12>
  4011d8:	4b29      	ldr	r3, [pc, #164]	; (401280 <SystemCoreClockUpdate+0xf0>)
  4011da:	6a1b      	ldr	r3, [r3, #32]
  4011dc:	f013 7f80 	tst.w	r3, #16777216	; 0x1000000
  4011e0:	d003      	beq.n	4011ea <SystemCoreClockUpdate+0x5a>
  4011e2:	4a2a      	ldr	r2, [pc, #168]	; (40128c <SystemCoreClockUpdate+0xfc>)
  4011e4:	4b27      	ldr	r3, [pc, #156]	; (401284 <SystemCoreClockUpdate+0xf4>)
  4011e6:	601a      	str	r2, [r3, #0]
  4011e8:	e7db      	b.n	4011a2 <SystemCoreClockUpdate+0x12>
  4011ea:	4a29      	ldr	r2, [pc, #164]	; (401290 <SystemCoreClockUpdate+0x100>)
  4011ec:	4b25      	ldr	r3, [pc, #148]	; (401284 <SystemCoreClockUpdate+0xf4>)
  4011ee:	601a      	str	r2, [r3, #0]
  4011f0:	4b23      	ldr	r3, [pc, #140]	; (401280 <SystemCoreClockUpdate+0xf0>)
  4011f2:	6a1b      	ldr	r3, [r3, #32]
  4011f4:	f003 0370 	and.w	r3, r3, #112	; 0x70
  4011f8:	2b10      	cmp	r3, #16
  4011fa:	d005      	beq.n	401208 <SystemCoreClockUpdate+0x78>
  4011fc:	2b20      	cmp	r3, #32
  4011fe:	d1d0      	bne.n	4011a2 <SystemCoreClockUpdate+0x12>
  401200:	4a22      	ldr	r2, [pc, #136]	; (40128c <SystemCoreClockUpdate+0xfc>)
  401202:	4b20      	ldr	r3, [pc, #128]	; (401284 <SystemCoreClockUpdate+0xf4>)
  401204:	601a      	str	r2, [r3, #0]
  401206:	e7cc      	b.n	4011a2 <SystemCoreClockUpdate+0x12>
  401208:	4a22      	ldr	r2, [pc, #136]	; (401294 <SystemCoreClockUpdate+0x104>)
  40120a:	4b1e      	ldr	r3, [pc, #120]	; (401284 <SystemCoreClockUpdate+0xf4>)
  40120c:	601a      	str	r2, [r3, #0]
  40120e:	e7c8      	b.n	4011a2 <SystemCoreClockUpdate+0x12>
  401210:	4b1b      	ldr	r3, [pc, #108]	; (401280 <SystemCoreClockUpdate+0xf0>)
  401212:	6a1b      	ldr	r3, [r3, #32]
  401214:	f013 7f80 	tst.w	r3, #16777216	; 0x1000000
  401218:	d016      	beq.n	401248 <SystemCoreClockUpdate+0xb8>
  40121a:	4a1c      	ldr	r2, [pc, #112]	; (40128c <SystemCoreClockUpdate+0xfc>)
  40121c:	4b19      	ldr	r3, [pc, #100]	; (401284 <SystemCoreClockUpdate+0xf4>)
  40121e:	601a      	str	r2, [r3, #0]
  401220:	4b17      	ldr	r3, [pc, #92]	; (401280 <SystemCoreClockUpdate+0xf0>)
  401222:	6b1b      	ldr	r3, [r3, #48]	; 0x30
  401224:	f003 0303 	and.w	r3, r3, #3
  401228:	2b02      	cmp	r3, #2
  40122a:	d1ba      	bne.n	4011a2 <SystemCoreClockUpdate+0x12>
  40122c:	4a14      	ldr	r2, [pc, #80]	; (401280 <SystemCoreClockUpdate+0xf0>)
  40122e:	6a91      	ldr	r1, [r2, #40]	; 0x28
  401230:	6a92      	ldr	r2, [r2, #40]	; 0x28
  401232:	4814      	ldr	r0, [pc, #80]	; (401284 <SystemCoreClockUpdate+0xf4>)
  401234:	f3c1 410a 	ubfx	r1, r1, #16, #11
  401238:	6803      	ldr	r3, [r0, #0]
  40123a:	fb01 3303 	mla	r3, r1, r3, r3
  40123e:	b2d2      	uxtb	r2, r2
  401240:	fbb3 f3f2 	udiv	r3, r3, r2
  401244:	6003      	str	r3, [r0, #0]
  401246:	e7ac      	b.n	4011a2 <SystemCoreClockUpdate+0x12>
  401248:	4a11      	ldr	r2, [pc, #68]	; (401290 <SystemCoreClockUpdate+0x100>)
  40124a:	4b0e      	ldr	r3, [pc, #56]	; (401284 <SystemCoreClockUpdate+0xf4>)
  40124c:	601a      	str	r2, [r3, #0]
  40124e:	4b0c      	ldr	r3, [pc, #48]	; (401280 <SystemCoreClockUpdate+0xf0>)
  401250:	6a1b      	ldr	r3, [r3, #32]
  401252:	f003 0370 	and.w	r3, r3, #112	; 0x70
  401256:	2b10      	cmp	r3, #16
  401258:	d005      	beq.n	401266 <SystemCoreClockUpdate+0xd6>
  40125a:	2b20      	cmp	r3, #32
  40125c:	d1e0      	bne.n	401220 <SystemCoreClockUpdate+0x90>
  40125e:	4a0b      	ldr	r2, [pc, #44]	; (40128c <SystemCoreClockUpdate+0xfc>)
  401260:	4b08      	ldr	r3, [pc, #32]	; (401284 <SystemCoreClockUpdate+0xf4>)
  401262:	601a      	str	r2, [r3, #0]
  401264:	e7dc      	b.n	401220 <SystemCoreClockUpdate+0x90>
  401266:	4a0b      	ldr	r2, [pc, #44]	; (401294 <SystemCoreClockUpdate+0x104>)
  401268:	4b06      	ldr	r3, [pc, #24]	; (401284 <SystemCoreClockUpdate+0xf4>)
  40126a:	601a      	str	r2, [r3, #0]
  40126c:	e7d8      	b.n	401220 <SystemCoreClockUpdate+0x90>
  40126e:	4a05      	ldr	r2, [pc, #20]	; (401284 <SystemCoreClockUpdate+0xf4>)
  401270:	6813      	ldr	r3, [r2, #0]
  401272:	4909      	ldr	r1, [pc, #36]	; (401298 <SystemCoreClockUpdate+0x108>)
  401274:	fba1 1303 	umull	r1, r3, r1, r3
  401278:	085b      	lsrs	r3, r3, #1
  40127a:	6013      	str	r3, [r2, #0]
  40127c:	4770      	bx	lr
  40127e:	bf00      	nop
  401280:	400e0600 	.word	0x400e0600
  401284:	2040000c 	.word	0x2040000c
  401288:	400e1810 	.word	0x400e1810
  40128c:	00b71b00 	.word	0x00b71b00
  401290:	003d0900 	.word	0x003d0900
  401294:	007a1200 	.word	0x007a1200
  401298:	aaaaaaab 	.word	0xaaaaaaab

0040129c <system_init_flash>:
  40129c:	4b16      	ldr	r3, [pc, #88]	; (4012f8 <system_init_flash+0x5c>)
  40129e:	4298      	cmp	r0, r3
  4012a0:	d913      	bls.n	4012ca <system_init_flash+0x2e>
  4012a2:	4b16      	ldr	r3, [pc, #88]	; (4012fc <system_init_flash+0x60>)
  4012a4:	4298      	cmp	r0, r3
  4012a6:	d915      	bls.n	4012d4 <system_init_flash+0x38>
  4012a8:	4b15      	ldr	r3, [pc, #84]	; (401300 <system_init_flash+0x64>)
  4012aa:	4298      	cmp	r0, r3
  4012ac:	d916      	bls.n	4012dc <system_init_flash+0x40>
  4012ae:	4b15      	ldr	r3, [pc, #84]	; (401304 <system_init_flash+0x68>)
  4012b0:	4298      	cmp	r0, r3
  4012b2:	d917      	bls.n	4012e4 <system_init_flash+0x48>
  4012b4:	4b14      	ldr	r3, [pc, #80]	; (401308 <system_init_flash+0x6c>)
  4012b6:	4298      	cmp	r0, r3
  4012b8:	d918      	bls.n	4012ec <system_init_flash+0x50>
  4012ba:	4b14      	ldr	r3, [pc, #80]	; (40130c <system_init_flash+0x70>)
  4012bc:	4298      	cmp	r0, r3
  4012be:	bf94      	ite	ls
  4012c0:	4a13      	ldrls	r2, [pc, #76]	; (401310 <system_init_flash+0x74>)
  4012c2:	4a14      	ldrhi	r2, [pc, #80]	; (401314 <system_init_flash+0x78>)
  4012c4:	4b14      	ldr	r3, [pc, #80]	; (401318 <system_init_flash+0x7c>)
  4012c6:	601a      	str	r2, [r3, #0]
  4012c8:	4770      	bx	lr
  4012ca:	f04f 6280 	mov.w	r2, #67108864	; 0x4000000
  4012ce:	4b12      	ldr	r3, [pc, #72]	; (401318 <system_init_flash+0x7c>)
  4012d0:	601a      	str	r2, [r3, #0]
  4012d2:	4770      	bx	lr
  4012d4:	4a11      	ldr	r2, [pc, #68]	; (40131c <system_init_flash+0x80>)
  4012d6:	4b10      	ldr	r3, [pc, #64]	; (401318 <system_init_flash+0x7c>)
  4012d8:	601a      	str	r2, [r3, #0]
  4012da:	4770      	bx	lr
  4012dc:	4a10      	ldr	r2, [pc, #64]	; (401320 <system_init_flash+0x84>)
  4012de:	4b0e      	ldr	r3, [pc, #56]	; (401318 <system_init_flash+0x7c>)
  4012e0:	601a      	str	r2, [r3, #0]
  4012e2:	4770      	bx	lr
  4012e4:	4a0f      	ldr	r2, [pc, #60]	; (401324 <system_init_flash+0x88>)
  4012e6:	4b0c      	ldr	r3, [pc, #48]	; (401318 <system_init_flash+0x7c>)
  4012e8:	601a      	str	r2, [r3, #0]
  4012ea:	4770      	bx	lr
  4012ec:	f04f 2204 	mov.w	r2, #67109888	; 0x4000400
  4012f0:	4b09      	ldr	r3, [pc, #36]	; (401318 <system_init_flash+0x7c>)
  4012f2:	601a      	str	r2, [r3, #0]
  4012f4:	4770      	bx	lr
  4012f6:	bf00      	nop
  4012f8:	015ef3bf 	.word	0x015ef3bf
  4012fc:	02bde77f 	.word	0x02bde77f
  401300:	041cdb3f 	.word	0x041cdb3f
  401304:	057bceff 	.word	0x057bceff
  401308:	06dac2bf 	.word	0x06dac2bf
  40130c:	0839b67f 	.word	0x0839b67f
  401310:	04000500 	.word	0x04000500
  401314:	04000600 	.word	0x04000600
  401318:	400e0c00 	.word	0x400e0c00
  40131c:	04000100 	.word	0x04000100
  401320:	04000200 	.word	0x04000200
  401324:	04000300 	.word	0x04000300

00401328 <_sbrk>:
  401328:	4b0a      	ldr	r3, [pc, #40]	; (401354 <_sbrk+0x2c>)
  40132a:	681b      	ldr	r3, [r3, #0]
  40132c:	b153      	cbz	r3, 401344 <_sbrk+0x1c>
  40132e:	4b09      	ldr	r3, [pc, #36]	; (401354 <_sbrk+0x2c>)
  401330:	681b      	ldr	r3, [r3, #0]
  401332:	181a      	adds	r2, r3, r0
  401334:	4908      	ldr	r1, [pc, #32]	; (401358 <_sbrk+0x30>)
  401336:	4291      	cmp	r1, r2
  401338:	db08      	blt.n	40134c <_sbrk+0x24>
  40133a:	4610      	mov	r0, r2
  40133c:	4a05      	ldr	r2, [pc, #20]	; (401354 <_sbrk+0x2c>)
  40133e:	6010      	str	r0, [r2, #0]
  401340:	4618      	mov	r0, r3
  401342:	4770      	bx	lr
  401344:	4a05      	ldr	r2, [pc, #20]	; (40135c <_sbrk+0x34>)
  401346:	4b03      	ldr	r3, [pc, #12]	; (401354 <_sbrk+0x2c>)
  401348:	601a      	str	r2, [r3, #0]
  40134a:	e7f0      	b.n	40132e <_sbrk+0x6>
  40134c:	f04f 30ff 	mov.w	r0, #4294967295
  401350:	4770      	bx	lr
  401352:	bf00      	nop
  401354:	20400c58 	.word	0x20400c58
  401358:	2045fffc 	.word	0x2045fffc
  40135c:	20403048 	.word	0x20403048

00401360 <_close>:
  401360:	f04f 30ff 	mov.w	r0, #4294967295
  401364:	4770      	bx	lr

00401366 <_fstat>:
  401366:	f44f 5300 	mov.w	r3, #8192	; 0x2000
  40136a:	604b      	str	r3, [r1, #4]
  40136c:	2000      	movs	r0, #0
  40136e:	4770      	bx	lr

00401370 <_isatty>:
  401370:	2001      	movs	r0, #1
  401372:	4770      	bx	lr

00401374 <_lseek>:
  401374:	2000      	movs	r0, #0
  401376:	4770      	bx	lr

00401378 <vListInitialise>:
  401378:	f100 0308 	add.w	r3, r0, #8
  40137c:	6043      	str	r3, [r0, #4]
  40137e:	f04f 32ff 	mov.w	r2, #4294967295
  401382:	6082      	str	r2, [r0, #8]
  401384:	60c3      	str	r3, [r0, #12]
  401386:	6103      	str	r3, [r0, #16]
  401388:	2300      	movs	r3, #0
  40138a:	6003      	str	r3, [r0, #0]
  40138c:	4770      	bx	lr

0040138e <vListInitialiseItem>:
  40138e:	2300      	movs	r3, #0
  401390:	6103      	str	r3, [r0, #16]
  401392:	4770      	bx	lr

00401394 <vListInsertEnd>:
  401394:	6843      	ldr	r3, [r0, #4]
  401396:	604b      	str	r3, [r1, #4]
  401398:	689a      	ldr	r2, [r3, #8]
  40139a:	608a      	str	r2, [r1, #8]
  40139c:	689a      	ldr	r2, [r3, #8]
  40139e:	6051      	str	r1, [r2, #4]
  4013a0:	6099      	str	r1, [r3, #8]
  4013a2:	6108      	str	r0, [r1, #16]
  4013a4:	6803      	ldr	r3, [r0, #0]
  4013a6:	3301      	adds	r3, #1
  4013a8:	6003      	str	r3, [r0, #0]
  4013aa:	4770      	bx	lr

004013ac <vListInsert>:
  4013ac:	b430      	push	{r4, r5}
  4013ae:	680d      	ldr	r5, [r1, #0]
  4013b0:	f1b5 3fff 	cmp.w	r5, #4294967295
  4013b4:	d002      	beq.n	4013bc <vListInsert+0x10>
  4013b6:	f100 0208 	add.w	r2, r0, #8
  4013ba:	e002      	b.n	4013c2 <vListInsert+0x16>
  4013bc:	6902      	ldr	r2, [r0, #16]
  4013be:	e004      	b.n	4013ca <vListInsert+0x1e>
  4013c0:	461a      	mov	r2, r3
  4013c2:	6853      	ldr	r3, [r2, #4]
  4013c4:	681c      	ldr	r4, [r3, #0]
  4013c6:	42a5      	cmp	r5, r4
  4013c8:	d2fa      	bcs.n	4013c0 <vListInsert+0x14>
  4013ca:	6853      	ldr	r3, [r2, #4]
  4013cc:	604b      	str	r3, [r1, #4]
  4013ce:	6099      	str	r1, [r3, #8]
  4013d0:	608a      	str	r2, [r1, #8]
  4013d2:	6051      	str	r1, [r2, #4]
  4013d4:	6108      	str	r0, [r1, #16]
  4013d6:	6803      	ldr	r3, [r0, #0]
  4013d8:	3301      	adds	r3, #1
  4013da:	6003      	str	r3, [r0, #0]
  4013dc:	bc30      	pop	{r4, r5}
  4013de:	4770      	bx	lr

004013e0 <uxListRemove>:
  4013e0:	6903      	ldr	r3, [r0, #16]
  4013e2:	6842      	ldr	r2, [r0, #4]
  4013e4:	6881      	ldr	r1, [r0, #8]
  4013e6:	6091      	str	r1, [r2, #8]
  4013e8:	6882      	ldr	r2, [r0, #8]
  4013ea:	6841      	ldr	r1, [r0, #4]
  4013ec:	6051      	str	r1, [r2, #4]
  4013ee:	685a      	ldr	r2, [r3, #4]
  4013f0:	4290      	cmp	r0, r2
  4013f2:	d005      	beq.n	401400 <uxListRemove+0x20>
  4013f4:	2200      	movs	r2, #0
  4013f6:	6102      	str	r2, [r0, #16]
  4013f8:	6818      	ldr	r0, [r3, #0]
  4013fa:	3801      	subs	r0, #1
  4013fc:	6018      	str	r0, [r3, #0]
  4013fe:	4770      	bx	lr
  401400:	6882      	ldr	r2, [r0, #8]
  401402:	605a      	str	r2, [r3, #4]
  401404:	e7f6      	b.n	4013f4 <uxListRemove+0x14>
	...

00401408 <prvTaskExitError>:
  401408:	4b0d      	ldr	r3, [pc, #52]	; (401440 <prvTaskExitError+0x38>)
  40140a:	681b      	ldr	r3, [r3, #0]
  40140c:	f1b3 3fff 	cmp.w	r3, #4294967295
  401410:	d00a      	beq.n	401428 <prvTaskExitError+0x20>
  401412:	f04f 0380 	mov.w	r3, #128	; 0x80
  401416:	b672      	cpsid	i
  401418:	f383 8811 	msr	BASEPRI, r3
  40141c:	f3bf 8f6f 	isb	sy
  401420:	f3bf 8f4f 	dsb	sy
  401424:	b662      	cpsie	i
  401426:	e7fe      	b.n	401426 <prvTaskExitError+0x1e>
  401428:	f04f 0380 	mov.w	r3, #128	; 0x80
  40142c:	b672      	cpsid	i
  40142e:	f383 8811 	msr	BASEPRI, r3
  401432:	f3bf 8f6f 	isb	sy
  401436:	f3bf 8f4f 	dsb	sy
  40143a:	b662      	cpsie	i
  40143c:	e7fe      	b.n	40143c <prvTaskExitError+0x34>
  40143e:	bf00      	nop
  401440:	20400010 	.word	0x20400010

00401444 <prvPortStartFirstTask>:
  401444:	4806      	ldr	r0, [pc, #24]	; (401460 <prvPortStartFirstTask+0x1c>)
  401446:	6800      	ldr	r0, [r0, #0]
  401448:	6800      	ldr	r0, [r0, #0]
  40144a:	f380 8808 	msr	MSP, r0
  40144e:	b662      	cpsie	i
  401450:	b661      	cpsie	f
  401452:	f3bf 8f4f 	dsb	sy
  401456:	f3bf 8f6f 	isb	sy
  40145a:	df00      	svc	0
  40145c:	bf00      	nop
  40145e:	0000      	.short	0x0000
  401460:	e000ed08 	.word	0xe000ed08

00401464 <vPortEnableVFP>:
  401464:	f8df 000c 	ldr.w	r0, [pc, #12]	; 401474 <vPortEnableVFP+0x10>
  401468:	6801      	ldr	r1, [r0, #0]
  40146a:	f441 0170 	orr.w	r1, r1, #15728640	; 0xf00000
  40146e:	6001      	str	r1, [r0, #0]
  401470:	4770      	bx	lr
  401472:	0000      	.short	0x0000
  401474:	e000ed88 	.word	0xe000ed88

00401478 <pxPortInitialiseStack>:
  401478:	f04f 7380 	mov.w	r3, #16777216	; 0x1000000
  40147c:	f840 3c04 	str.w	r3, [r0, #-4]
  401480:	f840 1c08 	str.w	r1, [r0, #-8]
  401484:	4b05      	ldr	r3, [pc, #20]	; (40149c <pxPortInitialiseStack+0x24>)
  401486:	f840 3c0c 	str.w	r3, [r0, #-12]
  40148a:	f840 2c20 	str.w	r2, [r0, #-32]
  40148e:	f06f 0302 	mvn.w	r3, #2
  401492:	f840 3c24 	str.w	r3, [r0, #-36]
  401496:	3844      	subs	r0, #68	; 0x44
  401498:	4770      	bx	lr
  40149a:	bf00      	nop
  40149c:	00401409 	.word	0x00401409

004014a0 <SVC_Handler>:
  4014a0:	4b06      	ldr	r3, [pc, #24]	; (4014bc <pxCurrentTCBConst2>)
  4014a2:	6819      	ldr	r1, [r3, #0]
  4014a4:	6808      	ldr	r0, [r1, #0]
  4014a6:	e8b0 4ff0 	ldmia.w	r0!, {r4, r5, r6, r7, r8, r9, sl, fp, lr}
  4014aa:	f380 8809 	msr	PSP, r0
  4014ae:	f3bf 8f6f 	isb	sy
  4014b2:	f04f 0000 	mov.w	r0, #0
  4014b6:	f380 8811 	msr	BASEPRI, r0
  4014ba:	4770      	bx	lr

004014bc <pxCurrentTCBConst2>:
  4014bc:	20400c64 	.word	0x20400c64
  4014c0:	4770      	bx	lr
  4014c2:	bf00      	nop

004014c4 <vPortEnterCritical>:
  4014c4:	f04f 0380 	mov.w	r3, #128	; 0x80
  4014c8:	b672      	cpsid	i
  4014ca:	f383 8811 	msr	BASEPRI, r3
  4014ce:	f3bf 8f6f 	isb	sy
  4014d2:	f3bf 8f4f 	dsb	sy
  4014d6:	b662      	cpsie	i
  4014d8:	4a0b      	ldr	r2, [pc, #44]	; (401508 <vPortEnterCritical+0x44>)
  4014da:	6813      	ldr	r3, [r2, #0]
  4014dc:	3301      	adds	r3, #1
  4014de:	6013      	str	r3, [r2, #0]
  4014e0:	2b01      	cmp	r3, #1
  4014e2:	d10f      	bne.n	401504 <vPortEnterCritical+0x40>
  4014e4:	4b09      	ldr	r3, [pc, #36]	; (40150c <vPortEnterCritical+0x48>)
  4014e6:	681b      	ldr	r3, [r3, #0]
  4014e8:	f013 0fff 	tst.w	r3, #255	; 0xff
  4014ec:	d00a      	beq.n	401504 <vPortEnterCritical+0x40>
  4014ee:	f04f 0380 	mov.w	r3, #128	; 0x80
  4014f2:	b672      	cpsid	i
  4014f4:	f383 8811 	msr	BASEPRI, r3
  4014f8:	f3bf 8f6f 	isb	sy
  4014fc:	f3bf 8f4f 	dsb	sy
  401500:	b662      	cpsie	i
  401502:	e7fe      	b.n	401502 <vPortEnterCritical+0x3e>
  401504:	4770      	bx	lr
  401506:	bf00      	nop
  401508:	20400010 	.word	0x20400010
  40150c:	e000ed04 	.word	0xe000ed04

00401510 <vPortExitCritical>:
  401510:	4b0a      	ldr	r3, [pc, #40]	; (40153c <vPortExitCritical+0x2c>)
  401512:	681b      	ldr	r3, [r3, #0]
  401514:	b953      	cbnz	r3, 40152c <vPortExitCritical+0x1c>
  401516:	f04f 0380 	mov.w	r3, #128	; 0x80
  40151a:	b672      	cpsid	i
  40151c:	f383 8811 	msr	BASEPRI, r3
  401520:	f3bf 8f6f 	isb	sy
  401524:	f3bf 8f4f 	dsb	sy
  401528:	b662      	cpsie	i
  40152a:	e7fe      	b.n	40152a <vPortExitCritical+0x1a>
  40152c:	3b01      	subs	r3, #1
  40152e:	4a03      	ldr	r2, [pc, #12]	; (40153c <vPortExitCritical+0x2c>)
  401530:	6013      	str	r3, [r2, #0]
  401532:	b90b      	cbnz	r3, 401538 <vPortExitCritical+0x28>
  401534:	f383 8811 	msr	BASEPRI, r3
  401538:	4770      	bx	lr
  40153a:	bf00      	nop
  40153c:	20400010 	.word	0x20400010

00401540 <PendSV_Handler>:
  401540:	f3ef 8009 	mrs	r0, PSP
  401544:	f3bf 8f6f 	isb	sy
  401548:	4b15      	ldr	r3, [pc, #84]	; (4015a0 <pxCurrentTCBConst>)
  40154a:	681a      	ldr	r2, [r3, #0]
  40154c:	f01e 0f10 	tst.w	lr, #16
  401550:	bf08      	it	eq
  401552:	ed20 8a10 	vstmdbeq	r0!, {s16-s31}
  401556:	e920 4ff0 	stmdb	r0!, {r4, r5, r6, r7, r8, r9, sl, fp, lr}
  40155a:	6010      	str	r0, [r2, #0]
  40155c:	f84d 3d04 	str.w	r3, [sp, #-4]!
  401560:	f04f 0080 	mov.w	r0, #128	; 0x80
  401564:	b672      	cpsid	i
  401566:	f380 8811 	msr	BASEPRI, r0
  40156a:	f3bf 8f4f 	dsb	sy
  40156e:	f3bf 8f6f 	isb	sy
  401572:	b662      	cpsie	i
  401574:	f001 f8fe 	bl	402774 <vTaskSwitchContext>
  401578:	f04f 0000 	mov.w	r0, #0
  40157c:	f380 8811 	msr	BASEPRI, r0
  401580:	bc08      	pop	{r3}
  401582:	6819      	ldr	r1, [r3, #0]
  401584:	6808      	ldr	r0, [r1, #0]
  401586:	e8b0 4ff0 	ldmia.w	r0!, {r4, r5, r6, r7, r8, r9, sl, fp, lr}
  40158a:	f01e 0f10 	tst.w	lr, #16
  40158e:	bf08      	it	eq
  401590:	ecb0 8a10 	vldmiaeq	r0!, {s16-s31}
  401594:	f380 8809 	msr	PSP, r0
  401598:	f3bf 8f6f 	isb	sy
  40159c:	4770      	bx	lr
  40159e:	bf00      	nop

004015a0 <pxCurrentTCBConst>:
  4015a0:	20400c64 	.word	0x20400c64
  4015a4:	4770      	bx	lr
  4015a6:	bf00      	nop

004015a8 <SysTick_Handler>:
  4015a8:	b508      	push	{r3, lr}
  4015aa:	f3ef 8311 	mrs	r3, BASEPRI
  4015ae:	f04f 0280 	mov.w	r2, #128	; 0x80
  4015b2:	b672      	cpsid	i
  4015b4:	f382 8811 	msr	BASEPRI, r2
  4015b8:	f3bf 8f6f 	isb	sy
  4015bc:	f3bf 8f4f 	dsb	sy
  4015c0:	b662      	cpsie	i
  4015c2:	4b05      	ldr	r3, [pc, #20]	; (4015d8 <SysTick_Handler+0x30>)
  4015c4:	4798      	blx	r3
  4015c6:	b118      	cbz	r0, 4015d0 <SysTick_Handler+0x28>
  4015c8:	f04f 5280 	mov.w	r2, #268435456	; 0x10000000
  4015cc:	4b03      	ldr	r3, [pc, #12]	; (4015dc <SysTick_Handler+0x34>)
  4015ce:	601a      	str	r2, [r3, #0]
  4015d0:	2300      	movs	r3, #0
  4015d2:	f383 8811 	msr	BASEPRI, r3
  4015d6:	bd08      	pop	{r3, pc}
  4015d8:	004023e1 	.word	0x004023e1
  4015dc:	e000ed04 	.word	0xe000ed04

004015e0 <vPortSetupTimerInterrupt>:
  4015e0:	4a03      	ldr	r2, [pc, #12]	; (4015f0 <vPortSetupTimerInterrupt+0x10>)
  4015e2:	4b04      	ldr	r3, [pc, #16]	; (4015f4 <vPortSetupTimerInterrupt+0x14>)
  4015e4:	601a      	str	r2, [r3, #0]
  4015e6:	2207      	movs	r2, #7
  4015e8:	3b04      	subs	r3, #4
  4015ea:	601a      	str	r2, [r3, #0]
  4015ec:	4770      	bx	lr
  4015ee:	bf00      	nop
  4015f0:	000927bf 	.word	0x000927bf
  4015f4:	e000e014 	.word	0xe000e014

004015f8 <xPortStartScheduler>:
  4015f8:	b500      	push	{lr}
  4015fa:	b083      	sub	sp, #12
  4015fc:	4b25      	ldr	r3, [pc, #148]	; (401694 <xPortStartScheduler+0x9c>)
  4015fe:	781a      	ldrb	r2, [r3, #0]
  401600:	b2d2      	uxtb	r2, r2
  401602:	9201      	str	r2, [sp, #4]
  401604:	22ff      	movs	r2, #255	; 0xff
  401606:	701a      	strb	r2, [r3, #0]
  401608:	781b      	ldrb	r3, [r3, #0]
  40160a:	b2db      	uxtb	r3, r3
  40160c:	f88d 3003 	strb.w	r3, [sp, #3]
  401610:	f89d 3003 	ldrb.w	r3, [sp, #3]
  401614:	f003 0380 	and.w	r3, r3, #128	; 0x80
  401618:	4a1f      	ldr	r2, [pc, #124]	; (401698 <xPortStartScheduler+0xa0>)
  40161a:	7013      	strb	r3, [r2, #0]
  40161c:	2207      	movs	r2, #7
  40161e:	4b1f      	ldr	r3, [pc, #124]	; (40169c <xPortStartScheduler+0xa4>)
  401620:	601a      	str	r2, [r3, #0]
  401622:	f89d 3003 	ldrb.w	r3, [sp, #3]
  401626:	f013 0f80 	tst.w	r3, #128	; 0x80
  40162a:	d010      	beq.n	40164e <xPortStartScheduler+0x56>
  40162c:	2206      	movs	r2, #6
  40162e:	e000      	b.n	401632 <xPortStartScheduler+0x3a>
  401630:	460a      	mov	r2, r1
  401632:	f89d 3003 	ldrb.w	r3, [sp, #3]
  401636:	005b      	lsls	r3, r3, #1
  401638:	b2db      	uxtb	r3, r3
  40163a:	f88d 3003 	strb.w	r3, [sp, #3]
  40163e:	f89d 3003 	ldrb.w	r3, [sp, #3]
  401642:	1e51      	subs	r1, r2, #1
  401644:	f013 0f80 	tst.w	r3, #128	; 0x80
  401648:	d1f2      	bne.n	401630 <xPortStartScheduler+0x38>
  40164a:	4b14      	ldr	r3, [pc, #80]	; (40169c <xPortStartScheduler+0xa4>)
  40164c:	601a      	str	r2, [r3, #0]
  40164e:	4a13      	ldr	r2, [pc, #76]	; (40169c <xPortStartScheduler+0xa4>)
  401650:	6813      	ldr	r3, [r2, #0]
  401652:	021b      	lsls	r3, r3, #8
  401654:	f403 63e0 	and.w	r3, r3, #1792	; 0x700
  401658:	6013      	str	r3, [r2, #0]
  40165a:	9b01      	ldr	r3, [sp, #4]
  40165c:	b2db      	uxtb	r3, r3
  40165e:	4a0d      	ldr	r2, [pc, #52]	; (401694 <xPortStartScheduler+0x9c>)
  401660:	7013      	strb	r3, [r2, #0]
  401662:	4b0f      	ldr	r3, [pc, #60]	; (4016a0 <xPortStartScheduler+0xa8>)
  401664:	681a      	ldr	r2, [r3, #0]
  401666:	f442 0260 	orr.w	r2, r2, #14680064	; 0xe00000
  40166a:	601a      	str	r2, [r3, #0]
  40166c:	681a      	ldr	r2, [r3, #0]
  40166e:	f042 4260 	orr.w	r2, r2, #3758096384	; 0xe0000000
  401672:	601a      	str	r2, [r3, #0]
  401674:	4b0b      	ldr	r3, [pc, #44]	; (4016a4 <xPortStartScheduler+0xac>)
  401676:	4798      	blx	r3
  401678:	2200      	movs	r2, #0
  40167a:	4b0b      	ldr	r3, [pc, #44]	; (4016a8 <xPortStartScheduler+0xb0>)
  40167c:	601a      	str	r2, [r3, #0]
  40167e:	4b0b      	ldr	r3, [pc, #44]	; (4016ac <xPortStartScheduler+0xb4>)
  401680:	4798      	blx	r3
  401682:	4a0b      	ldr	r2, [pc, #44]	; (4016b0 <xPortStartScheduler+0xb8>)
  401684:	6813      	ldr	r3, [r2, #0]
  401686:	f043 4340 	orr.w	r3, r3, #3221225472	; 0xc0000000
  40168a:	6013      	str	r3, [r2, #0]
  40168c:	4b09      	ldr	r3, [pc, #36]	; (4016b4 <xPortStartScheduler+0xbc>)
  40168e:	4798      	blx	r3
  401690:	4b09      	ldr	r3, [pc, #36]	; (4016b8 <xPortStartScheduler+0xc0>)
  401692:	4798      	blx	r3
  401694:	e000e400 	.word	0xe000e400
  401698:	20400c5c 	.word	0x20400c5c
  40169c:	20400c60 	.word	0x20400c60
  4016a0:	e000ed20 	.word	0xe000ed20
  4016a4:	004015e1 	.word	0x004015e1
  4016a8:	20400010 	.word	0x20400010
  4016ac:	00401465 	.word	0x00401465
  4016b0:	e000ef34 	.word	0xe000ef34
  4016b4:	00401445 	.word	0x00401445
  4016b8:	00401409 	.word	0x00401409

004016bc <vPortValidateInterruptPriority>:
  4016bc:	f3ef 8305 	mrs	r3, IPSR
  4016c0:	2b0f      	cmp	r3, #15
  4016c2:	d911      	bls.n	4016e8 <vPortValidateInterruptPriority+0x2c>
  4016c4:	4a12      	ldr	r2, [pc, #72]	; (401710 <vPortValidateInterruptPriority+0x54>)
  4016c6:	5c9b      	ldrb	r3, [r3, r2]
  4016c8:	b2db      	uxtb	r3, r3
  4016ca:	4a12      	ldr	r2, [pc, #72]	; (401714 <vPortValidateInterruptPriority+0x58>)
  4016cc:	7812      	ldrb	r2, [r2, #0]
  4016ce:	429a      	cmp	r2, r3
  4016d0:	d90a      	bls.n	4016e8 <vPortValidateInterruptPriority+0x2c>
  4016d2:	f04f 0380 	mov.w	r3, #128	; 0x80
  4016d6:	b672      	cpsid	i
  4016d8:	f383 8811 	msr	BASEPRI, r3
  4016dc:	f3bf 8f6f 	isb	sy
  4016e0:	f3bf 8f4f 	dsb	sy
  4016e4:	b662      	cpsie	i
  4016e6:	e7fe      	b.n	4016e6 <vPortValidateInterruptPriority+0x2a>
  4016e8:	4b0b      	ldr	r3, [pc, #44]	; (401718 <vPortValidateInterruptPriority+0x5c>)
  4016ea:	681b      	ldr	r3, [r3, #0]
  4016ec:	f403 63e0 	and.w	r3, r3, #1792	; 0x700
  4016f0:	4a0a      	ldr	r2, [pc, #40]	; (40171c <vPortValidateInterruptPriority+0x60>)
  4016f2:	6812      	ldr	r2, [r2, #0]
  4016f4:	4293      	cmp	r3, r2
  4016f6:	d90a      	bls.n	40170e <vPortValidateInterruptPriority+0x52>
  4016f8:	f04f 0380 	mov.w	r3, #128	; 0x80
  4016fc:	b672      	cpsid	i
  4016fe:	f383 8811 	msr	BASEPRI, r3
  401702:	f3bf 8f6f 	isb	sy
  401706:	f3bf 8f4f 	dsb	sy
  40170a:	b662      	cpsie	i
  40170c:	e7fe      	b.n	40170c <vPortValidateInterruptPriority+0x50>
  40170e:	4770      	bx	lr
  401710:	e000e3f0 	.word	0xe000e3f0
  401714:	20400c5c 	.word	0x20400c5c
  401718:	e000ed0c 	.word	0xe000ed0c
  40171c:	20400c60 	.word	0x20400c60

00401720 <pvPortMalloc>:
  401720:	b510      	push	{r4, lr}
  401722:	4604      	mov	r4, r0
  401724:	4b06      	ldr	r3, [pc, #24]	; (401740 <pvPortMalloc+0x20>)
  401726:	4798      	blx	r3
  401728:	4620      	mov	r0, r4
  40172a:	4b06      	ldr	r3, [pc, #24]	; (401744 <pvPortMalloc+0x24>)
  40172c:	4798      	blx	r3
  40172e:	4604      	mov	r4, r0
  401730:	4b05      	ldr	r3, [pc, #20]	; (401748 <pvPortMalloc+0x28>)
  401732:	4798      	blx	r3
  401734:	b10c      	cbz	r4, 40173a <pvPortMalloc+0x1a>
  401736:	4620      	mov	r0, r4
  401738:	bd10      	pop	{r4, pc}
  40173a:	4b04      	ldr	r3, [pc, #16]	; (40174c <pvPortMalloc+0x2c>)
  40173c:	4798      	blx	r3
  40173e:	e7fa      	b.n	401736 <pvPortMalloc+0x16>
  401740:	004023c5 	.word	0x004023c5
  401744:	004034d9 	.word	0x004034d9
  401748:	0040252d 	.word	0x0040252d
  40174c:	004032df 	.word	0x004032df

00401750 <vPortFree>:
  401750:	b148      	cbz	r0, 401766 <vPortFree+0x16>
  401752:	b510      	push	{r4, lr}
  401754:	4604      	mov	r4, r0
  401756:	4b04      	ldr	r3, [pc, #16]	; (401768 <vPortFree+0x18>)
  401758:	4798      	blx	r3
  40175a:	4620      	mov	r0, r4
  40175c:	4b03      	ldr	r3, [pc, #12]	; (40176c <vPortFree+0x1c>)
  40175e:	4798      	blx	r3
  401760:	4b03      	ldr	r3, [pc, #12]	; (401770 <vPortFree+0x20>)
  401762:	4798      	blx	r3
  401764:	bd10      	pop	{r4, pc}
  401766:	4770      	bx	lr
  401768:	004023c5 	.word	0x004023c5
  40176c:	004034e9 	.word	0x004034e9
  401770:	0040252d 	.word	0x0040252d

00401774 <prvCopyDataToQueue>:
  401774:	b538      	push	{r3, r4, r5, lr}
  401776:	4604      	mov	r4, r0
  401778:	4615      	mov	r5, r2
  40177a:	6c02      	ldr	r2, [r0, #64]	; 0x40
  40177c:	b95a      	cbnz	r2, 401796 <prvCopyDataToQueue+0x22>
  40177e:	6803      	ldr	r3, [r0, #0]
  401780:	2b00      	cmp	r3, #0
  401782:	d12e      	bne.n	4017e2 <prvCopyDataToQueue+0x6e>
  401784:	6840      	ldr	r0, [r0, #4]
  401786:	4b1b      	ldr	r3, [pc, #108]	; (4017f4 <prvCopyDataToQueue+0x80>)
  401788:	4798      	blx	r3
  40178a:	2300      	movs	r3, #0
  40178c:	6063      	str	r3, [r4, #4]
  40178e:	6ba3      	ldr	r3, [r4, #56]	; 0x38
  401790:	3301      	adds	r3, #1
  401792:	63a3      	str	r3, [r4, #56]	; 0x38
  401794:	bd38      	pop	{r3, r4, r5, pc}
  401796:	b96d      	cbnz	r5, 4017b4 <prvCopyDataToQueue+0x40>
  401798:	6880      	ldr	r0, [r0, #8]
  40179a:	4b17      	ldr	r3, [pc, #92]	; (4017f8 <prvCopyDataToQueue+0x84>)
  40179c:	4798      	blx	r3
  40179e:	68a3      	ldr	r3, [r4, #8]
  4017a0:	6c22      	ldr	r2, [r4, #64]	; 0x40
  4017a2:	4413      	add	r3, r2
  4017a4:	60a3      	str	r3, [r4, #8]
  4017a6:	6862      	ldr	r2, [r4, #4]
  4017a8:	4293      	cmp	r3, r2
  4017aa:	d31c      	bcc.n	4017e6 <prvCopyDataToQueue+0x72>
  4017ac:	6823      	ldr	r3, [r4, #0]
  4017ae:	60a3      	str	r3, [r4, #8]
  4017b0:	2000      	movs	r0, #0
  4017b2:	e7ec      	b.n	40178e <prvCopyDataToQueue+0x1a>
  4017b4:	68c0      	ldr	r0, [r0, #12]
  4017b6:	4b10      	ldr	r3, [pc, #64]	; (4017f8 <prvCopyDataToQueue+0x84>)
  4017b8:	4798      	blx	r3
  4017ba:	6c23      	ldr	r3, [r4, #64]	; 0x40
  4017bc:	425b      	negs	r3, r3
  4017be:	68e2      	ldr	r2, [r4, #12]
  4017c0:	441a      	add	r2, r3
  4017c2:	60e2      	str	r2, [r4, #12]
  4017c4:	6821      	ldr	r1, [r4, #0]
  4017c6:	428a      	cmp	r2, r1
  4017c8:	d202      	bcs.n	4017d0 <prvCopyDataToQueue+0x5c>
  4017ca:	6862      	ldr	r2, [r4, #4]
  4017cc:	4413      	add	r3, r2
  4017ce:	60e3      	str	r3, [r4, #12]
  4017d0:	2d02      	cmp	r5, #2
  4017d2:	d10a      	bne.n	4017ea <prvCopyDataToQueue+0x76>
  4017d4:	6ba3      	ldr	r3, [r4, #56]	; 0x38
  4017d6:	b153      	cbz	r3, 4017ee <prvCopyDataToQueue+0x7a>
  4017d8:	6ba3      	ldr	r3, [r4, #56]	; 0x38
  4017da:	3b01      	subs	r3, #1
  4017dc:	63a3      	str	r3, [r4, #56]	; 0x38
  4017de:	2000      	movs	r0, #0
  4017e0:	e7d5      	b.n	40178e <prvCopyDataToQueue+0x1a>
  4017e2:	2000      	movs	r0, #0
  4017e4:	e7d3      	b.n	40178e <prvCopyDataToQueue+0x1a>
  4017e6:	2000      	movs	r0, #0
  4017e8:	e7d1      	b.n	40178e <prvCopyDataToQueue+0x1a>
  4017ea:	2000      	movs	r0, #0
  4017ec:	e7cf      	b.n	40178e <prvCopyDataToQueue+0x1a>
  4017ee:	2000      	movs	r0, #0
  4017f0:	e7cd      	b.n	40178e <prvCopyDataToQueue+0x1a>
  4017f2:	bf00      	nop
  4017f4:	00402b75 	.word	0x00402b75
  4017f8:	00403a59 	.word	0x00403a59

004017fc <prvNotifyQueueSetContainer>:
  4017fc:	b530      	push	{r4, r5, lr}
  4017fe:	b083      	sub	sp, #12
  401800:	9001      	str	r0, [sp, #4]
  401802:	6d44      	ldr	r4, [r0, #84]	; 0x54
  401804:	b174      	cbz	r4, 401824 <prvNotifyQueueSetContainer+0x28>
  401806:	6ba2      	ldr	r2, [r4, #56]	; 0x38
  401808:	6be3      	ldr	r3, [r4, #60]	; 0x3c
  40180a:	429a      	cmp	r2, r3
  40180c:	d315      	bcc.n	40183a <prvNotifyQueueSetContainer+0x3e>
  40180e:	f04f 0380 	mov.w	r3, #128	; 0x80
  401812:	b672      	cpsid	i
  401814:	f383 8811 	msr	BASEPRI, r3
  401818:	f3bf 8f6f 	isb	sy
  40181c:	f3bf 8f4f 	dsb	sy
  401820:	b662      	cpsie	i
  401822:	e7fe      	b.n	401822 <prvNotifyQueueSetContainer+0x26>
  401824:	f04f 0380 	mov.w	r3, #128	; 0x80
  401828:	b672      	cpsid	i
  40182a:	f383 8811 	msr	BASEPRI, r3
  40182e:	f3bf 8f6f 	isb	sy
  401832:	f3bf 8f4f 	dsb	sy
  401836:	b662      	cpsie	i
  401838:	e7fe      	b.n	401838 <prvNotifyQueueSetContainer+0x3c>
  40183a:	6ba2      	ldr	r2, [r4, #56]	; 0x38
  40183c:	4293      	cmp	r3, r2
  40183e:	d803      	bhi.n	401848 <prvNotifyQueueSetContainer+0x4c>
  401840:	2500      	movs	r5, #0
  401842:	4628      	mov	r0, r5
  401844:	b003      	add	sp, #12
  401846:	bd30      	pop	{r4, r5, pc}
  401848:	460a      	mov	r2, r1
  40184a:	a901      	add	r1, sp, #4
  40184c:	4620      	mov	r0, r4
  40184e:	4b0b      	ldr	r3, [pc, #44]	; (40187c <prvNotifyQueueSetContainer+0x80>)
  401850:	4798      	blx	r3
  401852:	4605      	mov	r5, r0
  401854:	6ca3      	ldr	r3, [r4, #72]	; 0x48
  401856:	f1b3 3fff 	cmp.w	r3, #4294967295
  40185a:	d10a      	bne.n	401872 <prvNotifyQueueSetContainer+0x76>
  40185c:	6a63      	ldr	r3, [r4, #36]	; 0x24
  40185e:	2b00      	cmp	r3, #0
  401860:	d0ef      	beq.n	401842 <prvNotifyQueueSetContainer+0x46>
  401862:	f104 0024 	add.w	r0, r4, #36	; 0x24
  401866:	4b06      	ldr	r3, [pc, #24]	; (401880 <prvNotifyQueueSetContainer+0x84>)
  401868:	4798      	blx	r3
  40186a:	2800      	cmp	r0, #0
  40186c:	bf18      	it	ne
  40186e:	2501      	movne	r5, #1
  401870:	e7e7      	b.n	401842 <prvNotifyQueueSetContainer+0x46>
  401872:	6ca3      	ldr	r3, [r4, #72]	; 0x48
  401874:	3301      	adds	r3, #1
  401876:	64a3      	str	r3, [r4, #72]	; 0x48
  401878:	e7e3      	b.n	401842 <prvNotifyQueueSetContainer+0x46>
  40187a:	bf00      	nop
  40187c:	00401775 	.word	0x00401775
  401880:	00402949 	.word	0x00402949

00401884 <prvCopyDataFromQueue>:
  401884:	6c02      	ldr	r2, [r0, #64]	; 0x40
  401886:	b172      	cbz	r2, 4018a6 <prvCopyDataFromQueue+0x22>
  401888:	b510      	push	{r4, lr}
  40188a:	4603      	mov	r3, r0
  40188c:	68c4      	ldr	r4, [r0, #12]
  40188e:	4414      	add	r4, r2
  401890:	60c4      	str	r4, [r0, #12]
  401892:	6840      	ldr	r0, [r0, #4]
  401894:	4284      	cmp	r4, r0
  401896:	d301      	bcc.n	40189c <prvCopyDataFromQueue+0x18>
  401898:	6818      	ldr	r0, [r3, #0]
  40189a:	60d8      	str	r0, [r3, #12]
  40189c:	4608      	mov	r0, r1
  40189e:	68d9      	ldr	r1, [r3, #12]
  4018a0:	4b01      	ldr	r3, [pc, #4]	; (4018a8 <prvCopyDataFromQueue+0x24>)
  4018a2:	4798      	blx	r3
  4018a4:	bd10      	pop	{r4, pc}
  4018a6:	4770      	bx	lr
  4018a8:	00403a59 	.word	0x00403a59

004018ac <prvUnlockQueue>:
  4018ac:	b5f8      	push	{r3, r4, r5, r6, r7, lr}
  4018ae:	4604      	mov	r4, r0
  4018b0:	4b22      	ldr	r3, [pc, #136]	; (40193c <prvUnlockQueue+0x90>)
  4018b2:	4798      	blx	r3
  4018b4:	6ca3      	ldr	r3, [r4, #72]	; 0x48
  4018b6:	2b00      	cmp	r3, #0
  4018b8:	dd1b      	ble.n	4018f2 <prvUnlockQueue+0x46>
  4018ba:	4d21      	ldr	r5, [pc, #132]	; (401940 <prvUnlockQueue+0x94>)
  4018bc:	4f21      	ldr	r7, [pc, #132]	; (401944 <prvUnlockQueue+0x98>)
  4018be:	4e22      	ldr	r6, [pc, #136]	; (401948 <prvUnlockQueue+0x9c>)
  4018c0:	e00b      	b.n	4018da <prvUnlockQueue+0x2e>
  4018c2:	6a63      	ldr	r3, [r4, #36]	; 0x24
  4018c4:	b1ab      	cbz	r3, 4018f2 <prvUnlockQueue+0x46>
  4018c6:	f104 0024 	add.w	r0, r4, #36	; 0x24
  4018ca:	47b0      	blx	r6
  4018cc:	b978      	cbnz	r0, 4018ee <prvUnlockQueue+0x42>
  4018ce:	6ca3      	ldr	r3, [r4, #72]	; 0x48
  4018d0:	3b01      	subs	r3, #1
  4018d2:	64a3      	str	r3, [r4, #72]	; 0x48
  4018d4:	6ca3      	ldr	r3, [r4, #72]	; 0x48
  4018d6:	2b00      	cmp	r3, #0
  4018d8:	dd0b      	ble.n	4018f2 <prvUnlockQueue+0x46>
  4018da:	6d63      	ldr	r3, [r4, #84]	; 0x54
  4018dc:	2b00      	cmp	r3, #0
  4018de:	d0f0      	beq.n	4018c2 <prvUnlockQueue+0x16>
  4018e0:	2100      	movs	r1, #0
  4018e2:	4620      	mov	r0, r4
  4018e4:	47a8      	blx	r5
  4018e6:	2801      	cmp	r0, #1
  4018e8:	d1f1      	bne.n	4018ce <prvUnlockQueue+0x22>
  4018ea:	47b8      	blx	r7
  4018ec:	e7ef      	b.n	4018ce <prvUnlockQueue+0x22>
  4018ee:	47b8      	blx	r7
  4018f0:	e7ed      	b.n	4018ce <prvUnlockQueue+0x22>
  4018f2:	f04f 33ff 	mov.w	r3, #4294967295
  4018f6:	64a3      	str	r3, [r4, #72]	; 0x48
  4018f8:	4b14      	ldr	r3, [pc, #80]	; (40194c <prvUnlockQueue+0xa0>)
  4018fa:	4798      	blx	r3
  4018fc:	4b0f      	ldr	r3, [pc, #60]	; (40193c <prvUnlockQueue+0x90>)
  4018fe:	4798      	blx	r3
  401900:	6c63      	ldr	r3, [r4, #68]	; 0x44
  401902:	2b00      	cmp	r3, #0
  401904:	dd14      	ble.n	401930 <prvUnlockQueue+0x84>
  401906:	6923      	ldr	r3, [r4, #16]
  401908:	b193      	cbz	r3, 401930 <prvUnlockQueue+0x84>
  40190a:	f104 0610 	add.w	r6, r4, #16
  40190e:	4d0e      	ldr	r5, [pc, #56]	; (401948 <prvUnlockQueue+0x9c>)
  401910:	4f0c      	ldr	r7, [pc, #48]	; (401944 <prvUnlockQueue+0x98>)
  401912:	e007      	b.n	401924 <prvUnlockQueue+0x78>
  401914:	6c63      	ldr	r3, [r4, #68]	; 0x44
  401916:	3b01      	subs	r3, #1
  401918:	6463      	str	r3, [r4, #68]	; 0x44
  40191a:	6c63      	ldr	r3, [r4, #68]	; 0x44
  40191c:	2b00      	cmp	r3, #0
  40191e:	dd07      	ble.n	401930 <prvUnlockQueue+0x84>
  401920:	6923      	ldr	r3, [r4, #16]
  401922:	b12b      	cbz	r3, 401930 <prvUnlockQueue+0x84>
  401924:	4630      	mov	r0, r6
  401926:	47a8      	blx	r5
  401928:	2800      	cmp	r0, #0
  40192a:	d0f3      	beq.n	401914 <prvUnlockQueue+0x68>
  40192c:	47b8      	blx	r7
  40192e:	e7f1      	b.n	401914 <prvUnlockQueue+0x68>
  401930:	f04f 33ff 	mov.w	r3, #4294967295
  401934:	6463      	str	r3, [r4, #68]	; 0x44
  401936:	4b05      	ldr	r3, [pc, #20]	; (40194c <prvUnlockQueue+0xa0>)
  401938:	4798      	blx	r3
  40193a:	bdf8      	pop	{r3, r4, r5, r6, r7, pc}
  40193c:	004014c5 	.word	0x004014c5
  401940:	004017fd 	.word	0x004017fd
  401944:	00402aa5 	.word	0x00402aa5
  401948:	00402949 	.word	0x00402949
  40194c:	00401511 	.word	0x00401511

00401950 <xQueueGenericReset>:
  401950:	b538      	push	{r3, r4, r5, lr}
  401952:	b308      	cbz	r0, 401998 <xQueueGenericReset+0x48>
  401954:	4604      	mov	r4, r0
  401956:	460d      	mov	r5, r1
  401958:	4b1d      	ldr	r3, [pc, #116]	; (4019d0 <xQueueGenericReset+0x80>)
  40195a:	4798      	blx	r3
  40195c:	6822      	ldr	r2, [r4, #0]
  40195e:	6c21      	ldr	r1, [r4, #64]	; 0x40
  401960:	6be3      	ldr	r3, [r4, #60]	; 0x3c
  401962:	fb03 f301 	mul.w	r3, r3, r1
  401966:	18d0      	adds	r0, r2, r3
  401968:	6060      	str	r0, [r4, #4]
  40196a:	2000      	movs	r0, #0
  40196c:	63a0      	str	r0, [r4, #56]	; 0x38
  40196e:	60a2      	str	r2, [r4, #8]
  401970:	1a5b      	subs	r3, r3, r1
  401972:	4413      	add	r3, r2
  401974:	60e3      	str	r3, [r4, #12]
  401976:	f04f 33ff 	mov.w	r3, #4294967295
  40197a:	6463      	str	r3, [r4, #68]	; 0x44
  40197c:	64a3      	str	r3, [r4, #72]	; 0x48
  40197e:	b9fd      	cbnz	r5, 4019c0 <xQueueGenericReset+0x70>
  401980:	6923      	ldr	r3, [r4, #16]
  401982:	b12b      	cbz	r3, 401990 <xQueueGenericReset+0x40>
  401984:	f104 0010 	add.w	r0, r4, #16
  401988:	4b12      	ldr	r3, [pc, #72]	; (4019d4 <xQueueGenericReset+0x84>)
  40198a:	4798      	blx	r3
  40198c:	2801      	cmp	r0, #1
  40198e:	d00e      	beq.n	4019ae <xQueueGenericReset+0x5e>
  401990:	4b11      	ldr	r3, [pc, #68]	; (4019d8 <xQueueGenericReset+0x88>)
  401992:	4798      	blx	r3
  401994:	2001      	movs	r0, #1
  401996:	bd38      	pop	{r3, r4, r5, pc}
  401998:	f04f 0380 	mov.w	r3, #128	; 0x80
  40199c:	b672      	cpsid	i
  40199e:	f383 8811 	msr	BASEPRI, r3
  4019a2:	f3bf 8f6f 	isb	sy
  4019a6:	f3bf 8f4f 	dsb	sy
  4019aa:	b662      	cpsie	i
  4019ac:	e7fe      	b.n	4019ac <xQueueGenericReset+0x5c>
  4019ae:	f04f 5280 	mov.w	r2, #268435456	; 0x10000000
  4019b2:	4b0a      	ldr	r3, [pc, #40]	; (4019dc <xQueueGenericReset+0x8c>)
  4019b4:	601a      	str	r2, [r3, #0]
  4019b6:	f3bf 8f4f 	dsb	sy
  4019ba:	f3bf 8f6f 	isb	sy
  4019be:	e7e7      	b.n	401990 <xQueueGenericReset+0x40>
  4019c0:	f104 0010 	add.w	r0, r4, #16
  4019c4:	4d06      	ldr	r5, [pc, #24]	; (4019e0 <xQueueGenericReset+0x90>)
  4019c6:	47a8      	blx	r5
  4019c8:	f104 0024 	add.w	r0, r4, #36	; 0x24
  4019cc:	47a8      	blx	r5
  4019ce:	e7df      	b.n	401990 <xQueueGenericReset+0x40>
  4019d0:	004014c5 	.word	0x004014c5
  4019d4:	00402949 	.word	0x00402949
  4019d8:	00401511 	.word	0x00401511
  4019dc:	e000ed04 	.word	0xe000ed04
  4019e0:	00401379 	.word	0x00401379

004019e4 <xQueueGenericCreate>:
  4019e4:	b5f8      	push	{r3, r4, r5, r6, r7, lr}
  4019e6:	b950      	cbnz	r0, 4019fe <xQueueGenericCreate+0x1a>
  4019e8:	f04f 0380 	mov.w	r3, #128	; 0x80
  4019ec:	b672      	cpsid	i
  4019ee:	f383 8811 	msr	BASEPRI, r3
  4019f2:	f3bf 8f6f 	isb	sy
  4019f6:	f3bf 8f4f 	dsb	sy
  4019fa:	b662      	cpsie	i
  4019fc:	e7fe      	b.n	4019fc <xQueueGenericCreate+0x18>
  4019fe:	4606      	mov	r6, r0
  401a00:	4617      	mov	r7, r2
  401a02:	460d      	mov	r5, r1
  401a04:	b189      	cbz	r1, 401a2a <xQueueGenericCreate+0x46>
  401a06:	fb01 f000 	mul.w	r0, r1, r0
  401a0a:	3059      	adds	r0, #89	; 0x59
  401a0c:	4b12      	ldr	r3, [pc, #72]	; (401a58 <xQueueGenericCreate+0x74>)
  401a0e:	4798      	blx	r3
  401a10:	4604      	mov	r4, r0
  401a12:	b9e8      	cbnz	r0, 401a50 <xQueueGenericCreate+0x6c>
  401a14:	f04f 0380 	mov.w	r3, #128	; 0x80
  401a18:	b672      	cpsid	i
  401a1a:	f383 8811 	msr	BASEPRI, r3
  401a1e:	f3bf 8f6f 	isb	sy
  401a22:	f3bf 8f4f 	dsb	sy
  401a26:	b662      	cpsie	i
  401a28:	e7fe      	b.n	401a28 <xQueueGenericCreate+0x44>
  401a2a:	2058      	movs	r0, #88	; 0x58
  401a2c:	4b0a      	ldr	r3, [pc, #40]	; (401a58 <xQueueGenericCreate+0x74>)
  401a2e:	4798      	blx	r3
  401a30:	4604      	mov	r4, r0
  401a32:	2800      	cmp	r0, #0
  401a34:	d0ee      	beq.n	401a14 <xQueueGenericCreate+0x30>
  401a36:	6020      	str	r0, [r4, #0]
  401a38:	63e6      	str	r6, [r4, #60]	; 0x3c
  401a3a:	6425      	str	r5, [r4, #64]	; 0x40
  401a3c:	2101      	movs	r1, #1
  401a3e:	4620      	mov	r0, r4
  401a40:	4b06      	ldr	r3, [pc, #24]	; (401a5c <xQueueGenericCreate+0x78>)
  401a42:	4798      	blx	r3
  401a44:	f884 7050 	strb.w	r7, [r4, #80]	; 0x50
  401a48:	2300      	movs	r3, #0
  401a4a:	6563      	str	r3, [r4, #84]	; 0x54
  401a4c:	4620      	mov	r0, r4
  401a4e:	bdf8      	pop	{r3, r4, r5, r6, r7, pc}
  401a50:	f100 0358 	add.w	r3, r0, #88	; 0x58
  401a54:	6003      	str	r3, [r0, #0]
  401a56:	e7ef      	b.n	401a38 <xQueueGenericCreate+0x54>
  401a58:	00401721 	.word	0x00401721
  401a5c:	00401951 	.word	0x00401951

00401a60 <xQueueGenericSend>:
  401a60:	e92d 4ff0 	stmdb	sp!, {r4, r5, r6, r7, r8, r9, sl, fp, lr}
  401a64:	b085      	sub	sp, #20
  401a66:	9201      	str	r2, [sp, #4]
  401a68:	b1b8      	cbz	r0, 401a9a <xQueueGenericSend+0x3a>
  401a6a:	4604      	mov	r4, r0
  401a6c:	b301      	cbz	r1, 401ab0 <xQueueGenericSend+0x50>
  401a6e:	2b02      	cmp	r3, #2
  401a70:	d02c      	beq.n	401acc <xQueueGenericSend+0x6c>
  401a72:	461d      	mov	r5, r3
  401a74:	4688      	mov	r8, r1
  401a76:	4b66      	ldr	r3, [pc, #408]	; (401c10 <xQueueGenericSend+0x1b0>)
  401a78:	4798      	blx	r3
  401a7a:	2800      	cmp	r0, #0
  401a7c:	d134      	bne.n	401ae8 <xQueueGenericSend+0x88>
  401a7e:	9b01      	ldr	r3, [sp, #4]
  401a80:	2b00      	cmp	r3, #0
  401a82:	d038      	beq.n	401af6 <xQueueGenericSend+0x96>
  401a84:	f04f 0380 	mov.w	r3, #128	; 0x80
  401a88:	b672      	cpsid	i
  401a8a:	f383 8811 	msr	BASEPRI, r3
  401a8e:	f3bf 8f6f 	isb	sy
  401a92:	f3bf 8f4f 	dsb	sy
  401a96:	b662      	cpsie	i
  401a98:	e7fe      	b.n	401a98 <xQueueGenericSend+0x38>
  401a9a:	f04f 0380 	mov.w	r3, #128	; 0x80
  401a9e:	b672      	cpsid	i
  401aa0:	f383 8811 	msr	BASEPRI, r3
  401aa4:	f3bf 8f6f 	isb	sy
  401aa8:	f3bf 8f4f 	dsb	sy
  401aac:	b662      	cpsie	i
  401aae:	e7fe      	b.n	401aae <xQueueGenericSend+0x4e>
  401ab0:	6c02      	ldr	r2, [r0, #64]	; 0x40
  401ab2:	2a00      	cmp	r2, #0
  401ab4:	d0db      	beq.n	401a6e <xQueueGenericSend+0xe>
  401ab6:	f04f 0380 	mov.w	r3, #128	; 0x80
  401aba:	b672      	cpsid	i
  401abc:	f383 8811 	msr	BASEPRI, r3
  401ac0:	f3bf 8f6f 	isb	sy
  401ac4:	f3bf 8f4f 	dsb	sy
  401ac8:	b662      	cpsie	i
  401aca:	e7fe      	b.n	401aca <xQueueGenericSend+0x6a>
  401acc:	6be2      	ldr	r2, [r4, #60]	; 0x3c
  401ace:	2a01      	cmp	r2, #1
  401ad0:	d0cf      	beq.n	401a72 <xQueueGenericSend+0x12>
  401ad2:	f04f 0380 	mov.w	r3, #128	; 0x80
  401ad6:	b672      	cpsid	i
  401ad8:	f383 8811 	msr	BASEPRI, r3
  401adc:	f3bf 8f6f 	isb	sy
  401ae0:	f3bf 8f4f 	dsb	sy
  401ae4:	b662      	cpsie	i
  401ae6:	e7fe      	b.n	401ae6 <xQueueGenericSend+0x86>
  401ae8:	2700      	movs	r7, #0
  401aea:	4e4a      	ldr	r6, [pc, #296]	; (401c14 <xQueueGenericSend+0x1b4>)
  401aec:	f8df a150 	ldr.w	sl, [pc, #336]	; 401c40 <xQueueGenericSend+0x1e0>
  401af0:	f8df 912c 	ldr.w	r9, [pc, #300]	; 401c20 <xQueueGenericSend+0x1c0>
  401af4:	e042      	b.n	401b7c <xQueueGenericSend+0x11c>
  401af6:	2700      	movs	r7, #0
  401af8:	e7f7      	b.n	401aea <xQueueGenericSend+0x8a>
  401afa:	462a      	mov	r2, r5
  401afc:	4641      	mov	r1, r8
  401afe:	4620      	mov	r0, r4
  401b00:	4b45      	ldr	r3, [pc, #276]	; (401c18 <xQueueGenericSend+0x1b8>)
  401b02:	4798      	blx	r3
  401b04:	6d63      	ldr	r3, [r4, #84]	; 0x54
  401b06:	b19b      	cbz	r3, 401b30 <xQueueGenericSend+0xd0>
  401b08:	4629      	mov	r1, r5
  401b0a:	4620      	mov	r0, r4
  401b0c:	4b43      	ldr	r3, [pc, #268]	; (401c1c <xQueueGenericSend+0x1bc>)
  401b0e:	4798      	blx	r3
  401b10:	2801      	cmp	r0, #1
  401b12:	d107      	bne.n	401b24 <xQueueGenericSend+0xc4>
  401b14:	f04f 5280 	mov.w	r2, #268435456	; 0x10000000
  401b18:	4b41      	ldr	r3, [pc, #260]	; (401c20 <xQueueGenericSend+0x1c0>)
  401b1a:	601a      	str	r2, [r3, #0]
  401b1c:	f3bf 8f4f 	dsb	sy
  401b20:	f3bf 8f6f 	isb	sy
  401b24:	4b3f      	ldr	r3, [pc, #252]	; (401c24 <xQueueGenericSend+0x1c4>)
  401b26:	4798      	blx	r3
  401b28:	2001      	movs	r0, #1
  401b2a:	b005      	add	sp, #20
  401b2c:	e8bd 8ff0 	ldmia.w	sp!, {r4, r5, r6, r7, r8, r9, sl, fp, pc}
  401b30:	6a63      	ldr	r3, [r4, #36]	; 0x24
  401b32:	b173      	cbz	r3, 401b52 <xQueueGenericSend+0xf2>
  401b34:	f104 0024 	add.w	r0, r4, #36	; 0x24
  401b38:	4b3b      	ldr	r3, [pc, #236]	; (401c28 <xQueueGenericSend+0x1c8>)
  401b3a:	4798      	blx	r3
  401b3c:	2801      	cmp	r0, #1
  401b3e:	d1f1      	bne.n	401b24 <xQueueGenericSend+0xc4>
  401b40:	f04f 5280 	mov.w	r2, #268435456	; 0x10000000
  401b44:	4b36      	ldr	r3, [pc, #216]	; (401c20 <xQueueGenericSend+0x1c0>)
  401b46:	601a      	str	r2, [r3, #0]
  401b48:	f3bf 8f4f 	dsb	sy
  401b4c:	f3bf 8f6f 	isb	sy
  401b50:	e7e8      	b.n	401b24 <xQueueGenericSend+0xc4>
  401b52:	2800      	cmp	r0, #0
  401b54:	d0e6      	beq.n	401b24 <xQueueGenericSend+0xc4>
  401b56:	f04f 5280 	mov.w	r2, #268435456	; 0x10000000
  401b5a:	4b31      	ldr	r3, [pc, #196]	; (401c20 <xQueueGenericSend+0x1c0>)
  401b5c:	601a      	str	r2, [r3, #0]
  401b5e:	f3bf 8f4f 	dsb	sy
  401b62:	f3bf 8f6f 	isb	sy
  401b66:	e7dd      	b.n	401b24 <xQueueGenericSend+0xc4>
  401b68:	4b2e      	ldr	r3, [pc, #184]	; (401c24 <xQueueGenericSend+0x1c4>)
  401b6a:	4798      	blx	r3
  401b6c:	2000      	movs	r0, #0
  401b6e:	e7dc      	b.n	401b2a <xQueueGenericSend+0xca>
  401b70:	4620      	mov	r0, r4
  401b72:	4b2e      	ldr	r3, [pc, #184]	; (401c2c <xQueueGenericSend+0x1cc>)
  401b74:	4798      	blx	r3
  401b76:	4b2e      	ldr	r3, [pc, #184]	; (401c30 <xQueueGenericSend+0x1d0>)
  401b78:	4798      	blx	r3
  401b7a:	2701      	movs	r7, #1
  401b7c:	47b0      	blx	r6
  401b7e:	6ba2      	ldr	r2, [r4, #56]	; 0x38
  401b80:	6be3      	ldr	r3, [r4, #60]	; 0x3c
  401b82:	429a      	cmp	r2, r3
  401b84:	d3b9      	bcc.n	401afa <xQueueGenericSend+0x9a>
  401b86:	2d02      	cmp	r5, #2
  401b88:	d0b7      	beq.n	401afa <xQueueGenericSend+0x9a>
  401b8a:	9b01      	ldr	r3, [sp, #4]
  401b8c:	2b00      	cmp	r3, #0
  401b8e:	d0eb      	beq.n	401b68 <xQueueGenericSend+0x108>
  401b90:	b90f      	cbnz	r7, 401b96 <xQueueGenericSend+0x136>
  401b92:	a802      	add	r0, sp, #8
  401b94:	47d0      	blx	sl
  401b96:	4b23      	ldr	r3, [pc, #140]	; (401c24 <xQueueGenericSend+0x1c4>)
  401b98:	4798      	blx	r3
  401b9a:	4b26      	ldr	r3, [pc, #152]	; (401c34 <xQueueGenericSend+0x1d4>)
  401b9c:	4798      	blx	r3
  401b9e:	47b0      	blx	r6
  401ba0:	6c63      	ldr	r3, [r4, #68]	; 0x44
  401ba2:	f1b3 3fff 	cmp.w	r3, #4294967295
  401ba6:	d101      	bne.n	401bac <xQueueGenericSend+0x14c>
  401ba8:	2300      	movs	r3, #0
  401baa:	6463      	str	r3, [r4, #68]	; 0x44
  401bac:	6ca3      	ldr	r3, [r4, #72]	; 0x48
  401bae:	f1b3 3fff 	cmp.w	r3, #4294967295
  401bb2:	d101      	bne.n	401bb8 <xQueueGenericSend+0x158>
  401bb4:	2300      	movs	r3, #0
  401bb6:	64a3      	str	r3, [r4, #72]	; 0x48
  401bb8:	4b1a      	ldr	r3, [pc, #104]	; (401c24 <xQueueGenericSend+0x1c4>)
  401bba:	4798      	blx	r3
  401bbc:	a901      	add	r1, sp, #4
  401bbe:	a802      	add	r0, sp, #8
  401bc0:	4b1d      	ldr	r3, [pc, #116]	; (401c38 <xQueueGenericSend+0x1d8>)
  401bc2:	4798      	blx	r3
  401bc4:	b9e0      	cbnz	r0, 401c00 <xQueueGenericSend+0x1a0>
  401bc6:	47b0      	blx	r6
  401bc8:	f8d4 b038 	ldr.w	fp, [r4, #56]	; 0x38
  401bcc:	6be7      	ldr	r7, [r4, #60]	; 0x3c
  401bce:	4b15      	ldr	r3, [pc, #84]	; (401c24 <xQueueGenericSend+0x1c4>)
  401bd0:	4798      	blx	r3
  401bd2:	45bb      	cmp	fp, r7
  401bd4:	d1cc      	bne.n	401b70 <xQueueGenericSend+0x110>
  401bd6:	9901      	ldr	r1, [sp, #4]
  401bd8:	f104 0010 	add.w	r0, r4, #16
  401bdc:	4b17      	ldr	r3, [pc, #92]	; (401c3c <xQueueGenericSend+0x1dc>)
  401bde:	4798      	blx	r3
  401be0:	4620      	mov	r0, r4
  401be2:	4b12      	ldr	r3, [pc, #72]	; (401c2c <xQueueGenericSend+0x1cc>)
  401be4:	4798      	blx	r3
  401be6:	4b12      	ldr	r3, [pc, #72]	; (401c30 <xQueueGenericSend+0x1d0>)
  401be8:	4798      	blx	r3
  401bea:	2800      	cmp	r0, #0
  401bec:	d1c5      	bne.n	401b7a <xQueueGenericSend+0x11a>
  401bee:	f04f 5380 	mov.w	r3, #268435456	; 0x10000000
  401bf2:	f8c9 3000 	str.w	r3, [r9]
  401bf6:	f3bf 8f4f 	dsb	sy
  401bfa:	f3bf 8f6f 	isb	sy
  401bfe:	e7bc      	b.n	401b7a <xQueueGenericSend+0x11a>
  401c00:	4620      	mov	r0, r4
  401c02:	4b0a      	ldr	r3, [pc, #40]	; (401c2c <xQueueGenericSend+0x1cc>)
  401c04:	4798      	blx	r3
  401c06:	4b0a      	ldr	r3, [pc, #40]	; (401c30 <xQueueGenericSend+0x1d0>)
  401c08:	4798      	blx	r3
  401c0a:	2000      	movs	r0, #0
  401c0c:	e78d      	b.n	401b2a <xQueueGenericSend+0xca>
  401c0e:	bf00      	nop
  401c10:	00402ab1 	.word	0x00402ab1
  401c14:	004014c5 	.word	0x004014c5
  401c18:	00401775 	.word	0x00401775
  401c1c:	004017fd 	.word	0x004017fd
  401c20:	e000ed04 	.word	0xe000ed04
  401c24:	00401511 	.word	0x00401511
  401c28:	00402949 	.word	0x00402949
  401c2c:	004018ad 	.word	0x004018ad
  401c30:	0040252d 	.word	0x0040252d
  401c34:	004023c5 	.word	0x004023c5
  401c38:	00402a11 	.word	0x00402a11
  401c3c:	00402845 	.word	0x00402845
  401c40:	004029e1 	.word	0x004029e1

00401c44 <xQueueGenericSendFromISR>:
  401c44:	2800      	cmp	r0, #0
  401c46:	d036      	beq.n	401cb6 <xQueueGenericSendFromISR+0x72>
  401c48:	e92d 41f0 	stmdb	sp!, {r4, r5, r6, r7, r8, lr}
  401c4c:	4604      	mov	r4, r0
  401c4e:	2900      	cmp	r1, #0
  401c50:	d03c      	beq.n	401ccc <xQueueGenericSendFromISR+0x88>
  401c52:	2b02      	cmp	r3, #2
  401c54:	d048      	beq.n	401ce8 <xQueueGenericSendFromISR+0xa4>
  401c56:	461e      	mov	r6, r3
  401c58:	4615      	mov	r5, r2
  401c5a:	4688      	mov	r8, r1
  401c5c:	4b35      	ldr	r3, [pc, #212]	; (401d34 <xQueueGenericSendFromISR+0xf0>)
  401c5e:	4798      	blx	r3
  401c60:	f3ef 8711 	mrs	r7, BASEPRI
  401c64:	f04f 0380 	mov.w	r3, #128	; 0x80
  401c68:	b672      	cpsid	i
  401c6a:	f383 8811 	msr	BASEPRI, r3
  401c6e:	f3bf 8f6f 	isb	sy
  401c72:	f3bf 8f4f 	dsb	sy
  401c76:	b662      	cpsie	i
  401c78:	6ba2      	ldr	r2, [r4, #56]	; 0x38
  401c7a:	6be3      	ldr	r3, [r4, #60]	; 0x3c
  401c7c:	429a      	cmp	r2, r3
  401c7e:	d301      	bcc.n	401c84 <xQueueGenericSendFromISR+0x40>
  401c80:	2e02      	cmp	r6, #2
  401c82:	d14f      	bne.n	401d24 <xQueueGenericSendFromISR+0xe0>
  401c84:	4632      	mov	r2, r6
  401c86:	4641      	mov	r1, r8
  401c88:	4620      	mov	r0, r4
  401c8a:	4b2b      	ldr	r3, [pc, #172]	; (401d38 <xQueueGenericSendFromISR+0xf4>)
  401c8c:	4798      	blx	r3
  401c8e:	6ca3      	ldr	r3, [r4, #72]	; 0x48
  401c90:	f1b3 3fff 	cmp.w	r3, #4294967295
  401c94:	d141      	bne.n	401d1a <xQueueGenericSendFromISR+0xd6>
  401c96:	6d63      	ldr	r3, [r4, #84]	; 0x54
  401c98:	2b00      	cmp	r3, #0
  401c9a:	d033      	beq.n	401d04 <xQueueGenericSendFromISR+0xc0>
  401c9c:	4631      	mov	r1, r6
  401c9e:	4620      	mov	r0, r4
  401ca0:	4b26      	ldr	r3, [pc, #152]	; (401d3c <xQueueGenericSendFromISR+0xf8>)
  401ca2:	4798      	blx	r3
  401ca4:	2d00      	cmp	r5, #0
  401ca6:	d03f      	beq.n	401d28 <xQueueGenericSendFromISR+0xe4>
  401ca8:	2801      	cmp	r0, #1
  401caa:	d13d      	bne.n	401d28 <xQueueGenericSendFromISR+0xe4>
  401cac:	6028      	str	r0, [r5, #0]
  401cae:	f387 8811 	msr	BASEPRI, r7
  401cb2:	e8bd 81f0 	ldmia.w	sp!, {r4, r5, r6, r7, r8, pc}
  401cb6:	f04f 0380 	mov.w	r3, #128	; 0x80
  401cba:	b672      	cpsid	i
  401cbc:	f383 8811 	msr	BASEPRI, r3
  401cc0:	f3bf 8f6f 	isb	sy
  401cc4:	f3bf 8f4f 	dsb	sy
  401cc8:	b662      	cpsie	i
  401cca:	e7fe      	b.n	401cca <xQueueGenericSendFromISR+0x86>
  401ccc:	6c00      	ldr	r0, [r0, #64]	; 0x40
  401cce:	2800      	cmp	r0, #0
  401cd0:	d0bf      	beq.n	401c52 <xQueueGenericSendFromISR+0xe>
  401cd2:	f04f 0380 	mov.w	r3, #128	; 0x80
  401cd6:	b672      	cpsid	i
  401cd8:	f383 8811 	msr	BASEPRI, r3
  401cdc:	f3bf 8f6f 	isb	sy
  401ce0:	f3bf 8f4f 	dsb	sy
  401ce4:	b662      	cpsie	i
  401ce6:	e7fe      	b.n	401ce6 <xQueueGenericSendFromISR+0xa2>
  401ce8:	6be0      	ldr	r0, [r4, #60]	; 0x3c
  401cea:	2801      	cmp	r0, #1
  401cec:	d0b3      	beq.n	401c56 <xQueueGenericSendFromISR+0x12>
  401cee:	f04f 0380 	mov.w	r3, #128	; 0x80
  401cf2:	b672      	cpsid	i
  401cf4:	f383 8811 	msr	BASEPRI, r3
  401cf8:	f3bf 8f6f 	isb	sy
  401cfc:	f3bf 8f4f 	dsb	sy
  401d00:	b662      	cpsie	i
  401d02:	e7fe      	b.n	401d02 <xQueueGenericSendFromISR+0xbe>
  401d04:	6a63      	ldr	r3, [r4, #36]	; 0x24
  401d06:	b18b      	cbz	r3, 401d2c <xQueueGenericSendFromISR+0xe8>
  401d08:	f104 0024 	add.w	r0, r4, #36	; 0x24
  401d0c:	4b0c      	ldr	r3, [pc, #48]	; (401d40 <xQueueGenericSendFromISR+0xfc>)
  401d0e:	4798      	blx	r3
  401d10:	b175      	cbz	r5, 401d30 <xQueueGenericSendFromISR+0xec>
  401d12:	b168      	cbz	r0, 401d30 <xQueueGenericSendFromISR+0xec>
  401d14:	2001      	movs	r0, #1
  401d16:	6028      	str	r0, [r5, #0]
  401d18:	e7c9      	b.n	401cae <xQueueGenericSendFromISR+0x6a>
  401d1a:	6ca3      	ldr	r3, [r4, #72]	; 0x48
  401d1c:	3301      	adds	r3, #1
  401d1e:	64a3      	str	r3, [r4, #72]	; 0x48
  401d20:	2001      	movs	r0, #1
  401d22:	e7c4      	b.n	401cae <xQueueGenericSendFromISR+0x6a>
  401d24:	2000      	movs	r0, #0
  401d26:	e7c2      	b.n	401cae <xQueueGenericSendFromISR+0x6a>
  401d28:	2001      	movs	r0, #1
  401d2a:	e7c0      	b.n	401cae <xQueueGenericSendFromISR+0x6a>
  401d2c:	2001      	movs	r0, #1
  401d2e:	e7be      	b.n	401cae <xQueueGenericSendFromISR+0x6a>
  401d30:	2001      	movs	r0, #1
  401d32:	e7bc      	b.n	401cae <xQueueGenericSendFromISR+0x6a>
  401d34:	004016bd 	.word	0x004016bd
  401d38:	00401775 	.word	0x00401775
  401d3c:	004017fd 	.word	0x004017fd
  401d40:	00402949 	.word	0x00402949

00401d44 <xQueueGiveFromISR>:
  401d44:	b170      	cbz	r0, 401d64 <xQueueGiveFromISR+0x20>
  401d46:	b570      	push	{r4, r5, r6, lr}
  401d48:	4604      	mov	r4, r0
  401d4a:	6c03      	ldr	r3, [r0, #64]	; 0x40
  401d4c:	b1ab      	cbz	r3, 401d7a <xQueueGiveFromISR+0x36>
  401d4e:	f04f 0380 	mov.w	r3, #128	; 0x80
  401d52:	b672      	cpsid	i
  401d54:	f383 8811 	msr	BASEPRI, r3
  401d58:	f3bf 8f6f 	isb	sy
  401d5c:	f3bf 8f4f 	dsb	sy
  401d60:	b662      	cpsie	i
  401d62:	e7fe      	b.n	401d62 <xQueueGiveFromISR+0x1e>
  401d64:	f04f 0380 	mov.w	r3, #128	; 0x80
  401d68:	b672      	cpsid	i
  401d6a:	f383 8811 	msr	BASEPRI, r3
  401d6e:	f3bf 8f6f 	isb	sy
  401d72:	f3bf 8f4f 	dsb	sy
  401d76:	b662      	cpsie	i
  401d78:	e7fe      	b.n	401d78 <xQueueGiveFromISR+0x34>
  401d7a:	6803      	ldr	r3, [r0, #0]
  401d7c:	b333      	cbz	r3, 401dcc <xQueueGiveFromISR+0x88>
  401d7e:	460d      	mov	r5, r1
  401d80:	4b25      	ldr	r3, [pc, #148]	; (401e18 <xQueueGiveFromISR+0xd4>)
  401d82:	4798      	blx	r3
  401d84:	f3ef 8611 	mrs	r6, BASEPRI
  401d88:	f04f 0380 	mov.w	r3, #128	; 0x80
  401d8c:	b672      	cpsid	i
  401d8e:	f383 8811 	msr	BASEPRI, r3
  401d92:	f3bf 8f6f 	isb	sy
  401d96:	f3bf 8f4f 	dsb	sy
  401d9a:	b662      	cpsie	i
  401d9c:	6ba2      	ldr	r2, [r4, #56]	; 0x38
  401d9e:	6be3      	ldr	r3, [r4, #60]	; 0x3c
  401da0:	429a      	cmp	r2, r3
  401da2:	d231      	bcs.n	401e08 <xQueueGiveFromISR+0xc4>
  401da4:	6ba3      	ldr	r3, [r4, #56]	; 0x38
  401da6:	3301      	adds	r3, #1
  401da8:	63a3      	str	r3, [r4, #56]	; 0x38
  401daa:	6ca3      	ldr	r3, [r4, #72]	; 0x48
  401dac:	f1b3 3fff 	cmp.w	r3, #4294967295
  401db0:	d125      	bne.n	401dfe <xQueueGiveFromISR+0xba>
  401db2:	6d63      	ldr	r3, [r4, #84]	; 0x54
  401db4:	b1c3      	cbz	r3, 401de8 <xQueueGiveFromISR+0xa4>
  401db6:	2100      	movs	r1, #0
  401db8:	4620      	mov	r0, r4
  401dba:	4b18      	ldr	r3, [pc, #96]	; (401e1c <xQueueGiveFromISR+0xd8>)
  401dbc:	4798      	blx	r3
  401dbe:	b32d      	cbz	r5, 401e0c <xQueueGiveFromISR+0xc8>
  401dc0:	2801      	cmp	r0, #1
  401dc2:	d123      	bne.n	401e0c <xQueueGiveFromISR+0xc8>
  401dc4:	6028      	str	r0, [r5, #0]
  401dc6:	f386 8811 	msr	BASEPRI, r6
  401dca:	bd70      	pop	{r4, r5, r6, pc}
  401dcc:	6843      	ldr	r3, [r0, #4]
  401dce:	2b00      	cmp	r3, #0
  401dd0:	d0d5      	beq.n	401d7e <xQueueGiveFromISR+0x3a>
  401dd2:	f04f 0380 	mov.w	r3, #128	; 0x80
  401dd6:	b672      	cpsid	i
  401dd8:	f383 8811 	msr	BASEPRI, r3
  401ddc:	f3bf 8f6f 	isb	sy
  401de0:	f3bf 8f4f 	dsb	sy
  401de4:	b662      	cpsie	i
  401de6:	e7fe      	b.n	401de6 <xQueueGiveFromISR+0xa2>
  401de8:	6a63      	ldr	r3, [r4, #36]	; 0x24
  401dea:	b18b      	cbz	r3, 401e10 <xQueueGiveFromISR+0xcc>
  401dec:	f104 0024 	add.w	r0, r4, #36	; 0x24
  401df0:	4b0b      	ldr	r3, [pc, #44]	; (401e20 <xQueueGiveFromISR+0xdc>)
  401df2:	4798      	blx	r3
  401df4:	b175      	cbz	r5, 401e14 <xQueueGiveFromISR+0xd0>
  401df6:	b168      	cbz	r0, 401e14 <xQueueGiveFromISR+0xd0>
  401df8:	2001      	movs	r0, #1
  401dfa:	6028      	str	r0, [r5, #0]
  401dfc:	e7e3      	b.n	401dc6 <xQueueGiveFromISR+0x82>
  401dfe:	6ca3      	ldr	r3, [r4, #72]	; 0x48
  401e00:	3301      	adds	r3, #1
  401e02:	64a3      	str	r3, [r4, #72]	; 0x48
  401e04:	2001      	movs	r0, #1
  401e06:	e7de      	b.n	401dc6 <xQueueGiveFromISR+0x82>
  401e08:	2000      	movs	r0, #0
  401e0a:	e7dc      	b.n	401dc6 <xQueueGiveFromISR+0x82>
  401e0c:	2001      	movs	r0, #1
  401e0e:	e7da      	b.n	401dc6 <xQueueGiveFromISR+0x82>
  401e10:	2001      	movs	r0, #1
  401e12:	e7d8      	b.n	401dc6 <xQueueGiveFromISR+0x82>
  401e14:	2001      	movs	r0, #1
  401e16:	e7d6      	b.n	401dc6 <xQueueGiveFromISR+0x82>
  401e18:	004016bd 	.word	0x004016bd
  401e1c:	004017fd 	.word	0x004017fd
  401e20:	00402949 	.word	0x00402949

00401e24 <xQueueGenericReceive>:
  401e24:	e92d 47f0 	stmdb	sp!, {r4, r5, r6, r7, r8, r9, sl, lr}
  401e28:	b084      	sub	sp, #16
  401e2a:	9201      	str	r2, [sp, #4]
  401e2c:	b198      	cbz	r0, 401e56 <xQueueGenericReceive+0x32>
  401e2e:	4604      	mov	r4, r0
  401e30:	b1e1      	cbz	r1, 401e6c <xQueueGenericReceive+0x48>
  401e32:	4698      	mov	r8, r3
  401e34:	460f      	mov	r7, r1
  401e36:	4b61      	ldr	r3, [pc, #388]	; (401fbc <xQueueGenericReceive+0x198>)
  401e38:	4798      	blx	r3
  401e3a:	bb28      	cbnz	r0, 401e88 <xQueueGenericReceive+0x64>
  401e3c:	9b01      	ldr	r3, [sp, #4]
  401e3e:	b353      	cbz	r3, 401e96 <xQueueGenericReceive+0x72>
  401e40:	f04f 0380 	mov.w	r3, #128	; 0x80
  401e44:	b672      	cpsid	i
  401e46:	f383 8811 	msr	BASEPRI, r3
  401e4a:	f3bf 8f6f 	isb	sy
  401e4e:	f3bf 8f4f 	dsb	sy
  401e52:	b662      	cpsie	i
  401e54:	e7fe      	b.n	401e54 <xQueueGenericReceive+0x30>
  401e56:	f04f 0380 	mov.w	r3, #128	; 0x80
  401e5a:	b672      	cpsid	i
  401e5c:	f383 8811 	msr	BASEPRI, r3
  401e60:	f3bf 8f6f 	isb	sy
  401e64:	f3bf 8f4f 	dsb	sy
  401e68:	b662      	cpsie	i
  401e6a:	e7fe      	b.n	401e6a <xQueueGenericReceive+0x46>
  401e6c:	6c02      	ldr	r2, [r0, #64]	; 0x40
  401e6e:	2a00      	cmp	r2, #0
  401e70:	d0df      	beq.n	401e32 <xQueueGenericReceive+0xe>
  401e72:	f04f 0380 	mov.w	r3, #128	; 0x80
  401e76:	b672      	cpsid	i
  401e78:	f383 8811 	msr	BASEPRI, r3
  401e7c:	f3bf 8f6f 	isb	sy
  401e80:	f3bf 8f4f 	dsb	sy
  401e84:	b662      	cpsie	i
  401e86:	e7fe      	b.n	401e86 <xQueueGenericReceive+0x62>
  401e88:	2600      	movs	r6, #0
  401e8a:	4d4d      	ldr	r5, [pc, #308]	; (401fc0 <xQueueGenericReceive+0x19c>)
  401e8c:	f8df a160 	ldr.w	sl, [pc, #352]	; 401ff0 <xQueueGenericReceive+0x1cc>
  401e90:	f8df 913c 	ldr.w	r9, [pc, #316]	; 401fd0 <xQueueGenericReceive+0x1ac>
  401e94:	e04b      	b.n	401f2e <xQueueGenericReceive+0x10a>
  401e96:	2600      	movs	r6, #0
  401e98:	e7f7      	b.n	401e8a <xQueueGenericReceive+0x66>
  401e9a:	68e5      	ldr	r5, [r4, #12]
  401e9c:	4639      	mov	r1, r7
  401e9e:	4620      	mov	r0, r4
  401ea0:	4b48      	ldr	r3, [pc, #288]	; (401fc4 <xQueueGenericReceive+0x1a0>)
  401ea2:	4798      	blx	r3
  401ea4:	f1b8 0f00 	cmp.w	r8, #0
  401ea8:	d11d      	bne.n	401ee6 <xQueueGenericReceive+0xc2>
  401eaa:	6ba3      	ldr	r3, [r4, #56]	; 0x38
  401eac:	3b01      	subs	r3, #1
  401eae:	63a3      	str	r3, [r4, #56]	; 0x38
  401eb0:	6823      	ldr	r3, [r4, #0]
  401eb2:	b913      	cbnz	r3, 401eba <xQueueGenericReceive+0x96>
  401eb4:	4b44      	ldr	r3, [pc, #272]	; (401fc8 <xQueueGenericReceive+0x1a4>)
  401eb6:	4798      	blx	r3
  401eb8:	6060      	str	r0, [r4, #4]
  401eba:	6923      	ldr	r3, [r4, #16]
  401ebc:	b16b      	cbz	r3, 401eda <xQueueGenericReceive+0xb6>
  401ebe:	f104 0010 	add.w	r0, r4, #16
  401ec2:	4b42      	ldr	r3, [pc, #264]	; (401fcc <xQueueGenericReceive+0x1a8>)
  401ec4:	4798      	blx	r3
  401ec6:	2801      	cmp	r0, #1
  401ec8:	d107      	bne.n	401eda <xQueueGenericReceive+0xb6>
  401eca:	f04f 5280 	mov.w	r2, #268435456	; 0x10000000
  401ece:	4b40      	ldr	r3, [pc, #256]	; (401fd0 <xQueueGenericReceive+0x1ac>)
  401ed0:	601a      	str	r2, [r3, #0]
  401ed2:	f3bf 8f4f 	dsb	sy
  401ed6:	f3bf 8f6f 	isb	sy
  401eda:	4b3e      	ldr	r3, [pc, #248]	; (401fd4 <xQueueGenericReceive+0x1b0>)
  401edc:	4798      	blx	r3
  401ede:	2001      	movs	r0, #1
  401ee0:	b004      	add	sp, #16
  401ee2:	e8bd 87f0 	ldmia.w	sp!, {r4, r5, r6, r7, r8, r9, sl, pc}
  401ee6:	60e5      	str	r5, [r4, #12]
  401ee8:	6a63      	ldr	r3, [r4, #36]	; 0x24
  401eea:	2b00      	cmp	r3, #0
  401eec:	d0f5      	beq.n	401eda <xQueueGenericReceive+0xb6>
  401eee:	f104 0024 	add.w	r0, r4, #36	; 0x24
  401ef2:	4b36      	ldr	r3, [pc, #216]	; (401fcc <xQueueGenericReceive+0x1a8>)
  401ef4:	4798      	blx	r3
  401ef6:	2800      	cmp	r0, #0
  401ef8:	d0ef      	beq.n	401eda <xQueueGenericReceive+0xb6>
  401efa:	f04f 5280 	mov.w	r2, #268435456	; 0x10000000
  401efe:	4b34      	ldr	r3, [pc, #208]	; (401fd0 <xQueueGenericReceive+0x1ac>)
  401f00:	601a      	str	r2, [r3, #0]
  401f02:	f3bf 8f4f 	dsb	sy
  401f06:	f3bf 8f6f 	isb	sy
  401f0a:	e7e6      	b.n	401eda <xQueueGenericReceive+0xb6>
  401f0c:	4b31      	ldr	r3, [pc, #196]	; (401fd4 <xQueueGenericReceive+0x1b0>)
  401f0e:	4798      	blx	r3
  401f10:	2000      	movs	r0, #0
  401f12:	e7e5      	b.n	401ee0 <xQueueGenericReceive+0xbc>
  401f14:	47a8      	blx	r5
  401f16:	6860      	ldr	r0, [r4, #4]
  401f18:	4b2f      	ldr	r3, [pc, #188]	; (401fd8 <xQueueGenericReceive+0x1b4>)
  401f1a:	4798      	blx	r3
  401f1c:	4b2d      	ldr	r3, [pc, #180]	; (401fd4 <xQueueGenericReceive+0x1b0>)
  401f1e:	4798      	blx	r3
  401f20:	e030      	b.n	401f84 <xQueueGenericReceive+0x160>
  401f22:	4620      	mov	r0, r4
  401f24:	4b2d      	ldr	r3, [pc, #180]	; (401fdc <xQueueGenericReceive+0x1b8>)
  401f26:	4798      	blx	r3
  401f28:	4b2d      	ldr	r3, [pc, #180]	; (401fe0 <xQueueGenericReceive+0x1bc>)
  401f2a:	4798      	blx	r3
  401f2c:	2601      	movs	r6, #1
  401f2e:	47a8      	blx	r5
  401f30:	6ba3      	ldr	r3, [r4, #56]	; 0x38
  401f32:	2b00      	cmp	r3, #0
  401f34:	d1b1      	bne.n	401e9a <xQueueGenericReceive+0x76>
  401f36:	9b01      	ldr	r3, [sp, #4]
  401f38:	2b00      	cmp	r3, #0
  401f3a:	d0e7      	beq.n	401f0c <xQueueGenericReceive+0xe8>
  401f3c:	b90e      	cbnz	r6, 401f42 <xQueueGenericReceive+0x11e>
  401f3e:	a802      	add	r0, sp, #8
  401f40:	47d0      	blx	sl
  401f42:	4b24      	ldr	r3, [pc, #144]	; (401fd4 <xQueueGenericReceive+0x1b0>)
  401f44:	4798      	blx	r3
  401f46:	4b27      	ldr	r3, [pc, #156]	; (401fe4 <xQueueGenericReceive+0x1c0>)
  401f48:	4798      	blx	r3
  401f4a:	47a8      	blx	r5
  401f4c:	6c63      	ldr	r3, [r4, #68]	; 0x44
  401f4e:	f1b3 3fff 	cmp.w	r3, #4294967295
  401f52:	d101      	bne.n	401f58 <xQueueGenericReceive+0x134>
  401f54:	2300      	movs	r3, #0
  401f56:	6463      	str	r3, [r4, #68]	; 0x44
  401f58:	6ca3      	ldr	r3, [r4, #72]	; 0x48
  401f5a:	f1b3 3fff 	cmp.w	r3, #4294967295
  401f5e:	d101      	bne.n	401f64 <xQueueGenericReceive+0x140>
  401f60:	2300      	movs	r3, #0
  401f62:	64a3      	str	r3, [r4, #72]	; 0x48
  401f64:	4b1b      	ldr	r3, [pc, #108]	; (401fd4 <xQueueGenericReceive+0x1b0>)
  401f66:	4798      	blx	r3
  401f68:	a901      	add	r1, sp, #4
  401f6a:	a802      	add	r0, sp, #8
  401f6c:	4b1e      	ldr	r3, [pc, #120]	; (401fe8 <xQueueGenericReceive+0x1c4>)
  401f6e:	4798      	blx	r3
  401f70:	b9e8      	cbnz	r0, 401fae <xQueueGenericReceive+0x18a>
  401f72:	47a8      	blx	r5
  401f74:	6ba6      	ldr	r6, [r4, #56]	; 0x38
  401f76:	4b17      	ldr	r3, [pc, #92]	; (401fd4 <xQueueGenericReceive+0x1b0>)
  401f78:	4798      	blx	r3
  401f7a:	2e00      	cmp	r6, #0
  401f7c:	d1d1      	bne.n	401f22 <xQueueGenericReceive+0xfe>
  401f7e:	6823      	ldr	r3, [r4, #0]
  401f80:	2b00      	cmp	r3, #0
  401f82:	d0c7      	beq.n	401f14 <xQueueGenericReceive+0xf0>
  401f84:	9901      	ldr	r1, [sp, #4]
  401f86:	f104 0024 	add.w	r0, r4, #36	; 0x24
  401f8a:	4b18      	ldr	r3, [pc, #96]	; (401fec <xQueueGenericReceive+0x1c8>)
  401f8c:	4798      	blx	r3
  401f8e:	4620      	mov	r0, r4
  401f90:	4b12      	ldr	r3, [pc, #72]	; (401fdc <xQueueGenericReceive+0x1b8>)
  401f92:	4798      	blx	r3
  401f94:	4b12      	ldr	r3, [pc, #72]	; (401fe0 <xQueueGenericReceive+0x1bc>)
  401f96:	4798      	blx	r3
  401f98:	2800      	cmp	r0, #0
  401f9a:	d1c7      	bne.n	401f2c <xQueueGenericReceive+0x108>
  401f9c:	f04f 5380 	mov.w	r3, #268435456	; 0x10000000
  401fa0:	f8c9 3000 	str.w	r3, [r9]
  401fa4:	f3bf 8f4f 	dsb	sy
  401fa8:	f3bf 8f6f 	isb	sy
  401fac:	e7be      	b.n	401f2c <xQueueGenericReceive+0x108>
  401fae:	4620      	mov	r0, r4
  401fb0:	4b0a      	ldr	r3, [pc, #40]	; (401fdc <xQueueGenericReceive+0x1b8>)
  401fb2:	4798      	blx	r3
  401fb4:	4b0a      	ldr	r3, [pc, #40]	; (401fe0 <xQueueGenericReceive+0x1bc>)
  401fb6:	4798      	blx	r3
  401fb8:	2000      	movs	r0, #0
  401fba:	e791      	b.n	401ee0 <xQueueGenericReceive+0xbc>
  401fbc:	00402ab1 	.word	0x00402ab1
  401fc0:	004014c5 	.word	0x004014c5
  401fc4:	00401885 	.word	0x00401885
  401fc8:	00402c31 	.word	0x00402c31
  401fcc:	00402949 	.word	0x00402949
  401fd0:	e000ed04 	.word	0xe000ed04
  401fd4:	00401511 	.word	0x00401511
  401fd8:	00402ad1 	.word	0x00402ad1
  401fdc:	004018ad 	.word	0x004018ad
  401fe0:	0040252d 	.word	0x0040252d
  401fe4:	004023c5 	.word	0x004023c5
  401fe8:	00402a11 	.word	0x00402a11
  401fec:	00402845 	.word	0x00402845
  401ff0:	004029e1 	.word	0x004029e1

00401ff4 <vQueueAddToRegistry>:
  401ff4:	b410      	push	{r4}
  401ff6:	4b0b      	ldr	r3, [pc, #44]	; (402024 <vQueueAddToRegistry+0x30>)
  401ff8:	681b      	ldr	r3, [r3, #0]
  401ffa:	b153      	cbz	r3, 402012 <vQueueAddToRegistry+0x1e>
  401ffc:	2301      	movs	r3, #1
  401ffe:	4c09      	ldr	r4, [pc, #36]	; (402024 <vQueueAddToRegistry+0x30>)
  402000:	f854 2033 	ldr.w	r2, [r4, r3, lsl #3]
  402004:	b132      	cbz	r2, 402014 <vQueueAddToRegistry+0x20>
  402006:	3301      	adds	r3, #1
  402008:	2b08      	cmp	r3, #8
  40200a:	d1f9      	bne.n	402000 <vQueueAddToRegistry+0xc>
  40200c:	f85d 4b04 	ldr.w	r4, [sp], #4
  402010:	4770      	bx	lr
  402012:	2300      	movs	r3, #0
  402014:	4a03      	ldr	r2, [pc, #12]	; (402024 <vQueueAddToRegistry+0x30>)
  402016:	f842 1033 	str.w	r1, [r2, r3, lsl #3]
  40201a:	eb02 03c3 	add.w	r3, r2, r3, lsl #3
  40201e:	6058      	str	r0, [r3, #4]
  402020:	e7f4      	b.n	40200c <vQueueAddToRegistry+0x18>
  402022:	bf00      	nop
  402024:	20400de0 	.word	0x20400de0

00402028 <vQueueWaitForMessageRestricted>:
  402028:	b570      	push	{r4, r5, r6, lr}
  40202a:	4604      	mov	r4, r0
  40202c:	460d      	mov	r5, r1
  40202e:	4616      	mov	r6, r2
  402030:	4b0f      	ldr	r3, [pc, #60]	; (402070 <vQueueWaitForMessageRestricted+0x48>)
  402032:	4798      	blx	r3
  402034:	6c63      	ldr	r3, [r4, #68]	; 0x44
  402036:	f1b3 3fff 	cmp.w	r3, #4294967295
  40203a:	d00b      	beq.n	402054 <vQueueWaitForMessageRestricted+0x2c>
  40203c:	6ca3      	ldr	r3, [r4, #72]	; 0x48
  40203e:	f1b3 3fff 	cmp.w	r3, #4294967295
  402042:	d00a      	beq.n	40205a <vQueueWaitForMessageRestricted+0x32>
  402044:	4b0b      	ldr	r3, [pc, #44]	; (402074 <vQueueWaitForMessageRestricted+0x4c>)
  402046:	4798      	blx	r3
  402048:	6ba3      	ldr	r3, [r4, #56]	; 0x38
  40204a:	b14b      	cbz	r3, 402060 <vQueueWaitForMessageRestricted+0x38>
  40204c:	4620      	mov	r0, r4
  40204e:	4b0a      	ldr	r3, [pc, #40]	; (402078 <vQueueWaitForMessageRestricted+0x50>)
  402050:	4798      	blx	r3
  402052:	bd70      	pop	{r4, r5, r6, pc}
  402054:	2300      	movs	r3, #0
  402056:	6463      	str	r3, [r4, #68]	; 0x44
  402058:	e7f0      	b.n	40203c <vQueueWaitForMessageRestricted+0x14>
  40205a:	2300      	movs	r3, #0
  40205c:	64a3      	str	r3, [r4, #72]	; 0x48
  40205e:	e7f1      	b.n	402044 <vQueueWaitForMessageRestricted+0x1c>
  402060:	4632      	mov	r2, r6
  402062:	4629      	mov	r1, r5
  402064:	f104 0024 	add.w	r0, r4, #36	; 0x24
  402068:	4b04      	ldr	r3, [pc, #16]	; (40207c <vQueueWaitForMessageRestricted+0x54>)
  40206a:	4798      	blx	r3
  40206c:	e7ee      	b.n	40204c <vQueueWaitForMessageRestricted+0x24>
  40206e:	bf00      	nop
  402070:	004014c5 	.word	0x004014c5
  402074:	00401511 	.word	0x00401511
  402078:	004018ad 	.word	0x004018ad
  40207c:	004028c9 	.word	0x004028c9

00402080 <prvResetNextTaskUnblockTime>:
  402080:	4b08      	ldr	r3, [pc, #32]	; (4020a4 <prvResetNextTaskUnblockTime+0x24>)
  402082:	681b      	ldr	r3, [r3, #0]
  402084:	681b      	ldr	r3, [r3, #0]
  402086:	b13b      	cbz	r3, 402098 <prvResetNextTaskUnblockTime+0x18>
  402088:	4b06      	ldr	r3, [pc, #24]	; (4020a4 <prvResetNextTaskUnblockTime+0x24>)
  40208a:	681b      	ldr	r3, [r3, #0]
  40208c:	68db      	ldr	r3, [r3, #12]
  40208e:	68db      	ldr	r3, [r3, #12]
  402090:	685a      	ldr	r2, [r3, #4]
  402092:	4b05      	ldr	r3, [pc, #20]	; (4020a8 <prvResetNextTaskUnblockTime+0x28>)
  402094:	601a      	str	r2, [r3, #0]
  402096:	4770      	bx	lr
  402098:	f04f 32ff 	mov.w	r2, #4294967295
  40209c:	4b02      	ldr	r3, [pc, #8]	; (4020a8 <prvResetNextTaskUnblockTime+0x28>)
  40209e:	601a      	str	r2, [r3, #0]
  4020a0:	4770      	bx	lr
  4020a2:	bf00      	nop
  4020a4:	20400c68 	.word	0x20400c68
  4020a8:	20400d14 	.word	0x20400d14

004020ac <prvAddCurrentTaskToDelayedList>:
  4020ac:	b510      	push	{r4, lr}
  4020ae:	4b0f      	ldr	r3, [pc, #60]	; (4020ec <prvAddCurrentTaskToDelayedList+0x40>)
  4020b0:	681b      	ldr	r3, [r3, #0]
  4020b2:	6058      	str	r0, [r3, #4]
  4020b4:	4b0e      	ldr	r3, [pc, #56]	; (4020f0 <prvAddCurrentTaskToDelayedList+0x44>)
  4020b6:	681b      	ldr	r3, [r3, #0]
  4020b8:	4298      	cmp	r0, r3
  4020ba:	d30e      	bcc.n	4020da <prvAddCurrentTaskToDelayedList+0x2e>
  4020bc:	4604      	mov	r4, r0
  4020be:	4b0d      	ldr	r3, [pc, #52]	; (4020f4 <prvAddCurrentTaskToDelayedList+0x48>)
  4020c0:	6818      	ldr	r0, [r3, #0]
  4020c2:	4b0a      	ldr	r3, [pc, #40]	; (4020ec <prvAddCurrentTaskToDelayedList+0x40>)
  4020c4:	6819      	ldr	r1, [r3, #0]
  4020c6:	3104      	adds	r1, #4
  4020c8:	4b0b      	ldr	r3, [pc, #44]	; (4020f8 <prvAddCurrentTaskToDelayedList+0x4c>)
  4020ca:	4798      	blx	r3
  4020cc:	4b0b      	ldr	r3, [pc, #44]	; (4020fc <prvAddCurrentTaskToDelayedList+0x50>)
  4020ce:	681b      	ldr	r3, [r3, #0]
  4020d0:	429c      	cmp	r4, r3
  4020d2:	d201      	bcs.n	4020d8 <prvAddCurrentTaskToDelayedList+0x2c>
  4020d4:	4b09      	ldr	r3, [pc, #36]	; (4020fc <prvAddCurrentTaskToDelayedList+0x50>)
  4020d6:	601c      	str	r4, [r3, #0]
  4020d8:	bd10      	pop	{r4, pc}
  4020da:	4b09      	ldr	r3, [pc, #36]	; (402100 <prvAddCurrentTaskToDelayedList+0x54>)
  4020dc:	6818      	ldr	r0, [r3, #0]
  4020de:	4b03      	ldr	r3, [pc, #12]	; (4020ec <prvAddCurrentTaskToDelayedList+0x40>)
  4020e0:	6819      	ldr	r1, [r3, #0]
  4020e2:	3104      	adds	r1, #4
  4020e4:	4b04      	ldr	r3, [pc, #16]	; (4020f8 <prvAddCurrentTaskToDelayedList+0x4c>)
  4020e6:	4798      	blx	r3
  4020e8:	bd10      	pop	{r4, pc}
  4020ea:	bf00      	nop
  4020ec:	20400c64 	.word	0x20400c64
  4020f0:	20400d5c 	.word	0x20400d5c
  4020f4:	20400c68 	.word	0x20400c68
  4020f8:	004013ad 	.word	0x004013ad
  4020fc:	20400d14 	.word	0x20400d14
  402100:	20400c6c 	.word	0x20400c6c

00402104 <xTaskGenericCreate>:
  402104:	e92d 4ff0 	stmdb	sp!, {r4, r5, r6, r7, r8, r9, sl, fp, lr}
  402108:	b083      	sub	sp, #12
  40210a:	9d0c      	ldr	r5, [sp, #48]	; 0x30
  40210c:	f8dd a034 	ldr.w	sl, [sp, #52]	; 0x34
  402110:	9e0e      	ldr	r6, [sp, #56]	; 0x38
  402112:	b160      	cbz	r0, 40212e <xTaskGenericCreate+0x2a>
  402114:	2d04      	cmp	r5, #4
  402116:	d915      	bls.n	402144 <xTaskGenericCreate+0x40>
  402118:	f04f 0380 	mov.w	r3, #128	; 0x80
  40211c:	b672      	cpsid	i
  40211e:	f383 8811 	msr	BASEPRI, r3
  402122:	f3bf 8f6f 	isb	sy
  402126:	f3bf 8f4f 	dsb	sy
  40212a:	b662      	cpsie	i
  40212c:	e7fe      	b.n	40212c <xTaskGenericCreate+0x28>
  40212e:	f04f 0380 	mov.w	r3, #128	; 0x80
  402132:	b672      	cpsid	i
  402134:	f383 8811 	msr	BASEPRI, r3
  402138:	f3bf 8f6f 	isb	sy
  40213c:	f3bf 8f4f 	dsb	sy
  402140:	b662      	cpsie	i
  402142:	e7fe      	b.n	402142 <xTaskGenericCreate+0x3e>
  402144:	9001      	str	r0, [sp, #4]
  402146:	4698      	mov	r8, r3
  402148:	4691      	mov	r9, r2
  40214a:	460f      	mov	r7, r1
  40214c:	b936      	cbnz	r6, 40215c <xTaskGenericCreate+0x58>
  40214e:	0090      	lsls	r0, r2, #2
  402150:	4b62      	ldr	r3, [pc, #392]	; (4022dc <xTaskGenericCreate+0x1d8>)
  402152:	4798      	blx	r3
  402154:	4606      	mov	r6, r0
  402156:	2800      	cmp	r0, #0
  402158:	f000 809e 	beq.w	402298 <xTaskGenericCreate+0x194>
  40215c:	2058      	movs	r0, #88	; 0x58
  40215e:	4b5f      	ldr	r3, [pc, #380]	; (4022dc <xTaskGenericCreate+0x1d8>)
  402160:	4798      	blx	r3
  402162:	4604      	mov	r4, r0
  402164:	2800      	cmp	r0, #0
  402166:	f000 8094 	beq.w	402292 <xTaskGenericCreate+0x18e>
  40216a:	6306      	str	r6, [r0, #48]	; 0x30
  40216c:	ea4f 0289 	mov.w	r2, r9, lsl #2
  402170:	21a5      	movs	r1, #165	; 0xa5
  402172:	4630      	mov	r0, r6
  402174:	4b5a      	ldr	r3, [pc, #360]	; (4022e0 <xTaskGenericCreate+0x1dc>)
  402176:	4798      	blx	r3
  402178:	f06f 4640 	mvn.w	r6, #3221225472	; 0xc0000000
  40217c:	444e      	add	r6, r9
  40217e:	6b23      	ldr	r3, [r4, #48]	; 0x30
  402180:	eb03 0386 	add.w	r3, r3, r6, lsl #2
  402184:	f023 0607 	bic.w	r6, r3, #7
  402188:	783b      	ldrb	r3, [r7, #0]
  40218a:	f884 3034 	strb.w	r3, [r4, #52]	; 0x34
  40218e:	783b      	ldrb	r3, [r7, #0]
  402190:	2b00      	cmp	r3, #0
  402192:	f040 8084 	bne.w	40229e <xTaskGenericCreate+0x19a>
  402196:	2700      	movs	r7, #0
  402198:	f884 703d 	strb.w	r7, [r4, #61]	; 0x3d
  40219c:	62e5      	str	r5, [r4, #44]	; 0x2c
  40219e:	64a5      	str	r5, [r4, #72]	; 0x48
  4021a0:	64e7      	str	r7, [r4, #76]	; 0x4c
  4021a2:	f104 0904 	add.w	r9, r4, #4
  4021a6:	4648      	mov	r0, r9
  4021a8:	f8df b184 	ldr.w	fp, [pc, #388]	; 402330 <xTaskGenericCreate+0x22c>
  4021ac:	47d8      	blx	fp
  4021ae:	f104 0018 	add.w	r0, r4, #24
  4021b2:	47d8      	blx	fp
  4021b4:	6124      	str	r4, [r4, #16]
  4021b6:	f1c5 0305 	rsb	r3, r5, #5
  4021ba:	61a3      	str	r3, [r4, #24]
  4021bc:	6264      	str	r4, [r4, #36]	; 0x24
  4021be:	6527      	str	r7, [r4, #80]	; 0x50
  4021c0:	f884 7054 	strb.w	r7, [r4, #84]	; 0x54
  4021c4:	4642      	mov	r2, r8
  4021c6:	9901      	ldr	r1, [sp, #4]
  4021c8:	4630      	mov	r0, r6
  4021ca:	4b46      	ldr	r3, [pc, #280]	; (4022e4 <xTaskGenericCreate+0x1e0>)
  4021cc:	4798      	blx	r3
  4021ce:	6020      	str	r0, [r4, #0]
  4021d0:	f1ba 0f00 	cmp.w	sl, #0
  4021d4:	d001      	beq.n	4021da <xTaskGenericCreate+0xd6>
  4021d6:	f8ca 4000 	str.w	r4, [sl]
  4021da:	4b43      	ldr	r3, [pc, #268]	; (4022e8 <xTaskGenericCreate+0x1e4>)
  4021dc:	4798      	blx	r3
  4021de:	4a43      	ldr	r2, [pc, #268]	; (4022ec <xTaskGenericCreate+0x1e8>)
  4021e0:	6813      	ldr	r3, [r2, #0]
  4021e2:	3301      	adds	r3, #1
  4021e4:	6013      	str	r3, [r2, #0]
  4021e6:	4b42      	ldr	r3, [pc, #264]	; (4022f0 <xTaskGenericCreate+0x1ec>)
  4021e8:	681b      	ldr	r3, [r3, #0]
  4021ea:	2b00      	cmp	r3, #0
  4021ec:	d166      	bne.n	4022bc <xTaskGenericCreate+0x1b8>
  4021ee:	4b40      	ldr	r3, [pc, #256]	; (4022f0 <xTaskGenericCreate+0x1ec>)
  4021f0:	601c      	str	r4, [r3, #0]
  4021f2:	6813      	ldr	r3, [r2, #0]
  4021f4:	2b01      	cmp	r3, #1
  4021f6:	d121      	bne.n	40223c <xTaskGenericCreate+0x138>
  4021f8:	4f3e      	ldr	r7, [pc, #248]	; (4022f4 <xTaskGenericCreate+0x1f0>)
  4021fa:	4638      	mov	r0, r7
  4021fc:	4e3e      	ldr	r6, [pc, #248]	; (4022f8 <xTaskGenericCreate+0x1f4>)
  4021fe:	47b0      	blx	r6
  402200:	f107 0014 	add.w	r0, r7, #20
  402204:	47b0      	blx	r6
  402206:	f107 0028 	add.w	r0, r7, #40	; 0x28
  40220a:	47b0      	blx	r6
  40220c:	f107 003c 	add.w	r0, r7, #60	; 0x3c
  402210:	47b0      	blx	r6
  402212:	f107 0050 	add.w	r0, r7, #80	; 0x50
  402216:	47b0      	blx	r6
  402218:	f8df 8118 	ldr.w	r8, [pc, #280]	; 402334 <xTaskGenericCreate+0x230>
  40221c:	4640      	mov	r0, r8
  40221e:	47b0      	blx	r6
  402220:	4f36      	ldr	r7, [pc, #216]	; (4022fc <xTaskGenericCreate+0x1f8>)
  402222:	4638      	mov	r0, r7
  402224:	47b0      	blx	r6
  402226:	4836      	ldr	r0, [pc, #216]	; (402300 <xTaskGenericCreate+0x1fc>)
  402228:	47b0      	blx	r6
  40222a:	4836      	ldr	r0, [pc, #216]	; (402304 <xTaskGenericCreate+0x200>)
  40222c:	47b0      	blx	r6
  40222e:	4836      	ldr	r0, [pc, #216]	; (402308 <xTaskGenericCreate+0x204>)
  402230:	47b0      	blx	r6
  402232:	4b36      	ldr	r3, [pc, #216]	; (40230c <xTaskGenericCreate+0x208>)
  402234:	f8c3 8000 	str.w	r8, [r3]
  402238:	4b35      	ldr	r3, [pc, #212]	; (402310 <xTaskGenericCreate+0x20c>)
  40223a:	601f      	str	r7, [r3, #0]
  40223c:	4a35      	ldr	r2, [pc, #212]	; (402314 <xTaskGenericCreate+0x210>)
  40223e:	6813      	ldr	r3, [r2, #0]
  402240:	3301      	adds	r3, #1
  402242:	6013      	str	r3, [r2, #0]
  402244:	6423      	str	r3, [r4, #64]	; 0x40
  402246:	6ae0      	ldr	r0, [r4, #44]	; 0x2c
  402248:	4a33      	ldr	r2, [pc, #204]	; (402318 <xTaskGenericCreate+0x214>)
  40224a:	6811      	ldr	r1, [r2, #0]
  40224c:	2301      	movs	r3, #1
  40224e:	4083      	lsls	r3, r0
  402250:	430b      	orrs	r3, r1
  402252:	6013      	str	r3, [r2, #0]
  402254:	eb00 0080 	add.w	r0, r0, r0, lsl #2
  402258:	4649      	mov	r1, r9
  40225a:	4b26      	ldr	r3, [pc, #152]	; (4022f4 <xTaskGenericCreate+0x1f0>)
  40225c:	eb03 0080 	add.w	r0, r3, r0, lsl #2
  402260:	4b2e      	ldr	r3, [pc, #184]	; (40231c <xTaskGenericCreate+0x218>)
  402262:	4798      	blx	r3
  402264:	4b2e      	ldr	r3, [pc, #184]	; (402320 <xTaskGenericCreate+0x21c>)
  402266:	4798      	blx	r3
  402268:	4b2e      	ldr	r3, [pc, #184]	; (402324 <xTaskGenericCreate+0x220>)
  40226a:	681b      	ldr	r3, [r3, #0]
  40226c:	2b00      	cmp	r3, #0
  40226e:	d031      	beq.n	4022d4 <xTaskGenericCreate+0x1d0>
  402270:	4b1f      	ldr	r3, [pc, #124]	; (4022f0 <xTaskGenericCreate+0x1ec>)
  402272:	681b      	ldr	r3, [r3, #0]
  402274:	6adb      	ldr	r3, [r3, #44]	; 0x2c
  402276:	429d      	cmp	r5, r3
  402278:	d92e      	bls.n	4022d8 <xTaskGenericCreate+0x1d4>
  40227a:	f04f 5280 	mov.w	r2, #268435456	; 0x10000000
  40227e:	4b2a      	ldr	r3, [pc, #168]	; (402328 <xTaskGenericCreate+0x224>)
  402280:	601a      	str	r2, [r3, #0]
  402282:	f3bf 8f4f 	dsb	sy
  402286:	f3bf 8f6f 	isb	sy
  40228a:	2001      	movs	r0, #1
  40228c:	b003      	add	sp, #12
  40228e:	e8bd 8ff0 	ldmia.w	sp!, {r4, r5, r6, r7, r8, r9, sl, fp, pc}
  402292:	4630      	mov	r0, r6
  402294:	4b25      	ldr	r3, [pc, #148]	; (40232c <xTaskGenericCreate+0x228>)
  402296:	4798      	blx	r3
  402298:	f04f 30ff 	mov.w	r0, #4294967295
  40229c:	e7f6      	b.n	40228c <xTaskGenericCreate+0x188>
  40229e:	463b      	mov	r3, r7
  4022a0:	f104 0234 	add.w	r2, r4, #52	; 0x34
  4022a4:	3709      	adds	r7, #9
  4022a6:	7859      	ldrb	r1, [r3, #1]
  4022a8:	f802 1f01 	strb.w	r1, [r2, #1]!
  4022ac:	f813 1f01 	ldrb.w	r1, [r3, #1]!
  4022b0:	2900      	cmp	r1, #0
  4022b2:	f43f af70 	beq.w	402196 <xTaskGenericCreate+0x92>
  4022b6:	42bb      	cmp	r3, r7
  4022b8:	d1f5      	bne.n	4022a6 <xTaskGenericCreate+0x1a2>
  4022ba:	e76c      	b.n	402196 <xTaskGenericCreate+0x92>
  4022bc:	4b19      	ldr	r3, [pc, #100]	; (402324 <xTaskGenericCreate+0x220>)
  4022be:	681b      	ldr	r3, [r3, #0]
  4022c0:	2b00      	cmp	r3, #0
  4022c2:	d1bb      	bne.n	40223c <xTaskGenericCreate+0x138>
  4022c4:	4b0a      	ldr	r3, [pc, #40]	; (4022f0 <xTaskGenericCreate+0x1ec>)
  4022c6:	681b      	ldr	r3, [r3, #0]
  4022c8:	6adb      	ldr	r3, [r3, #44]	; 0x2c
  4022ca:	429d      	cmp	r5, r3
  4022cc:	d3b6      	bcc.n	40223c <xTaskGenericCreate+0x138>
  4022ce:	4b08      	ldr	r3, [pc, #32]	; (4022f0 <xTaskGenericCreate+0x1ec>)
  4022d0:	601c      	str	r4, [r3, #0]
  4022d2:	e7b3      	b.n	40223c <xTaskGenericCreate+0x138>
  4022d4:	2001      	movs	r0, #1
  4022d6:	e7d9      	b.n	40228c <xTaskGenericCreate+0x188>
  4022d8:	2001      	movs	r0, #1
  4022da:	e7d7      	b.n	40228c <xTaskGenericCreate+0x188>
  4022dc:	00401721 	.word	0x00401721
  4022e0:	00403b8d 	.word	0x00403b8d
  4022e4:	00401479 	.word	0x00401479
  4022e8:	004014c5 	.word	0x004014c5
  4022ec:	20400cd4 	.word	0x20400cd4
  4022f0:	20400c64 	.word	0x20400c64
  4022f4:	20400c70 	.word	0x20400c70
  4022f8:	00401379 	.word	0x00401379
  4022fc:	20400d00 	.word	0x20400d00
  402300:	20400d1c 	.word	0x20400d1c
  402304:	20400d48 	.word	0x20400d48
  402308:	20400d34 	.word	0x20400d34
  40230c:	20400c68 	.word	0x20400c68
  402310:	20400c6c 	.word	0x20400c6c
  402314:	20400ce0 	.word	0x20400ce0
  402318:	20400ce8 	.word	0x20400ce8
  40231c:	00401395 	.word	0x00401395
  402320:	00401511 	.word	0x00401511
  402324:	20400d30 	.word	0x20400d30
  402328:	e000ed04 	.word	0xe000ed04
  40232c:	00401751 	.word	0x00401751
  402330:	0040138f 	.word	0x0040138f
  402334:	20400cec 	.word	0x20400cec

00402338 <vTaskStartScheduler>:
  402338:	b510      	push	{r4, lr}
  40233a:	b084      	sub	sp, #16
  40233c:	2300      	movs	r3, #0
  40233e:	9303      	str	r3, [sp, #12]
  402340:	9302      	str	r3, [sp, #8]
  402342:	9301      	str	r3, [sp, #4]
  402344:	9300      	str	r3, [sp, #0]
  402346:	2282      	movs	r2, #130	; 0x82
  402348:	4916      	ldr	r1, [pc, #88]	; (4023a4 <vTaskStartScheduler+0x6c>)
  40234a:	4817      	ldr	r0, [pc, #92]	; (4023a8 <vTaskStartScheduler+0x70>)
  40234c:	4c17      	ldr	r4, [pc, #92]	; (4023ac <vTaskStartScheduler+0x74>)
  40234e:	47a0      	blx	r4
  402350:	2801      	cmp	r0, #1
  402352:	d00b      	beq.n	40236c <vTaskStartScheduler+0x34>
  402354:	bb20      	cbnz	r0, 4023a0 <vTaskStartScheduler+0x68>
  402356:	f04f 0380 	mov.w	r3, #128	; 0x80
  40235a:	b672      	cpsid	i
  40235c:	f383 8811 	msr	BASEPRI, r3
  402360:	f3bf 8f6f 	isb	sy
  402364:	f3bf 8f4f 	dsb	sy
  402368:	b662      	cpsie	i
  40236a:	e7fe      	b.n	40236a <vTaskStartScheduler+0x32>
  40236c:	4b10      	ldr	r3, [pc, #64]	; (4023b0 <vTaskStartScheduler+0x78>)
  40236e:	4798      	blx	r3
  402370:	2801      	cmp	r0, #1
  402372:	d1ef      	bne.n	402354 <vTaskStartScheduler+0x1c>
  402374:	f04f 0380 	mov.w	r3, #128	; 0x80
  402378:	b672      	cpsid	i
  40237a:	f383 8811 	msr	BASEPRI, r3
  40237e:	f3bf 8f6f 	isb	sy
  402382:	f3bf 8f4f 	dsb	sy
  402386:	b662      	cpsie	i
  402388:	f04f 32ff 	mov.w	r2, #4294967295
  40238c:	4b09      	ldr	r3, [pc, #36]	; (4023b4 <vTaskStartScheduler+0x7c>)
  40238e:	601a      	str	r2, [r3, #0]
  402390:	2201      	movs	r2, #1
  402392:	4b09      	ldr	r3, [pc, #36]	; (4023b8 <vTaskStartScheduler+0x80>)
  402394:	601a      	str	r2, [r3, #0]
  402396:	2200      	movs	r2, #0
  402398:	4b08      	ldr	r3, [pc, #32]	; (4023bc <vTaskStartScheduler+0x84>)
  40239a:	601a      	str	r2, [r3, #0]
  40239c:	4b08      	ldr	r3, [pc, #32]	; (4023c0 <vTaskStartScheduler+0x88>)
  40239e:	4798      	blx	r3
  4023a0:	b004      	add	sp, #16
  4023a2:	bd10      	pop	{r4, pc}
  4023a4:	00408cc0 	.word	0x00408cc0
  4023a8:	004026dd 	.word	0x004026dd
  4023ac:	00402105 	.word	0x00402105
  4023b0:	00402d1d 	.word	0x00402d1d
  4023b4:	20400d14 	.word	0x20400d14
  4023b8:	20400d30 	.word	0x20400d30
  4023bc:	20400d5c 	.word	0x20400d5c
  4023c0:	004015f9 	.word	0x004015f9

004023c4 <vTaskSuspendAll>:
  4023c4:	4a02      	ldr	r2, [pc, #8]	; (4023d0 <vTaskSuspendAll+0xc>)
  4023c6:	6813      	ldr	r3, [r2, #0]
  4023c8:	3301      	adds	r3, #1
  4023ca:	6013      	str	r3, [r2, #0]
  4023cc:	4770      	bx	lr
  4023ce:	bf00      	nop
  4023d0:	20400cdc 	.word	0x20400cdc

004023d4 <xTaskGetTickCount>:
  4023d4:	4b01      	ldr	r3, [pc, #4]	; (4023dc <xTaskGetTickCount+0x8>)
  4023d6:	6818      	ldr	r0, [r3, #0]
  4023d8:	4770      	bx	lr
  4023da:	bf00      	nop
  4023dc:	20400d5c 	.word	0x20400d5c

004023e0 <xTaskIncrementTick>:
  4023e0:	e92d 47f0 	stmdb	sp!, {r4, r5, r6, r7, r8, r9, sl, lr}
  4023e4:	4b42      	ldr	r3, [pc, #264]	; (4024f0 <xTaskIncrementTick+0x110>)
  4023e6:	681b      	ldr	r3, [r3, #0]
  4023e8:	2b00      	cmp	r3, #0
  4023ea:	d178      	bne.n	4024de <xTaskIncrementTick+0xfe>
  4023ec:	4b41      	ldr	r3, [pc, #260]	; (4024f4 <xTaskIncrementTick+0x114>)
  4023ee:	681a      	ldr	r2, [r3, #0]
  4023f0:	3201      	adds	r2, #1
  4023f2:	601a      	str	r2, [r3, #0]
  4023f4:	681e      	ldr	r6, [r3, #0]
  4023f6:	b9d6      	cbnz	r6, 40242e <xTaskIncrementTick+0x4e>
  4023f8:	4b3f      	ldr	r3, [pc, #252]	; (4024f8 <xTaskIncrementTick+0x118>)
  4023fa:	681b      	ldr	r3, [r3, #0]
  4023fc:	681b      	ldr	r3, [r3, #0]
  4023fe:	b153      	cbz	r3, 402416 <xTaskIncrementTick+0x36>
  402400:	f04f 0380 	mov.w	r3, #128	; 0x80
  402404:	b672      	cpsid	i
  402406:	f383 8811 	msr	BASEPRI, r3
  40240a:	f3bf 8f6f 	isb	sy
  40240e:	f3bf 8f4f 	dsb	sy
  402412:	b662      	cpsie	i
  402414:	e7fe      	b.n	402414 <xTaskIncrementTick+0x34>
  402416:	4a38      	ldr	r2, [pc, #224]	; (4024f8 <xTaskIncrementTick+0x118>)
  402418:	6811      	ldr	r1, [r2, #0]
  40241a:	4b38      	ldr	r3, [pc, #224]	; (4024fc <xTaskIncrementTick+0x11c>)
  40241c:	6818      	ldr	r0, [r3, #0]
  40241e:	6010      	str	r0, [r2, #0]
  402420:	6019      	str	r1, [r3, #0]
  402422:	4a37      	ldr	r2, [pc, #220]	; (402500 <xTaskIncrementTick+0x120>)
  402424:	6813      	ldr	r3, [r2, #0]
  402426:	3301      	adds	r3, #1
  402428:	6013      	str	r3, [r2, #0]
  40242a:	4b36      	ldr	r3, [pc, #216]	; (402504 <xTaskIncrementTick+0x124>)
  40242c:	4798      	blx	r3
  40242e:	4b36      	ldr	r3, [pc, #216]	; (402508 <xTaskIncrementTick+0x128>)
  402430:	681b      	ldr	r3, [r3, #0]
  402432:	429e      	cmp	r6, r3
  402434:	d218      	bcs.n	402468 <xTaskIncrementTick+0x88>
  402436:	2400      	movs	r4, #0
  402438:	4b34      	ldr	r3, [pc, #208]	; (40250c <xTaskIncrementTick+0x12c>)
  40243a:	681b      	ldr	r3, [r3, #0]
  40243c:	6adb      	ldr	r3, [r3, #44]	; 0x2c
  40243e:	eb03 0383 	add.w	r3, r3, r3, lsl #2
  402442:	4a33      	ldr	r2, [pc, #204]	; (402510 <xTaskIncrementTick+0x130>)
  402444:	f852 3023 	ldr.w	r3, [r2, r3, lsl #2]
  402448:	2b02      	cmp	r3, #2
  40244a:	bf28      	it	cs
  40244c:	2401      	movcs	r4, #1
  40244e:	4b31      	ldr	r3, [pc, #196]	; (402514 <xTaskIncrementTick+0x134>)
  402450:	681b      	ldr	r3, [r3, #0]
  402452:	b90b      	cbnz	r3, 402458 <xTaskIncrementTick+0x78>
  402454:	4b30      	ldr	r3, [pc, #192]	; (402518 <xTaskIncrementTick+0x138>)
  402456:	4798      	blx	r3
  402458:	4b30      	ldr	r3, [pc, #192]	; (40251c <xTaskIncrementTick+0x13c>)
  40245a:	681b      	ldr	r3, [r3, #0]
  40245c:	2b00      	cmp	r3, #0
  40245e:	bf0c      	ite	eq
  402460:	4620      	moveq	r0, r4
  402462:	2001      	movne	r0, #1
  402464:	e8bd 87f0 	ldmia.w	sp!, {r4, r5, r6, r7, r8, r9, sl, pc}
  402468:	2400      	movs	r4, #0
  40246a:	f8df 908c 	ldr.w	r9, [pc, #140]	; 4024f8 <xTaskIncrementTick+0x118>
  40246e:	f8df 80b8 	ldr.w	r8, [pc, #184]	; 402528 <xTaskIncrementTick+0x148>
  402472:	4f2b      	ldr	r7, [pc, #172]	; (402520 <xTaskIncrementTick+0x140>)
  402474:	e01f      	b.n	4024b6 <xTaskIncrementTick+0xd6>
  402476:	f04f 32ff 	mov.w	r2, #4294967295
  40247a:	4b23      	ldr	r3, [pc, #140]	; (402508 <xTaskIncrementTick+0x128>)
  40247c:	601a      	str	r2, [r3, #0]
  40247e:	e7db      	b.n	402438 <xTaskIncrementTick+0x58>
  402480:	4a21      	ldr	r2, [pc, #132]	; (402508 <xTaskIncrementTick+0x128>)
  402482:	6013      	str	r3, [r2, #0]
  402484:	e7d8      	b.n	402438 <xTaskIncrementTick+0x58>
  402486:	f105 0018 	add.w	r0, r5, #24
  40248a:	47c0      	blx	r8
  40248c:	6ae8      	ldr	r0, [r5, #44]	; 0x2c
  40248e:	683a      	ldr	r2, [r7, #0]
  402490:	2301      	movs	r3, #1
  402492:	4083      	lsls	r3, r0
  402494:	4313      	orrs	r3, r2
  402496:	603b      	str	r3, [r7, #0]
  402498:	eb00 0080 	add.w	r0, r0, r0, lsl #2
  40249c:	4651      	mov	r1, sl
  40249e:	4b1c      	ldr	r3, [pc, #112]	; (402510 <xTaskIncrementTick+0x130>)
  4024a0:	eb03 0080 	add.w	r0, r3, r0, lsl #2
  4024a4:	4b1f      	ldr	r3, [pc, #124]	; (402524 <xTaskIncrementTick+0x144>)
  4024a6:	4798      	blx	r3
  4024a8:	4b18      	ldr	r3, [pc, #96]	; (40250c <xTaskIncrementTick+0x12c>)
  4024aa:	681b      	ldr	r3, [r3, #0]
  4024ac:	6aea      	ldr	r2, [r5, #44]	; 0x2c
  4024ae:	6adb      	ldr	r3, [r3, #44]	; 0x2c
  4024b0:	429a      	cmp	r2, r3
  4024b2:	bf28      	it	cs
  4024b4:	2401      	movcs	r4, #1
  4024b6:	f8d9 3000 	ldr.w	r3, [r9]
  4024ba:	681b      	ldr	r3, [r3, #0]
  4024bc:	2b00      	cmp	r3, #0
  4024be:	d0da      	beq.n	402476 <xTaskIncrementTick+0x96>
  4024c0:	f8d9 3000 	ldr.w	r3, [r9]
  4024c4:	68db      	ldr	r3, [r3, #12]
  4024c6:	68dd      	ldr	r5, [r3, #12]
  4024c8:	686b      	ldr	r3, [r5, #4]
  4024ca:	429e      	cmp	r6, r3
  4024cc:	d3d8      	bcc.n	402480 <xTaskIncrementTick+0xa0>
  4024ce:	f105 0a04 	add.w	sl, r5, #4
  4024d2:	4650      	mov	r0, sl
  4024d4:	47c0      	blx	r8
  4024d6:	6aab      	ldr	r3, [r5, #40]	; 0x28
  4024d8:	2b00      	cmp	r3, #0
  4024da:	d1d4      	bne.n	402486 <xTaskIncrementTick+0xa6>
  4024dc:	e7d6      	b.n	40248c <xTaskIncrementTick+0xac>
  4024de:	4a0d      	ldr	r2, [pc, #52]	; (402514 <xTaskIncrementTick+0x134>)
  4024e0:	6813      	ldr	r3, [r2, #0]
  4024e2:	3301      	adds	r3, #1
  4024e4:	6013      	str	r3, [r2, #0]
  4024e6:	4b0c      	ldr	r3, [pc, #48]	; (402518 <xTaskIncrementTick+0x138>)
  4024e8:	4798      	blx	r3
  4024ea:	2400      	movs	r4, #0
  4024ec:	e7b4      	b.n	402458 <xTaskIncrementTick+0x78>
  4024ee:	bf00      	nop
  4024f0:	20400cdc 	.word	0x20400cdc
  4024f4:	20400d5c 	.word	0x20400d5c
  4024f8:	20400c68 	.word	0x20400c68
  4024fc:	20400c6c 	.word	0x20400c6c
  402500:	20400d18 	.word	0x20400d18
  402504:	00402081 	.word	0x00402081
  402508:	20400d14 	.word	0x20400d14
  40250c:	20400c64 	.word	0x20400c64
  402510:	20400c70 	.word	0x20400c70
  402514:	20400cd8 	.word	0x20400cd8
  402518:	004032dd 	.word	0x004032dd
  40251c:	20400d60 	.word	0x20400d60
  402520:	20400ce8 	.word	0x20400ce8
  402524:	00401395 	.word	0x00401395
  402528:	004013e1 	.word	0x004013e1

0040252c <xTaskResumeAll>:
  40252c:	e92d 43f8 	stmdb	sp!, {r3, r4, r5, r6, r7, r8, r9, lr}
  402530:	4b38      	ldr	r3, [pc, #224]	; (402614 <xTaskResumeAll+0xe8>)
  402532:	681b      	ldr	r3, [r3, #0]
  402534:	b953      	cbnz	r3, 40254c <xTaskResumeAll+0x20>
  402536:	f04f 0380 	mov.w	r3, #128	; 0x80
  40253a:	b672      	cpsid	i
  40253c:	f383 8811 	msr	BASEPRI, r3
  402540:	f3bf 8f6f 	isb	sy
  402544:	f3bf 8f4f 	dsb	sy
  402548:	b662      	cpsie	i
  40254a:	e7fe      	b.n	40254a <xTaskResumeAll+0x1e>
  40254c:	4b32      	ldr	r3, [pc, #200]	; (402618 <xTaskResumeAll+0xec>)
  40254e:	4798      	blx	r3
  402550:	4b30      	ldr	r3, [pc, #192]	; (402614 <xTaskResumeAll+0xe8>)
  402552:	681a      	ldr	r2, [r3, #0]
  402554:	3a01      	subs	r2, #1
  402556:	601a      	str	r2, [r3, #0]
  402558:	681b      	ldr	r3, [r3, #0]
  40255a:	2b00      	cmp	r3, #0
  40255c:	d155      	bne.n	40260a <xTaskResumeAll+0xde>
  40255e:	4b2f      	ldr	r3, [pc, #188]	; (40261c <xTaskResumeAll+0xf0>)
  402560:	681b      	ldr	r3, [r3, #0]
  402562:	2b00      	cmp	r3, #0
  402564:	d132      	bne.n	4025cc <xTaskResumeAll+0xa0>
  402566:	2400      	movs	r4, #0
  402568:	4b2d      	ldr	r3, [pc, #180]	; (402620 <xTaskResumeAll+0xf4>)
  40256a:	4798      	blx	r3
  40256c:	4620      	mov	r0, r4
  40256e:	e8bd 83f8 	ldmia.w	sp!, {r3, r4, r5, r6, r7, r8, r9, pc}
  402572:	68fb      	ldr	r3, [r7, #12]
  402574:	68dc      	ldr	r4, [r3, #12]
  402576:	f104 0018 	add.w	r0, r4, #24
  40257a:	47b0      	blx	r6
  40257c:	f104 0804 	add.w	r8, r4, #4
  402580:	4640      	mov	r0, r8
  402582:	47b0      	blx	r6
  402584:	6ae0      	ldr	r0, [r4, #44]	; 0x2c
  402586:	682a      	ldr	r2, [r5, #0]
  402588:	2301      	movs	r3, #1
  40258a:	4083      	lsls	r3, r0
  40258c:	4313      	orrs	r3, r2
  40258e:	602b      	str	r3, [r5, #0]
  402590:	eb00 0080 	add.w	r0, r0, r0, lsl #2
  402594:	4641      	mov	r1, r8
  402596:	eb09 0080 	add.w	r0, r9, r0, lsl #2
  40259a:	4b22      	ldr	r3, [pc, #136]	; (402624 <xTaskResumeAll+0xf8>)
  40259c:	4798      	blx	r3
  40259e:	4b22      	ldr	r3, [pc, #136]	; (402628 <xTaskResumeAll+0xfc>)
  4025a0:	681b      	ldr	r3, [r3, #0]
  4025a2:	6ae2      	ldr	r2, [r4, #44]	; 0x2c
  4025a4:	6adb      	ldr	r3, [r3, #44]	; 0x2c
  4025a6:	429a      	cmp	r2, r3
  4025a8:	d20c      	bcs.n	4025c4 <xTaskResumeAll+0x98>
  4025aa:	683b      	ldr	r3, [r7, #0]
  4025ac:	2b00      	cmp	r3, #0
  4025ae:	d1e0      	bne.n	402572 <xTaskResumeAll+0x46>
  4025b0:	4b1e      	ldr	r3, [pc, #120]	; (40262c <xTaskResumeAll+0x100>)
  4025b2:	681b      	ldr	r3, [r3, #0]
  4025b4:	b1db      	cbz	r3, 4025ee <xTaskResumeAll+0xc2>
  4025b6:	4b1d      	ldr	r3, [pc, #116]	; (40262c <xTaskResumeAll+0x100>)
  4025b8:	681b      	ldr	r3, [r3, #0]
  4025ba:	b1c3      	cbz	r3, 4025ee <xTaskResumeAll+0xc2>
  4025bc:	4e1c      	ldr	r6, [pc, #112]	; (402630 <xTaskResumeAll+0x104>)
  4025be:	4d1d      	ldr	r5, [pc, #116]	; (402634 <xTaskResumeAll+0x108>)
  4025c0:	4c1a      	ldr	r4, [pc, #104]	; (40262c <xTaskResumeAll+0x100>)
  4025c2:	e00e      	b.n	4025e2 <xTaskResumeAll+0xb6>
  4025c4:	2201      	movs	r2, #1
  4025c6:	4b1b      	ldr	r3, [pc, #108]	; (402634 <xTaskResumeAll+0x108>)
  4025c8:	601a      	str	r2, [r3, #0]
  4025ca:	e7ee      	b.n	4025aa <xTaskResumeAll+0x7e>
  4025cc:	4f1a      	ldr	r7, [pc, #104]	; (402638 <xTaskResumeAll+0x10c>)
  4025ce:	4e1b      	ldr	r6, [pc, #108]	; (40263c <xTaskResumeAll+0x110>)
  4025d0:	4d1b      	ldr	r5, [pc, #108]	; (402640 <xTaskResumeAll+0x114>)
  4025d2:	f8df 9074 	ldr.w	r9, [pc, #116]	; 402648 <xTaskResumeAll+0x11c>
  4025d6:	e7e8      	b.n	4025aa <xTaskResumeAll+0x7e>
  4025d8:	6823      	ldr	r3, [r4, #0]
  4025da:	3b01      	subs	r3, #1
  4025dc:	6023      	str	r3, [r4, #0]
  4025de:	6823      	ldr	r3, [r4, #0]
  4025e0:	b12b      	cbz	r3, 4025ee <xTaskResumeAll+0xc2>
  4025e2:	47b0      	blx	r6
  4025e4:	2800      	cmp	r0, #0
  4025e6:	d0f7      	beq.n	4025d8 <xTaskResumeAll+0xac>
  4025e8:	2301      	movs	r3, #1
  4025ea:	602b      	str	r3, [r5, #0]
  4025ec:	e7f4      	b.n	4025d8 <xTaskResumeAll+0xac>
  4025ee:	4b11      	ldr	r3, [pc, #68]	; (402634 <xTaskResumeAll+0x108>)
  4025f0:	681b      	ldr	r3, [r3, #0]
  4025f2:	2b01      	cmp	r3, #1
  4025f4:	d10b      	bne.n	40260e <xTaskResumeAll+0xe2>
  4025f6:	f04f 5280 	mov.w	r2, #268435456	; 0x10000000
  4025fa:	4b12      	ldr	r3, [pc, #72]	; (402644 <xTaskResumeAll+0x118>)
  4025fc:	601a      	str	r2, [r3, #0]
  4025fe:	f3bf 8f4f 	dsb	sy
  402602:	f3bf 8f6f 	isb	sy
  402606:	2401      	movs	r4, #1
  402608:	e7ae      	b.n	402568 <xTaskResumeAll+0x3c>
  40260a:	2400      	movs	r4, #0
  40260c:	e7ac      	b.n	402568 <xTaskResumeAll+0x3c>
  40260e:	2400      	movs	r4, #0
  402610:	e7aa      	b.n	402568 <xTaskResumeAll+0x3c>
  402612:	bf00      	nop
  402614:	20400cdc 	.word	0x20400cdc
  402618:	004014c5 	.word	0x004014c5
  40261c:	20400cd4 	.word	0x20400cd4
  402620:	00401511 	.word	0x00401511
  402624:	00401395 	.word	0x00401395
  402628:	20400c64 	.word	0x20400c64
  40262c:	20400cd8 	.word	0x20400cd8
  402630:	004023e1 	.word	0x004023e1
  402634:	20400d60 	.word	0x20400d60
  402638:	20400d1c 	.word	0x20400d1c
  40263c:	004013e1 	.word	0x004013e1
  402640:	20400ce8 	.word	0x20400ce8
  402644:	e000ed04 	.word	0xe000ed04
  402648:	20400c70 	.word	0x20400c70

0040264c <vTaskDelay>:
  40264c:	b510      	push	{r4, lr}
  40264e:	2800      	cmp	r0, #0
  402650:	d029      	beq.n	4026a6 <vTaskDelay+0x5a>
  402652:	4604      	mov	r4, r0
  402654:	4b18      	ldr	r3, [pc, #96]	; (4026b8 <vTaskDelay+0x6c>)
  402656:	681b      	ldr	r3, [r3, #0]
  402658:	b153      	cbz	r3, 402670 <vTaskDelay+0x24>
  40265a:	f04f 0380 	mov.w	r3, #128	; 0x80
  40265e:	b672      	cpsid	i
  402660:	f383 8811 	msr	BASEPRI, r3
  402664:	f3bf 8f6f 	isb	sy
  402668:	f3bf 8f4f 	dsb	sy
  40266c:	b662      	cpsie	i
  40266e:	e7fe      	b.n	40266e <vTaskDelay+0x22>
  402670:	4b12      	ldr	r3, [pc, #72]	; (4026bc <vTaskDelay+0x70>)
  402672:	4798      	blx	r3
  402674:	4b12      	ldr	r3, [pc, #72]	; (4026c0 <vTaskDelay+0x74>)
  402676:	681b      	ldr	r3, [r3, #0]
  402678:	441c      	add	r4, r3
  40267a:	4b12      	ldr	r3, [pc, #72]	; (4026c4 <vTaskDelay+0x78>)
  40267c:	6818      	ldr	r0, [r3, #0]
  40267e:	3004      	adds	r0, #4
  402680:	4b11      	ldr	r3, [pc, #68]	; (4026c8 <vTaskDelay+0x7c>)
  402682:	4798      	blx	r3
  402684:	b948      	cbnz	r0, 40269a <vTaskDelay+0x4e>
  402686:	4b0f      	ldr	r3, [pc, #60]	; (4026c4 <vTaskDelay+0x78>)
  402688:	681a      	ldr	r2, [r3, #0]
  40268a:	4910      	ldr	r1, [pc, #64]	; (4026cc <vTaskDelay+0x80>)
  40268c:	680b      	ldr	r3, [r1, #0]
  40268e:	6ad0      	ldr	r0, [r2, #44]	; 0x2c
  402690:	2201      	movs	r2, #1
  402692:	4082      	lsls	r2, r0
  402694:	ea23 0302 	bic.w	r3, r3, r2
  402698:	600b      	str	r3, [r1, #0]
  40269a:	4620      	mov	r0, r4
  40269c:	4b0c      	ldr	r3, [pc, #48]	; (4026d0 <vTaskDelay+0x84>)
  40269e:	4798      	blx	r3
  4026a0:	4b0c      	ldr	r3, [pc, #48]	; (4026d4 <vTaskDelay+0x88>)
  4026a2:	4798      	blx	r3
  4026a4:	b938      	cbnz	r0, 4026b6 <vTaskDelay+0x6a>
  4026a6:	f04f 5280 	mov.w	r2, #268435456	; 0x10000000
  4026aa:	4b0b      	ldr	r3, [pc, #44]	; (4026d8 <vTaskDelay+0x8c>)
  4026ac:	601a      	str	r2, [r3, #0]
  4026ae:	f3bf 8f4f 	dsb	sy
  4026b2:	f3bf 8f6f 	isb	sy
  4026b6:	bd10      	pop	{r4, pc}
  4026b8:	20400cdc 	.word	0x20400cdc
  4026bc:	004023c5 	.word	0x004023c5
  4026c0:	20400d5c 	.word	0x20400d5c
  4026c4:	20400c64 	.word	0x20400c64
  4026c8:	004013e1 	.word	0x004013e1
  4026cc:	20400ce8 	.word	0x20400ce8
  4026d0:	004020ad 	.word	0x004020ad
  4026d4:	0040252d 	.word	0x0040252d
  4026d8:	e000ed04 	.word	0xe000ed04

004026dc <prvIdleTask>:
  4026dc:	b580      	push	{r7, lr}
  4026de:	f8df 8088 	ldr.w	r8, [pc, #136]	; 402768 <prvIdleTask+0x8c>
  4026e2:	4e19      	ldr	r6, [pc, #100]	; (402748 <prvIdleTask+0x6c>)
  4026e4:	f8df 9084 	ldr.w	r9, [pc, #132]	; 40276c <prvIdleTask+0x90>
  4026e8:	e02a      	b.n	402740 <prvIdleTask+0x64>
  4026ea:	4b18      	ldr	r3, [pc, #96]	; (40274c <prvIdleTask+0x70>)
  4026ec:	681b      	ldr	r3, [r3, #0]
  4026ee:	2b01      	cmp	r3, #1
  4026f0:	d81e      	bhi.n	402730 <prvIdleTask+0x54>
  4026f2:	682b      	ldr	r3, [r5, #0]
  4026f4:	2b00      	cmp	r3, #0
  4026f6:	d0f8      	beq.n	4026ea <prvIdleTask+0xe>
  4026f8:	47c0      	blx	r8
  4026fa:	6834      	ldr	r4, [r6, #0]
  4026fc:	47b8      	blx	r7
  4026fe:	2c00      	cmp	r4, #0
  402700:	d0f7      	beq.n	4026f2 <prvIdleTask+0x16>
  402702:	4b13      	ldr	r3, [pc, #76]	; (402750 <prvIdleTask+0x74>)
  402704:	4798      	blx	r3
  402706:	68f3      	ldr	r3, [r6, #12]
  402708:	68dc      	ldr	r4, [r3, #12]
  40270a:	1d20      	adds	r0, r4, #4
  40270c:	4b11      	ldr	r3, [pc, #68]	; (402754 <prvIdleTask+0x78>)
  40270e:	4798      	blx	r3
  402710:	4a11      	ldr	r2, [pc, #68]	; (402758 <prvIdleTask+0x7c>)
  402712:	6813      	ldr	r3, [r2, #0]
  402714:	3b01      	subs	r3, #1
  402716:	6013      	str	r3, [r2, #0]
  402718:	682b      	ldr	r3, [r5, #0]
  40271a:	3b01      	subs	r3, #1
  40271c:	602b      	str	r3, [r5, #0]
  40271e:	4b0f      	ldr	r3, [pc, #60]	; (40275c <prvIdleTask+0x80>)
  402720:	4798      	blx	r3
  402722:	6b20      	ldr	r0, [r4, #48]	; 0x30
  402724:	f8df a048 	ldr.w	sl, [pc, #72]	; 402770 <prvIdleTask+0x94>
  402728:	47d0      	blx	sl
  40272a:	4620      	mov	r0, r4
  40272c:	47d0      	blx	sl
  40272e:	e7e0      	b.n	4026f2 <prvIdleTask+0x16>
  402730:	f04f 5380 	mov.w	r3, #268435456	; 0x10000000
  402734:	f8c9 3000 	str.w	r3, [r9]
  402738:	f3bf 8f4f 	dsb	sy
  40273c:	f3bf 8f6f 	isb	sy
  402740:	4d07      	ldr	r5, [pc, #28]	; (402760 <prvIdleTask+0x84>)
  402742:	4f08      	ldr	r7, [pc, #32]	; (402764 <prvIdleTask+0x88>)
  402744:	e7d5      	b.n	4026f2 <prvIdleTask+0x16>
  402746:	bf00      	nop
  402748:	20400d48 	.word	0x20400d48
  40274c:	20400c70 	.word	0x20400c70
  402750:	004014c5 	.word	0x004014c5
  402754:	004013e1 	.word	0x004013e1
  402758:	20400cd4 	.word	0x20400cd4
  40275c:	00401511 	.word	0x00401511
  402760:	20400ce4 	.word	0x20400ce4
  402764:	0040252d 	.word	0x0040252d
  402768:	004023c5 	.word	0x004023c5
  40276c:	e000ed04 	.word	0xe000ed04
  402770:	00401751 	.word	0x00401751

00402774 <vTaskSwitchContext>:
  402774:	4b2d      	ldr	r3, [pc, #180]	; (40282c <vTaskSwitchContext+0xb8>)
  402776:	681b      	ldr	r3, [r3, #0]
  402778:	2b00      	cmp	r3, #0
  40277a:	d12c      	bne.n	4027d6 <vTaskSwitchContext+0x62>
  40277c:	b510      	push	{r4, lr}
  40277e:	2200      	movs	r2, #0
  402780:	4b2b      	ldr	r3, [pc, #172]	; (402830 <vTaskSwitchContext+0xbc>)
  402782:	601a      	str	r2, [r3, #0]
  402784:	4b2b      	ldr	r3, [pc, #172]	; (402834 <vTaskSwitchContext+0xc0>)
  402786:	681b      	ldr	r3, [r3, #0]
  402788:	6b1b      	ldr	r3, [r3, #48]	; 0x30
  40278a:	681a      	ldr	r2, [r3, #0]
  40278c:	f1b2 3fa5 	cmp.w	r2, #2779096485	; 0xa5a5a5a5
  402790:	d103      	bne.n	40279a <vTaskSwitchContext+0x26>
  402792:	685a      	ldr	r2, [r3, #4]
  402794:	f1b2 3fa5 	cmp.w	r2, #2779096485	; 0xa5a5a5a5
  402798:	d021      	beq.n	4027de <vTaskSwitchContext+0x6a>
  40279a:	4b26      	ldr	r3, [pc, #152]	; (402834 <vTaskSwitchContext+0xc0>)
  40279c:	6818      	ldr	r0, [r3, #0]
  40279e:	6819      	ldr	r1, [r3, #0]
  4027a0:	3134      	adds	r1, #52	; 0x34
  4027a2:	4b25      	ldr	r3, [pc, #148]	; (402838 <vTaskSwitchContext+0xc4>)
  4027a4:	4798      	blx	r3
  4027a6:	4b25      	ldr	r3, [pc, #148]	; (40283c <vTaskSwitchContext+0xc8>)
  4027a8:	681b      	ldr	r3, [r3, #0]
  4027aa:	fab3 f383 	clz	r3, r3
  4027ae:	b2db      	uxtb	r3, r3
  4027b0:	f1c3 031f 	rsb	r3, r3, #31
  4027b4:	eb03 0183 	add.w	r1, r3, r3, lsl #2
  4027b8:	4a21      	ldr	r2, [pc, #132]	; (402840 <vTaskSwitchContext+0xcc>)
  4027ba:	f852 2021 	ldr.w	r2, [r2, r1, lsl #2]
  4027be:	b9ba      	cbnz	r2, 4027f0 <vTaskSwitchContext+0x7c>
  4027c0:	f04f 0380 	mov.w	r3, #128	; 0x80
  4027c4:	b672      	cpsid	i
  4027c6:	f383 8811 	msr	BASEPRI, r3
  4027ca:	f3bf 8f6f 	isb	sy
  4027ce:	f3bf 8f4f 	dsb	sy
  4027d2:	b662      	cpsie	i
  4027d4:	e7fe      	b.n	4027d4 <vTaskSwitchContext+0x60>
  4027d6:	2201      	movs	r2, #1
  4027d8:	4b15      	ldr	r3, [pc, #84]	; (402830 <vTaskSwitchContext+0xbc>)
  4027da:	601a      	str	r2, [r3, #0]
  4027dc:	4770      	bx	lr
  4027de:	689a      	ldr	r2, [r3, #8]
  4027e0:	f1b2 3fa5 	cmp.w	r2, #2779096485	; 0xa5a5a5a5
  4027e4:	d1d9      	bne.n	40279a <vTaskSwitchContext+0x26>
  4027e6:	68db      	ldr	r3, [r3, #12]
  4027e8:	f1b3 3fa5 	cmp.w	r3, #2779096485	; 0xa5a5a5a5
  4027ec:	d1d5      	bne.n	40279a <vTaskSwitchContext+0x26>
  4027ee:	e7da      	b.n	4027a6 <vTaskSwitchContext+0x32>
  4027f0:	4a13      	ldr	r2, [pc, #76]	; (402840 <vTaskSwitchContext+0xcc>)
  4027f2:	0099      	lsls	r1, r3, #2
  4027f4:	18c8      	adds	r0, r1, r3
  4027f6:	eb02 0080 	add.w	r0, r2, r0, lsl #2
  4027fa:	6844      	ldr	r4, [r0, #4]
  4027fc:	6864      	ldr	r4, [r4, #4]
  4027fe:	6044      	str	r4, [r0, #4]
  402800:	4419      	add	r1, r3
  402802:	4602      	mov	r2, r0
  402804:	3208      	adds	r2, #8
  402806:	4294      	cmp	r4, r2
  402808:	d009      	beq.n	40281e <vTaskSwitchContext+0xaa>
  40280a:	eb03 0383 	add.w	r3, r3, r3, lsl #2
  40280e:	4a0c      	ldr	r2, [pc, #48]	; (402840 <vTaskSwitchContext+0xcc>)
  402810:	eb02 0383 	add.w	r3, r2, r3, lsl #2
  402814:	685b      	ldr	r3, [r3, #4]
  402816:	68da      	ldr	r2, [r3, #12]
  402818:	4b06      	ldr	r3, [pc, #24]	; (402834 <vTaskSwitchContext+0xc0>)
  40281a:	601a      	str	r2, [r3, #0]
  40281c:	bd10      	pop	{r4, pc}
  40281e:	6860      	ldr	r0, [r4, #4]
  402820:	4a07      	ldr	r2, [pc, #28]	; (402840 <vTaskSwitchContext+0xcc>)
  402822:	eb02 0281 	add.w	r2, r2, r1, lsl #2
  402826:	6050      	str	r0, [r2, #4]
  402828:	e7ef      	b.n	40280a <vTaskSwitchContext+0x96>
  40282a:	bf00      	nop
  40282c:	20400cdc 	.word	0x20400cdc
  402830:	20400d60 	.word	0x20400d60
  402834:	20400c64 	.word	0x20400c64
  402838:	004032c5 	.word	0x004032c5
  40283c:	20400ce8 	.word	0x20400ce8
  402840:	20400c70 	.word	0x20400c70

00402844 <vTaskPlaceOnEventList>:
  402844:	b538      	push	{r3, r4, r5, lr}
  402846:	b1e0      	cbz	r0, 402882 <vTaskPlaceOnEventList+0x3e>
  402848:	460c      	mov	r4, r1
  40284a:	4d17      	ldr	r5, [pc, #92]	; (4028a8 <vTaskPlaceOnEventList+0x64>)
  40284c:	6829      	ldr	r1, [r5, #0]
  40284e:	3118      	adds	r1, #24
  402850:	4b16      	ldr	r3, [pc, #88]	; (4028ac <vTaskPlaceOnEventList+0x68>)
  402852:	4798      	blx	r3
  402854:	6828      	ldr	r0, [r5, #0]
  402856:	3004      	adds	r0, #4
  402858:	4b15      	ldr	r3, [pc, #84]	; (4028b0 <vTaskPlaceOnEventList+0x6c>)
  40285a:	4798      	blx	r3
  40285c:	b940      	cbnz	r0, 402870 <vTaskPlaceOnEventList+0x2c>
  40285e:	682a      	ldr	r2, [r5, #0]
  402860:	4914      	ldr	r1, [pc, #80]	; (4028b4 <vTaskPlaceOnEventList+0x70>)
  402862:	680b      	ldr	r3, [r1, #0]
  402864:	6ad0      	ldr	r0, [r2, #44]	; 0x2c
  402866:	2201      	movs	r2, #1
  402868:	4082      	lsls	r2, r0
  40286a:	ea23 0302 	bic.w	r3, r3, r2
  40286e:	600b      	str	r3, [r1, #0]
  402870:	f1b4 3fff 	cmp.w	r4, #4294967295
  402874:	d010      	beq.n	402898 <vTaskPlaceOnEventList+0x54>
  402876:	4b10      	ldr	r3, [pc, #64]	; (4028b8 <vTaskPlaceOnEventList+0x74>)
  402878:	6818      	ldr	r0, [r3, #0]
  40287a:	4420      	add	r0, r4
  40287c:	4b0f      	ldr	r3, [pc, #60]	; (4028bc <vTaskPlaceOnEventList+0x78>)
  40287e:	4798      	blx	r3
  402880:	bd38      	pop	{r3, r4, r5, pc}
  402882:	f04f 0380 	mov.w	r3, #128	; 0x80
  402886:	b672      	cpsid	i
  402888:	f383 8811 	msr	BASEPRI, r3
  40288c:	f3bf 8f6f 	isb	sy
  402890:	f3bf 8f4f 	dsb	sy
  402894:	b662      	cpsie	i
  402896:	e7fe      	b.n	402896 <vTaskPlaceOnEventList+0x52>
  402898:	4b03      	ldr	r3, [pc, #12]	; (4028a8 <vTaskPlaceOnEventList+0x64>)
  40289a:	6819      	ldr	r1, [r3, #0]
  40289c:	3104      	adds	r1, #4
  40289e:	4808      	ldr	r0, [pc, #32]	; (4028c0 <vTaskPlaceOnEventList+0x7c>)
  4028a0:	4b08      	ldr	r3, [pc, #32]	; (4028c4 <vTaskPlaceOnEventList+0x80>)
  4028a2:	4798      	blx	r3
  4028a4:	bd38      	pop	{r3, r4, r5, pc}
  4028a6:	bf00      	nop
  4028a8:	20400c64 	.word	0x20400c64
  4028ac:	004013ad 	.word	0x004013ad
  4028b0:	004013e1 	.word	0x004013e1
  4028b4:	20400ce8 	.word	0x20400ce8
  4028b8:	20400d5c 	.word	0x20400d5c
  4028bc:	004020ad 	.word	0x004020ad
  4028c0:	20400d34 	.word	0x20400d34
  4028c4:	00401395 	.word	0x00401395

004028c8 <vTaskPlaceOnEventListRestricted>:
  4028c8:	b1e8      	cbz	r0, 402906 <vTaskPlaceOnEventListRestricted+0x3e>
  4028ca:	b570      	push	{r4, r5, r6, lr}
  4028cc:	4615      	mov	r5, r2
  4028ce:	460c      	mov	r4, r1
  4028d0:	4e16      	ldr	r6, [pc, #88]	; (40292c <vTaskPlaceOnEventListRestricted+0x64>)
  4028d2:	6831      	ldr	r1, [r6, #0]
  4028d4:	3118      	adds	r1, #24
  4028d6:	4b16      	ldr	r3, [pc, #88]	; (402930 <vTaskPlaceOnEventListRestricted+0x68>)
  4028d8:	4798      	blx	r3
  4028da:	6830      	ldr	r0, [r6, #0]
  4028dc:	3004      	adds	r0, #4
  4028de:	4b15      	ldr	r3, [pc, #84]	; (402934 <vTaskPlaceOnEventListRestricted+0x6c>)
  4028e0:	4798      	blx	r3
  4028e2:	b940      	cbnz	r0, 4028f6 <vTaskPlaceOnEventListRestricted+0x2e>
  4028e4:	6832      	ldr	r2, [r6, #0]
  4028e6:	4914      	ldr	r1, [pc, #80]	; (402938 <vTaskPlaceOnEventListRestricted+0x70>)
  4028e8:	680b      	ldr	r3, [r1, #0]
  4028ea:	6ad0      	ldr	r0, [r2, #44]	; 0x2c
  4028ec:	2201      	movs	r2, #1
  4028ee:	4082      	lsls	r2, r0
  4028f0:	ea23 0302 	bic.w	r3, r3, r2
  4028f4:	600b      	str	r3, [r1, #0]
  4028f6:	2d01      	cmp	r5, #1
  4028f8:	d010      	beq.n	40291c <vTaskPlaceOnEventListRestricted+0x54>
  4028fa:	4b10      	ldr	r3, [pc, #64]	; (40293c <vTaskPlaceOnEventListRestricted+0x74>)
  4028fc:	6818      	ldr	r0, [r3, #0]
  4028fe:	4420      	add	r0, r4
  402900:	4b0f      	ldr	r3, [pc, #60]	; (402940 <vTaskPlaceOnEventListRestricted+0x78>)
  402902:	4798      	blx	r3
  402904:	bd70      	pop	{r4, r5, r6, pc}
  402906:	f04f 0380 	mov.w	r3, #128	; 0x80
  40290a:	b672      	cpsid	i
  40290c:	f383 8811 	msr	BASEPRI, r3
  402910:	f3bf 8f6f 	isb	sy
  402914:	f3bf 8f4f 	dsb	sy
  402918:	b662      	cpsie	i
  40291a:	e7fe      	b.n	40291a <vTaskPlaceOnEventListRestricted+0x52>
  40291c:	4b03      	ldr	r3, [pc, #12]	; (40292c <vTaskPlaceOnEventListRestricted+0x64>)
  40291e:	6819      	ldr	r1, [r3, #0]
  402920:	3104      	adds	r1, #4
  402922:	4808      	ldr	r0, [pc, #32]	; (402944 <vTaskPlaceOnEventListRestricted+0x7c>)
  402924:	4b02      	ldr	r3, [pc, #8]	; (402930 <vTaskPlaceOnEventListRestricted+0x68>)
  402926:	4798      	blx	r3
  402928:	bd70      	pop	{r4, r5, r6, pc}
  40292a:	bf00      	nop
  40292c:	20400c64 	.word	0x20400c64
  402930:	00401395 	.word	0x00401395
  402934:	004013e1 	.word	0x004013e1
  402938:	20400ce8 	.word	0x20400ce8
  40293c:	20400d5c 	.word	0x20400d5c
  402940:	004020ad 	.word	0x004020ad
  402944:	20400d34 	.word	0x20400d34

00402948 <xTaskRemoveFromEventList>:
  402948:	b538      	push	{r3, r4, r5, lr}
  40294a:	68c3      	ldr	r3, [r0, #12]
  40294c:	68dc      	ldr	r4, [r3, #12]
  40294e:	b324      	cbz	r4, 40299a <xTaskRemoveFromEventList+0x52>
  402950:	f104 0518 	add.w	r5, r4, #24
  402954:	4628      	mov	r0, r5
  402956:	4b1a      	ldr	r3, [pc, #104]	; (4029c0 <xTaskRemoveFromEventList+0x78>)
  402958:	4798      	blx	r3
  40295a:	4b1a      	ldr	r3, [pc, #104]	; (4029c4 <xTaskRemoveFromEventList+0x7c>)
  40295c:	681b      	ldr	r3, [r3, #0]
  40295e:	bb3b      	cbnz	r3, 4029b0 <xTaskRemoveFromEventList+0x68>
  402960:	1d25      	adds	r5, r4, #4
  402962:	4628      	mov	r0, r5
  402964:	4b16      	ldr	r3, [pc, #88]	; (4029c0 <xTaskRemoveFromEventList+0x78>)
  402966:	4798      	blx	r3
  402968:	6ae0      	ldr	r0, [r4, #44]	; 0x2c
  40296a:	4a17      	ldr	r2, [pc, #92]	; (4029c8 <xTaskRemoveFromEventList+0x80>)
  40296c:	6811      	ldr	r1, [r2, #0]
  40296e:	2301      	movs	r3, #1
  402970:	4083      	lsls	r3, r0
  402972:	430b      	orrs	r3, r1
  402974:	6013      	str	r3, [r2, #0]
  402976:	eb00 0080 	add.w	r0, r0, r0, lsl #2
  40297a:	4629      	mov	r1, r5
  40297c:	4b13      	ldr	r3, [pc, #76]	; (4029cc <xTaskRemoveFromEventList+0x84>)
  40297e:	eb03 0080 	add.w	r0, r3, r0, lsl #2
  402982:	4b13      	ldr	r3, [pc, #76]	; (4029d0 <xTaskRemoveFromEventList+0x88>)
  402984:	4798      	blx	r3
  402986:	4b13      	ldr	r3, [pc, #76]	; (4029d4 <xTaskRemoveFromEventList+0x8c>)
  402988:	681b      	ldr	r3, [r3, #0]
  40298a:	6ae2      	ldr	r2, [r4, #44]	; 0x2c
  40298c:	6adb      	ldr	r3, [r3, #44]	; 0x2c
  40298e:	429a      	cmp	r2, r3
  402990:	d913      	bls.n	4029ba <xTaskRemoveFromEventList+0x72>
  402992:	2001      	movs	r0, #1
  402994:	4b10      	ldr	r3, [pc, #64]	; (4029d8 <xTaskRemoveFromEventList+0x90>)
  402996:	6018      	str	r0, [r3, #0]
  402998:	bd38      	pop	{r3, r4, r5, pc}
  40299a:	f04f 0380 	mov.w	r3, #128	; 0x80
  40299e:	b672      	cpsid	i
  4029a0:	f383 8811 	msr	BASEPRI, r3
  4029a4:	f3bf 8f6f 	isb	sy
  4029a8:	f3bf 8f4f 	dsb	sy
  4029ac:	b662      	cpsie	i
  4029ae:	e7fe      	b.n	4029ae <xTaskRemoveFromEventList+0x66>
  4029b0:	4629      	mov	r1, r5
  4029b2:	480a      	ldr	r0, [pc, #40]	; (4029dc <xTaskRemoveFromEventList+0x94>)
  4029b4:	4b06      	ldr	r3, [pc, #24]	; (4029d0 <xTaskRemoveFromEventList+0x88>)
  4029b6:	4798      	blx	r3
  4029b8:	e7e5      	b.n	402986 <xTaskRemoveFromEventList+0x3e>
  4029ba:	2000      	movs	r0, #0
  4029bc:	bd38      	pop	{r3, r4, r5, pc}
  4029be:	bf00      	nop
  4029c0:	004013e1 	.word	0x004013e1
  4029c4:	20400cdc 	.word	0x20400cdc
  4029c8:	20400ce8 	.word	0x20400ce8
  4029cc:	20400c70 	.word	0x20400c70
  4029d0:	00401395 	.word	0x00401395
  4029d4:	20400c64 	.word	0x20400c64
  4029d8:	20400d60 	.word	0x20400d60
  4029dc:	20400d1c 	.word	0x20400d1c

004029e0 <vTaskSetTimeOutState>:
  4029e0:	b130      	cbz	r0, 4029f0 <vTaskSetTimeOutState+0x10>
  4029e2:	4a09      	ldr	r2, [pc, #36]	; (402a08 <vTaskSetTimeOutState+0x28>)
  4029e4:	6812      	ldr	r2, [r2, #0]
  4029e6:	6002      	str	r2, [r0, #0]
  4029e8:	4a08      	ldr	r2, [pc, #32]	; (402a0c <vTaskSetTimeOutState+0x2c>)
  4029ea:	6812      	ldr	r2, [r2, #0]
  4029ec:	6042      	str	r2, [r0, #4]
  4029ee:	4770      	bx	lr
  4029f0:	f04f 0380 	mov.w	r3, #128	; 0x80
  4029f4:	b672      	cpsid	i
  4029f6:	f383 8811 	msr	BASEPRI, r3
  4029fa:	f3bf 8f6f 	isb	sy
  4029fe:	f3bf 8f4f 	dsb	sy
  402a02:	b662      	cpsie	i
  402a04:	e7fe      	b.n	402a04 <vTaskSetTimeOutState+0x24>
  402a06:	bf00      	nop
  402a08:	20400d18 	.word	0x20400d18
  402a0c:	20400d5c 	.word	0x20400d5c

00402a10 <xTaskCheckForTimeOut>:
  402a10:	b538      	push	{r3, r4, r5, lr}
  402a12:	b1c0      	cbz	r0, 402a46 <xTaskCheckForTimeOut+0x36>
  402a14:	4604      	mov	r4, r0
  402a16:	b309      	cbz	r1, 402a5c <xTaskCheckForTimeOut+0x4c>
  402a18:	460d      	mov	r5, r1
  402a1a:	4b1d      	ldr	r3, [pc, #116]	; (402a90 <xTaskCheckForTimeOut+0x80>)
  402a1c:	4798      	blx	r3
  402a1e:	4b1d      	ldr	r3, [pc, #116]	; (402a94 <xTaskCheckForTimeOut+0x84>)
  402a20:	681a      	ldr	r2, [r3, #0]
  402a22:	682b      	ldr	r3, [r5, #0]
  402a24:	f1b3 3fff 	cmp.w	r3, #4294967295
  402a28:	d02e      	beq.n	402a88 <xTaskCheckForTimeOut+0x78>
  402a2a:	491b      	ldr	r1, [pc, #108]	; (402a98 <xTaskCheckForTimeOut+0x88>)
  402a2c:	6809      	ldr	r1, [r1, #0]
  402a2e:	6820      	ldr	r0, [r4, #0]
  402a30:	4288      	cmp	r0, r1
  402a32:	d002      	beq.n	402a3a <xTaskCheckForTimeOut+0x2a>
  402a34:	6861      	ldr	r1, [r4, #4]
  402a36:	428a      	cmp	r2, r1
  402a38:	d228      	bcs.n	402a8c <xTaskCheckForTimeOut+0x7c>
  402a3a:	6861      	ldr	r1, [r4, #4]
  402a3c:	1a50      	subs	r0, r2, r1
  402a3e:	4283      	cmp	r3, r0
  402a40:	d817      	bhi.n	402a72 <xTaskCheckForTimeOut+0x62>
  402a42:	2401      	movs	r4, #1
  402a44:	e01c      	b.n	402a80 <xTaskCheckForTimeOut+0x70>
  402a46:	f04f 0380 	mov.w	r3, #128	; 0x80
  402a4a:	b672      	cpsid	i
  402a4c:	f383 8811 	msr	BASEPRI, r3
  402a50:	f3bf 8f6f 	isb	sy
  402a54:	f3bf 8f4f 	dsb	sy
  402a58:	b662      	cpsie	i
  402a5a:	e7fe      	b.n	402a5a <xTaskCheckForTimeOut+0x4a>
  402a5c:	f04f 0380 	mov.w	r3, #128	; 0x80
  402a60:	b672      	cpsid	i
  402a62:	f383 8811 	msr	BASEPRI, r3
  402a66:	f3bf 8f6f 	isb	sy
  402a6a:	f3bf 8f4f 	dsb	sy
  402a6e:	b662      	cpsie	i
  402a70:	e7fe      	b.n	402a70 <xTaskCheckForTimeOut+0x60>
  402a72:	1a9b      	subs	r3, r3, r2
  402a74:	440b      	add	r3, r1
  402a76:	602b      	str	r3, [r5, #0]
  402a78:	4620      	mov	r0, r4
  402a7a:	4b08      	ldr	r3, [pc, #32]	; (402a9c <xTaskCheckForTimeOut+0x8c>)
  402a7c:	4798      	blx	r3
  402a7e:	2400      	movs	r4, #0
  402a80:	4b07      	ldr	r3, [pc, #28]	; (402aa0 <xTaskCheckForTimeOut+0x90>)
  402a82:	4798      	blx	r3
  402a84:	4620      	mov	r0, r4
  402a86:	bd38      	pop	{r3, r4, r5, pc}
  402a88:	2400      	movs	r4, #0
  402a8a:	e7f9      	b.n	402a80 <xTaskCheckForTimeOut+0x70>
  402a8c:	2401      	movs	r4, #1
  402a8e:	e7f7      	b.n	402a80 <xTaskCheckForTimeOut+0x70>
  402a90:	004014c5 	.word	0x004014c5
  402a94:	20400d5c 	.word	0x20400d5c
  402a98:	20400d18 	.word	0x20400d18
  402a9c:	004029e1 	.word	0x004029e1
  402aa0:	00401511 	.word	0x00401511

00402aa4 <vTaskMissedYield>:
  402aa4:	2201      	movs	r2, #1
  402aa6:	4b01      	ldr	r3, [pc, #4]	; (402aac <vTaskMissedYield+0x8>)
  402aa8:	601a      	str	r2, [r3, #0]
  402aaa:	4770      	bx	lr
  402aac:	20400d60 	.word	0x20400d60

00402ab0 <xTaskGetSchedulerState>:
  402ab0:	4b05      	ldr	r3, [pc, #20]	; (402ac8 <xTaskGetSchedulerState+0x18>)
  402ab2:	681b      	ldr	r3, [r3, #0]
  402ab4:	b133      	cbz	r3, 402ac4 <xTaskGetSchedulerState+0x14>
  402ab6:	4b05      	ldr	r3, [pc, #20]	; (402acc <xTaskGetSchedulerState+0x1c>)
  402ab8:	681b      	ldr	r3, [r3, #0]
  402aba:	2b00      	cmp	r3, #0
  402abc:	bf0c      	ite	eq
  402abe:	2002      	moveq	r0, #2
  402ac0:	2000      	movne	r0, #0
  402ac2:	4770      	bx	lr
  402ac4:	2001      	movs	r0, #1
  402ac6:	4770      	bx	lr
  402ac8:	20400d30 	.word	0x20400d30
  402acc:	20400cdc 	.word	0x20400cdc

00402ad0 <vTaskPriorityInherit>:
  402ad0:	2800      	cmp	r0, #0
  402ad2:	d044      	beq.n	402b5e <vTaskPriorityInherit+0x8e>
  402ad4:	b538      	push	{r3, r4, r5, lr}
  402ad6:	4604      	mov	r4, r0
  402ad8:	6ac2      	ldr	r2, [r0, #44]	; 0x2c
  402ada:	4921      	ldr	r1, [pc, #132]	; (402b60 <vTaskPriorityInherit+0x90>)
  402adc:	6809      	ldr	r1, [r1, #0]
  402ade:	6ac9      	ldr	r1, [r1, #44]	; 0x2c
  402ae0:	428a      	cmp	r2, r1
  402ae2:	d214      	bcs.n	402b0e <vTaskPriorityInherit+0x3e>
  402ae4:	6981      	ldr	r1, [r0, #24]
  402ae6:	2900      	cmp	r1, #0
  402ae8:	db05      	blt.n	402af6 <vTaskPriorityInherit+0x26>
  402aea:	491d      	ldr	r1, [pc, #116]	; (402b60 <vTaskPriorityInherit+0x90>)
  402aec:	6809      	ldr	r1, [r1, #0]
  402aee:	6ac9      	ldr	r1, [r1, #44]	; 0x2c
  402af0:	f1c1 0105 	rsb	r1, r1, #5
  402af4:	6181      	str	r1, [r0, #24]
  402af6:	eb02 0282 	add.w	r2, r2, r2, lsl #2
  402afa:	491a      	ldr	r1, [pc, #104]	; (402b64 <vTaskPriorityInherit+0x94>)
  402afc:	eb01 0282 	add.w	r2, r1, r2, lsl #2
  402b00:	6961      	ldr	r1, [r4, #20]
  402b02:	4291      	cmp	r1, r2
  402b04:	d004      	beq.n	402b10 <vTaskPriorityInherit+0x40>
  402b06:	4a16      	ldr	r2, [pc, #88]	; (402b60 <vTaskPriorityInherit+0x90>)
  402b08:	6812      	ldr	r2, [r2, #0]
  402b0a:	6ad2      	ldr	r2, [r2, #44]	; 0x2c
  402b0c:	62e2      	str	r2, [r4, #44]	; 0x2c
  402b0e:	bd38      	pop	{r3, r4, r5, pc}
  402b10:	1d25      	adds	r5, r4, #4
  402b12:	4628      	mov	r0, r5
  402b14:	4b14      	ldr	r3, [pc, #80]	; (402b68 <vTaskPriorityInherit+0x98>)
  402b16:	4798      	blx	r3
  402b18:	b970      	cbnz	r0, 402b38 <vTaskPriorityInherit+0x68>
  402b1a:	6ae3      	ldr	r3, [r4, #44]	; 0x2c
  402b1c:	eb03 0183 	add.w	r1, r3, r3, lsl #2
  402b20:	4a10      	ldr	r2, [pc, #64]	; (402b64 <vTaskPriorityInherit+0x94>)
  402b22:	f852 2021 	ldr.w	r2, [r2, r1, lsl #2]
  402b26:	b93a      	cbnz	r2, 402b38 <vTaskPriorityInherit+0x68>
  402b28:	4810      	ldr	r0, [pc, #64]	; (402b6c <vTaskPriorityInherit+0x9c>)
  402b2a:	6802      	ldr	r2, [r0, #0]
  402b2c:	2101      	movs	r1, #1
  402b2e:	fa01 f303 	lsl.w	r3, r1, r3
  402b32:	ea22 0303 	bic.w	r3, r2, r3
  402b36:	6003      	str	r3, [r0, #0]
  402b38:	4b09      	ldr	r3, [pc, #36]	; (402b60 <vTaskPriorityInherit+0x90>)
  402b3a:	681b      	ldr	r3, [r3, #0]
  402b3c:	6ad8      	ldr	r0, [r3, #44]	; 0x2c
  402b3e:	62e0      	str	r0, [r4, #44]	; 0x2c
  402b40:	4a0a      	ldr	r2, [pc, #40]	; (402b6c <vTaskPriorityInherit+0x9c>)
  402b42:	6811      	ldr	r1, [r2, #0]
  402b44:	2301      	movs	r3, #1
  402b46:	4083      	lsls	r3, r0
  402b48:	430b      	orrs	r3, r1
  402b4a:	6013      	str	r3, [r2, #0]
  402b4c:	eb00 0080 	add.w	r0, r0, r0, lsl #2
  402b50:	4629      	mov	r1, r5
  402b52:	4b04      	ldr	r3, [pc, #16]	; (402b64 <vTaskPriorityInherit+0x94>)
  402b54:	eb03 0080 	add.w	r0, r3, r0, lsl #2
  402b58:	4b05      	ldr	r3, [pc, #20]	; (402b70 <vTaskPriorityInherit+0xa0>)
  402b5a:	4798      	blx	r3
  402b5c:	bd38      	pop	{r3, r4, r5, pc}
  402b5e:	4770      	bx	lr
  402b60:	20400c64 	.word	0x20400c64
  402b64:	20400c70 	.word	0x20400c70
  402b68:	004013e1 	.word	0x004013e1
  402b6c:	20400ce8 	.word	0x20400ce8
  402b70:	00401395 	.word	0x00401395

00402b74 <xTaskPriorityDisinherit>:
  402b74:	2800      	cmp	r0, #0
  402b76:	d04d      	beq.n	402c14 <xTaskPriorityDisinherit+0xa0>
  402b78:	b538      	push	{r3, r4, r5, lr}
  402b7a:	4604      	mov	r4, r0
  402b7c:	4a27      	ldr	r2, [pc, #156]	; (402c1c <xTaskPriorityDisinherit+0xa8>)
  402b7e:	6812      	ldr	r2, [r2, #0]
  402b80:	4290      	cmp	r0, r2
  402b82:	d00a      	beq.n	402b9a <xTaskPriorityDisinherit+0x26>
  402b84:	f04f 0380 	mov.w	r3, #128	; 0x80
  402b88:	b672      	cpsid	i
  402b8a:	f383 8811 	msr	BASEPRI, r3
  402b8e:	f3bf 8f6f 	isb	sy
  402b92:	f3bf 8f4f 	dsb	sy
  402b96:	b662      	cpsie	i
  402b98:	e7fe      	b.n	402b98 <xTaskPriorityDisinherit+0x24>
  402b9a:	6cc2      	ldr	r2, [r0, #76]	; 0x4c
  402b9c:	b952      	cbnz	r2, 402bb4 <xTaskPriorityDisinherit+0x40>
  402b9e:	f04f 0380 	mov.w	r3, #128	; 0x80
  402ba2:	b672      	cpsid	i
  402ba4:	f383 8811 	msr	BASEPRI, r3
  402ba8:	f3bf 8f6f 	isb	sy
  402bac:	f3bf 8f4f 	dsb	sy
  402bb0:	b662      	cpsie	i
  402bb2:	e7fe      	b.n	402bb2 <xTaskPriorityDisinherit+0x3e>
  402bb4:	3a01      	subs	r2, #1
  402bb6:	64c2      	str	r2, [r0, #76]	; 0x4c
  402bb8:	6ac0      	ldr	r0, [r0, #44]	; 0x2c
  402bba:	6ca1      	ldr	r1, [r4, #72]	; 0x48
  402bbc:	4288      	cmp	r0, r1
  402bbe:	d02b      	beq.n	402c18 <xTaskPriorityDisinherit+0xa4>
  402bc0:	bb52      	cbnz	r2, 402c18 <xTaskPriorityDisinherit+0xa4>
  402bc2:	1d25      	adds	r5, r4, #4
  402bc4:	4628      	mov	r0, r5
  402bc6:	4b16      	ldr	r3, [pc, #88]	; (402c20 <xTaskPriorityDisinherit+0xac>)
  402bc8:	4798      	blx	r3
  402bca:	b968      	cbnz	r0, 402be8 <xTaskPriorityDisinherit+0x74>
  402bcc:	6ae1      	ldr	r1, [r4, #44]	; 0x2c
  402bce:	eb01 0281 	add.w	r2, r1, r1, lsl #2
  402bd2:	4b14      	ldr	r3, [pc, #80]	; (402c24 <xTaskPriorityDisinherit+0xb0>)
  402bd4:	f853 3022 	ldr.w	r3, [r3, r2, lsl #2]
  402bd8:	b933      	cbnz	r3, 402be8 <xTaskPriorityDisinherit+0x74>
  402bda:	4813      	ldr	r0, [pc, #76]	; (402c28 <xTaskPriorityDisinherit+0xb4>)
  402bdc:	6803      	ldr	r3, [r0, #0]
  402bde:	2201      	movs	r2, #1
  402be0:	408a      	lsls	r2, r1
  402be2:	ea23 0302 	bic.w	r3, r3, r2
  402be6:	6003      	str	r3, [r0, #0]
  402be8:	6ca0      	ldr	r0, [r4, #72]	; 0x48
  402bea:	62e0      	str	r0, [r4, #44]	; 0x2c
  402bec:	f1c0 0305 	rsb	r3, r0, #5
  402bf0:	61a3      	str	r3, [r4, #24]
  402bf2:	4a0d      	ldr	r2, [pc, #52]	; (402c28 <xTaskPriorityDisinherit+0xb4>)
  402bf4:	6811      	ldr	r1, [r2, #0]
  402bf6:	2401      	movs	r4, #1
  402bf8:	fa04 f300 	lsl.w	r3, r4, r0
  402bfc:	430b      	orrs	r3, r1
  402bfe:	6013      	str	r3, [r2, #0]
  402c00:	eb00 0080 	add.w	r0, r0, r0, lsl #2
  402c04:	4629      	mov	r1, r5
  402c06:	4b07      	ldr	r3, [pc, #28]	; (402c24 <xTaskPriorityDisinherit+0xb0>)
  402c08:	eb03 0080 	add.w	r0, r3, r0, lsl #2
  402c0c:	4b07      	ldr	r3, [pc, #28]	; (402c2c <xTaskPriorityDisinherit+0xb8>)
  402c0e:	4798      	blx	r3
  402c10:	4620      	mov	r0, r4
  402c12:	bd38      	pop	{r3, r4, r5, pc}
  402c14:	2000      	movs	r0, #0
  402c16:	4770      	bx	lr
  402c18:	2000      	movs	r0, #0
  402c1a:	bd38      	pop	{r3, r4, r5, pc}
  402c1c:	20400c64 	.word	0x20400c64
  402c20:	004013e1 	.word	0x004013e1
  402c24:	20400c70 	.word	0x20400c70
  402c28:	20400ce8 	.word	0x20400ce8
  402c2c:	00401395 	.word	0x00401395

00402c30 <pvTaskIncrementMutexHeldCount>:
  402c30:	4b05      	ldr	r3, [pc, #20]	; (402c48 <pvTaskIncrementMutexHeldCount+0x18>)
  402c32:	681b      	ldr	r3, [r3, #0]
  402c34:	b123      	cbz	r3, 402c40 <pvTaskIncrementMutexHeldCount+0x10>
  402c36:	4b04      	ldr	r3, [pc, #16]	; (402c48 <pvTaskIncrementMutexHeldCount+0x18>)
  402c38:	681a      	ldr	r2, [r3, #0]
  402c3a:	6cd3      	ldr	r3, [r2, #76]	; 0x4c
  402c3c:	3301      	adds	r3, #1
  402c3e:	64d3      	str	r3, [r2, #76]	; 0x4c
  402c40:	4b01      	ldr	r3, [pc, #4]	; (402c48 <pvTaskIncrementMutexHeldCount+0x18>)
  402c42:	6818      	ldr	r0, [r3, #0]
  402c44:	4770      	bx	lr
  402c46:	bf00      	nop
  402c48:	20400c64 	.word	0x20400c64

00402c4c <prvInsertTimerInActiveList>:
  402c4c:	b508      	push	{r3, lr}
  402c4e:	6041      	str	r1, [r0, #4]
  402c50:	6100      	str	r0, [r0, #16]
  402c52:	4291      	cmp	r1, r2
  402c54:	d80c      	bhi.n	402c70 <prvInsertTimerInActiveList+0x24>
  402c56:	1ad2      	subs	r2, r2, r3
  402c58:	6983      	ldr	r3, [r0, #24]
  402c5a:	429a      	cmp	r2, r3
  402c5c:	d301      	bcc.n	402c62 <prvInsertTimerInActiveList+0x16>
  402c5e:	2001      	movs	r0, #1
  402c60:	bd08      	pop	{r3, pc}
  402c62:	1d01      	adds	r1, r0, #4
  402c64:	4b09      	ldr	r3, [pc, #36]	; (402c8c <prvInsertTimerInActiveList+0x40>)
  402c66:	6818      	ldr	r0, [r3, #0]
  402c68:	4b09      	ldr	r3, [pc, #36]	; (402c90 <prvInsertTimerInActiveList+0x44>)
  402c6a:	4798      	blx	r3
  402c6c:	2000      	movs	r0, #0
  402c6e:	bd08      	pop	{r3, pc}
  402c70:	429a      	cmp	r2, r3
  402c72:	d203      	bcs.n	402c7c <prvInsertTimerInActiveList+0x30>
  402c74:	4299      	cmp	r1, r3
  402c76:	d301      	bcc.n	402c7c <prvInsertTimerInActiveList+0x30>
  402c78:	2001      	movs	r0, #1
  402c7a:	bd08      	pop	{r3, pc}
  402c7c:	1d01      	adds	r1, r0, #4
  402c7e:	4b05      	ldr	r3, [pc, #20]	; (402c94 <prvInsertTimerInActiveList+0x48>)
  402c80:	6818      	ldr	r0, [r3, #0]
  402c82:	4b03      	ldr	r3, [pc, #12]	; (402c90 <prvInsertTimerInActiveList+0x44>)
  402c84:	4798      	blx	r3
  402c86:	2000      	movs	r0, #0
  402c88:	bd08      	pop	{r3, pc}
  402c8a:	bf00      	nop
  402c8c:	20400d68 	.word	0x20400d68
  402c90:	004013ad 	.word	0x004013ad
  402c94:	20400d64 	.word	0x20400d64

00402c98 <prvCheckForValidListAndQueue>:
  402c98:	b570      	push	{r4, r5, r6, lr}
  402c9a:	4b15      	ldr	r3, [pc, #84]	; (402cf0 <prvCheckForValidListAndQueue+0x58>)
  402c9c:	4798      	blx	r3
  402c9e:	4b15      	ldr	r3, [pc, #84]	; (402cf4 <prvCheckForValidListAndQueue+0x5c>)
  402ca0:	681b      	ldr	r3, [r3, #0]
  402ca2:	b113      	cbz	r3, 402caa <prvCheckForValidListAndQueue+0x12>
  402ca4:	4b14      	ldr	r3, [pc, #80]	; (402cf8 <prvCheckForValidListAndQueue+0x60>)
  402ca6:	4798      	blx	r3
  402ca8:	bd70      	pop	{r4, r5, r6, pc}
  402caa:	4d14      	ldr	r5, [pc, #80]	; (402cfc <prvCheckForValidListAndQueue+0x64>)
  402cac:	4628      	mov	r0, r5
  402cae:	4e14      	ldr	r6, [pc, #80]	; (402d00 <prvCheckForValidListAndQueue+0x68>)
  402cb0:	47b0      	blx	r6
  402cb2:	4c14      	ldr	r4, [pc, #80]	; (402d04 <prvCheckForValidListAndQueue+0x6c>)
  402cb4:	4620      	mov	r0, r4
  402cb6:	47b0      	blx	r6
  402cb8:	4b13      	ldr	r3, [pc, #76]	; (402d08 <prvCheckForValidListAndQueue+0x70>)
  402cba:	601d      	str	r5, [r3, #0]
  402cbc:	4b13      	ldr	r3, [pc, #76]	; (402d0c <prvCheckForValidListAndQueue+0x74>)
  402cbe:	601c      	str	r4, [r3, #0]
  402cc0:	2200      	movs	r2, #0
  402cc2:	2110      	movs	r1, #16
  402cc4:	2005      	movs	r0, #5
  402cc6:	4b12      	ldr	r3, [pc, #72]	; (402d10 <prvCheckForValidListAndQueue+0x78>)
  402cc8:	4798      	blx	r3
  402cca:	4b0a      	ldr	r3, [pc, #40]	; (402cf4 <prvCheckForValidListAndQueue+0x5c>)
  402ccc:	6018      	str	r0, [r3, #0]
  402cce:	b118      	cbz	r0, 402cd8 <prvCheckForValidListAndQueue+0x40>
  402cd0:	4910      	ldr	r1, [pc, #64]	; (402d14 <prvCheckForValidListAndQueue+0x7c>)
  402cd2:	4b11      	ldr	r3, [pc, #68]	; (402d18 <prvCheckForValidListAndQueue+0x80>)
  402cd4:	4798      	blx	r3
  402cd6:	e7e5      	b.n	402ca4 <prvCheckForValidListAndQueue+0xc>
  402cd8:	f04f 0380 	mov.w	r3, #128	; 0x80
  402cdc:	b672      	cpsid	i
  402cde:	f383 8811 	msr	BASEPRI, r3
  402ce2:	f3bf 8f6f 	isb	sy
  402ce6:	f3bf 8f4f 	dsb	sy
  402cea:	b662      	cpsie	i
  402cec:	e7fe      	b.n	402cec <prvCheckForValidListAndQueue+0x54>
  402cee:	bf00      	nop
  402cf0:	004014c5 	.word	0x004014c5
  402cf4:	20400d98 	.word	0x20400d98
  402cf8:	00401511 	.word	0x00401511
  402cfc:	20400d6c 	.word	0x20400d6c
  402d00:	00401379 	.word	0x00401379
  402d04:	20400d80 	.word	0x20400d80
  402d08:	20400d64 	.word	0x20400d64
  402d0c:	20400d68 	.word	0x20400d68
  402d10:	004019e5 	.word	0x004019e5
  402d14:	00408cc8 	.word	0x00408cc8
  402d18:	00401ff5 	.word	0x00401ff5

00402d1c <xTimerCreateTimerTask>:
  402d1c:	b510      	push	{r4, lr}
  402d1e:	b084      	sub	sp, #16
  402d20:	4b0f      	ldr	r3, [pc, #60]	; (402d60 <xTimerCreateTimerTask+0x44>)
  402d22:	4798      	blx	r3
  402d24:	4b0f      	ldr	r3, [pc, #60]	; (402d64 <xTimerCreateTimerTask+0x48>)
  402d26:	681b      	ldr	r3, [r3, #0]
  402d28:	b173      	cbz	r3, 402d48 <xTimerCreateTimerTask+0x2c>
  402d2a:	2300      	movs	r3, #0
  402d2c:	9303      	str	r3, [sp, #12]
  402d2e:	9302      	str	r3, [sp, #8]
  402d30:	9301      	str	r3, [sp, #4]
  402d32:	2204      	movs	r2, #4
  402d34:	9200      	str	r2, [sp, #0]
  402d36:	f44f 7282 	mov.w	r2, #260	; 0x104
  402d3a:	490b      	ldr	r1, [pc, #44]	; (402d68 <xTimerCreateTimerTask+0x4c>)
  402d3c:	480b      	ldr	r0, [pc, #44]	; (402d6c <xTimerCreateTimerTask+0x50>)
  402d3e:	4c0c      	ldr	r4, [pc, #48]	; (402d70 <xTimerCreateTimerTask+0x54>)
  402d40:	47a0      	blx	r4
  402d42:	b108      	cbz	r0, 402d48 <xTimerCreateTimerTask+0x2c>
  402d44:	b004      	add	sp, #16
  402d46:	bd10      	pop	{r4, pc}
  402d48:	f04f 0380 	mov.w	r3, #128	; 0x80
  402d4c:	b672      	cpsid	i
  402d4e:	f383 8811 	msr	BASEPRI, r3
  402d52:	f3bf 8f6f 	isb	sy
  402d56:	f3bf 8f4f 	dsb	sy
  402d5a:	b662      	cpsie	i
  402d5c:	e7fe      	b.n	402d5c <xTimerCreateTimerTask+0x40>
  402d5e:	bf00      	nop
  402d60:	00402c99 	.word	0x00402c99
  402d64:	20400d98 	.word	0x20400d98
  402d68:	00408cd0 	.word	0x00408cd0
  402d6c:	00402e9d 	.word	0x00402e9d
  402d70:	00402105 	.word	0x00402105

00402d74 <xTimerGenericCommand>:
  402d74:	b1d8      	cbz	r0, 402dae <xTimerGenericCommand+0x3a>
  402d76:	b530      	push	{r4, r5, lr}
  402d78:	b085      	sub	sp, #20
  402d7a:	4615      	mov	r5, r2
  402d7c:	4604      	mov	r4, r0
  402d7e:	4a15      	ldr	r2, [pc, #84]	; (402dd4 <xTimerGenericCommand+0x60>)
  402d80:	6810      	ldr	r0, [r2, #0]
  402d82:	b320      	cbz	r0, 402dce <xTimerGenericCommand+0x5a>
  402d84:	461a      	mov	r2, r3
  402d86:	9100      	str	r1, [sp, #0]
  402d88:	9501      	str	r5, [sp, #4]
  402d8a:	9402      	str	r4, [sp, #8]
  402d8c:	2905      	cmp	r1, #5
  402d8e:	dc19      	bgt.n	402dc4 <xTimerGenericCommand+0x50>
  402d90:	4b11      	ldr	r3, [pc, #68]	; (402dd8 <xTimerGenericCommand+0x64>)
  402d92:	4798      	blx	r3
  402d94:	2802      	cmp	r0, #2
  402d96:	f04f 0300 	mov.w	r3, #0
  402d9a:	bf0c      	ite	eq
  402d9c:	9a08      	ldreq	r2, [sp, #32]
  402d9e:	461a      	movne	r2, r3
  402da0:	4669      	mov	r1, sp
  402da2:	480c      	ldr	r0, [pc, #48]	; (402dd4 <xTimerGenericCommand+0x60>)
  402da4:	6800      	ldr	r0, [r0, #0]
  402da6:	4c0d      	ldr	r4, [pc, #52]	; (402ddc <xTimerGenericCommand+0x68>)
  402da8:	47a0      	blx	r4
  402daa:	b005      	add	sp, #20
  402dac:	bd30      	pop	{r4, r5, pc}
  402dae:	f04f 0380 	mov.w	r3, #128	; 0x80
  402db2:	b672      	cpsid	i
  402db4:	f383 8811 	msr	BASEPRI, r3
  402db8:	f3bf 8f6f 	isb	sy
  402dbc:	f3bf 8f4f 	dsb	sy
  402dc0:	b662      	cpsie	i
  402dc2:	e7fe      	b.n	402dc2 <xTimerGenericCommand+0x4e>
  402dc4:	2300      	movs	r3, #0
  402dc6:	4669      	mov	r1, sp
  402dc8:	4c05      	ldr	r4, [pc, #20]	; (402de0 <xTimerGenericCommand+0x6c>)
  402dca:	47a0      	blx	r4
  402dcc:	e7ed      	b.n	402daa <xTimerGenericCommand+0x36>
  402dce:	2000      	movs	r0, #0
  402dd0:	e7eb      	b.n	402daa <xTimerGenericCommand+0x36>
  402dd2:	bf00      	nop
  402dd4:	20400d98 	.word	0x20400d98
  402dd8:	00402ab1 	.word	0x00402ab1
  402ddc:	00401a61 	.word	0x00401a61
  402de0:	00401c45 	.word	0x00401c45

00402de4 <prvSampleTimeNow>:
  402de4:	e92d 47f0 	stmdb	sp!, {r4, r5, r6, r7, r8, r9, sl, lr}
  402de8:	b082      	sub	sp, #8
  402dea:	4680      	mov	r8, r0
  402dec:	4b24      	ldr	r3, [pc, #144]	; (402e80 <prvSampleTimeNow+0x9c>)
  402dee:	4798      	blx	r3
  402df0:	4607      	mov	r7, r0
  402df2:	4b24      	ldr	r3, [pc, #144]	; (402e84 <prvSampleTimeNow+0xa0>)
  402df4:	681b      	ldr	r3, [r3, #0]
  402df6:	4298      	cmp	r0, r3
  402df8:	d31b      	bcc.n	402e32 <prvSampleTimeNow+0x4e>
  402dfa:	2300      	movs	r3, #0
  402dfc:	f8c8 3000 	str.w	r3, [r8]
  402e00:	4b20      	ldr	r3, [pc, #128]	; (402e84 <prvSampleTimeNow+0xa0>)
  402e02:	601f      	str	r7, [r3, #0]
  402e04:	4638      	mov	r0, r7
  402e06:	b002      	add	sp, #8
  402e08:	e8bd 87f0 	ldmia.w	sp!, {r4, r5, r6, r7, r8, r9, sl, pc}
  402e0c:	2100      	movs	r1, #0
  402e0e:	9100      	str	r1, [sp, #0]
  402e10:	460b      	mov	r3, r1
  402e12:	4652      	mov	r2, sl
  402e14:	4620      	mov	r0, r4
  402e16:	4c1c      	ldr	r4, [pc, #112]	; (402e88 <prvSampleTimeNow+0xa4>)
  402e18:	47a0      	blx	r4
  402e1a:	b960      	cbnz	r0, 402e36 <prvSampleTimeNow+0x52>
  402e1c:	f04f 0380 	mov.w	r3, #128	; 0x80
  402e20:	b672      	cpsid	i
  402e22:	f383 8811 	msr	BASEPRI, r3
  402e26:	f3bf 8f6f 	isb	sy
  402e2a:	f3bf 8f4f 	dsb	sy
  402e2e:	b662      	cpsie	i
  402e30:	e7fe      	b.n	402e30 <prvSampleTimeNow+0x4c>
  402e32:	4d16      	ldr	r5, [pc, #88]	; (402e8c <prvSampleTimeNow+0xa8>)
  402e34:	4e16      	ldr	r6, [pc, #88]	; (402e90 <prvSampleTimeNow+0xac>)
  402e36:	682b      	ldr	r3, [r5, #0]
  402e38:	681a      	ldr	r2, [r3, #0]
  402e3a:	b1c2      	cbz	r2, 402e6e <prvSampleTimeNow+0x8a>
  402e3c:	68db      	ldr	r3, [r3, #12]
  402e3e:	f8d3 a000 	ldr.w	sl, [r3]
  402e42:	68dc      	ldr	r4, [r3, #12]
  402e44:	f104 0904 	add.w	r9, r4, #4
  402e48:	4648      	mov	r0, r9
  402e4a:	47b0      	blx	r6
  402e4c:	6a63      	ldr	r3, [r4, #36]	; 0x24
  402e4e:	4620      	mov	r0, r4
  402e50:	4798      	blx	r3
  402e52:	69e3      	ldr	r3, [r4, #28]
  402e54:	2b01      	cmp	r3, #1
  402e56:	d1ee      	bne.n	402e36 <prvSampleTimeNow+0x52>
  402e58:	69a3      	ldr	r3, [r4, #24]
  402e5a:	4453      	add	r3, sl
  402e5c:	459a      	cmp	sl, r3
  402e5e:	d2d5      	bcs.n	402e0c <prvSampleTimeNow+0x28>
  402e60:	6063      	str	r3, [r4, #4]
  402e62:	6124      	str	r4, [r4, #16]
  402e64:	4649      	mov	r1, r9
  402e66:	6828      	ldr	r0, [r5, #0]
  402e68:	4b0a      	ldr	r3, [pc, #40]	; (402e94 <prvSampleTimeNow+0xb0>)
  402e6a:	4798      	blx	r3
  402e6c:	e7e3      	b.n	402e36 <prvSampleTimeNow+0x52>
  402e6e:	4a0a      	ldr	r2, [pc, #40]	; (402e98 <prvSampleTimeNow+0xb4>)
  402e70:	6810      	ldr	r0, [r2, #0]
  402e72:	4906      	ldr	r1, [pc, #24]	; (402e8c <prvSampleTimeNow+0xa8>)
  402e74:	6008      	str	r0, [r1, #0]
  402e76:	6013      	str	r3, [r2, #0]
  402e78:	2301      	movs	r3, #1
  402e7a:	f8c8 3000 	str.w	r3, [r8]
  402e7e:	e7bf      	b.n	402e00 <prvSampleTimeNow+0x1c>
  402e80:	004023d5 	.word	0x004023d5
  402e84:	20400d94 	.word	0x20400d94
  402e88:	00402d75 	.word	0x00402d75
  402e8c:	20400d64 	.word	0x20400d64
  402e90:	004013e1 	.word	0x004013e1
  402e94:	004013ad 	.word	0x004013ad
  402e98:	20400d68 	.word	0x20400d68

00402e9c <prvTimerTask>:
  402e9c:	e92d 47f0 	stmdb	sp!, {r4, r5, r6, r7, r8, r9, sl, lr}
  402ea0:	b088      	sub	sp, #32
  402ea2:	4e75      	ldr	r6, [pc, #468]	; (403078 <prvTimerTask+0x1dc>)
  402ea4:	4f75      	ldr	r7, [pc, #468]	; (40307c <prvTimerTask+0x1e0>)
  402ea6:	f8df 91fc 	ldr.w	r9, [pc, #508]	; 4030a4 <prvTimerTask+0x208>
  402eaa:	f8df 81fc 	ldr.w	r8, [pc, #508]	; 4030a8 <prvTimerTask+0x20c>
  402eae:	6833      	ldr	r3, [r6, #0]
  402eb0:	681a      	ldr	r2, [r3, #0]
  402eb2:	2a00      	cmp	r2, #0
  402eb4:	f000 80ce 	beq.w	403054 <prvTimerTask+0x1b8>
  402eb8:	68db      	ldr	r3, [r3, #12]
  402eba:	681c      	ldr	r4, [r3, #0]
  402ebc:	47b8      	blx	r7
  402ebe:	a804      	add	r0, sp, #16
  402ec0:	4b6f      	ldr	r3, [pc, #444]	; (403080 <prvTimerTask+0x1e4>)
  402ec2:	4798      	blx	r3
  402ec4:	4605      	mov	r5, r0
  402ec6:	9b04      	ldr	r3, [sp, #16]
  402ec8:	2b00      	cmp	r3, #0
  402eca:	d144      	bne.n	402f56 <prvTimerTask+0xba>
  402ecc:	42a0      	cmp	r0, r4
  402ece:	d212      	bcs.n	402ef6 <prvTimerTask+0x5a>
  402ed0:	2200      	movs	r2, #0
  402ed2:	1b61      	subs	r1, r4, r5
  402ed4:	4b6b      	ldr	r3, [pc, #428]	; (403084 <prvTimerTask+0x1e8>)
  402ed6:	6818      	ldr	r0, [r3, #0]
  402ed8:	4b6b      	ldr	r3, [pc, #428]	; (403088 <prvTimerTask+0x1ec>)
  402eda:	4798      	blx	r3
  402edc:	4b6b      	ldr	r3, [pc, #428]	; (40308c <prvTimerTask+0x1f0>)
  402ede:	4798      	blx	r3
  402ee0:	2800      	cmp	r0, #0
  402ee2:	d13a      	bne.n	402f5a <prvTimerTask+0xbe>
  402ee4:	f04f 5380 	mov.w	r3, #268435456	; 0x10000000
  402ee8:	f8c9 3000 	str.w	r3, [r9]
  402eec:	f3bf 8f4f 	dsb	sy
  402ef0:	f3bf 8f6f 	isb	sy
  402ef4:	e031      	b.n	402f5a <prvTimerTask+0xbe>
  402ef6:	4b65      	ldr	r3, [pc, #404]	; (40308c <prvTimerTask+0x1f0>)
  402ef8:	4798      	blx	r3
  402efa:	6833      	ldr	r3, [r6, #0]
  402efc:	68db      	ldr	r3, [r3, #12]
  402efe:	f8d3 a00c 	ldr.w	sl, [r3, #12]
  402f02:	f10a 0004 	add.w	r0, sl, #4
  402f06:	47c0      	blx	r8
  402f08:	f8da 301c 	ldr.w	r3, [sl, #28]
  402f0c:	2b01      	cmp	r3, #1
  402f0e:	d004      	beq.n	402f1a <prvTimerTask+0x7e>
  402f10:	f8da 3024 	ldr.w	r3, [sl, #36]	; 0x24
  402f14:	4650      	mov	r0, sl
  402f16:	4798      	blx	r3
  402f18:	e01f      	b.n	402f5a <prvTimerTask+0xbe>
  402f1a:	f8da 1018 	ldr.w	r1, [sl, #24]
  402f1e:	4623      	mov	r3, r4
  402f20:	462a      	mov	r2, r5
  402f22:	4421      	add	r1, r4
  402f24:	4650      	mov	r0, sl
  402f26:	4d5a      	ldr	r5, [pc, #360]	; (403090 <prvTimerTask+0x1f4>)
  402f28:	47a8      	blx	r5
  402f2a:	2801      	cmp	r0, #1
  402f2c:	d1f0      	bne.n	402f10 <prvTimerTask+0x74>
  402f2e:	2100      	movs	r1, #0
  402f30:	9100      	str	r1, [sp, #0]
  402f32:	460b      	mov	r3, r1
  402f34:	4622      	mov	r2, r4
  402f36:	4650      	mov	r0, sl
  402f38:	4c56      	ldr	r4, [pc, #344]	; (403094 <prvTimerTask+0x1f8>)
  402f3a:	47a0      	blx	r4
  402f3c:	2800      	cmp	r0, #0
  402f3e:	d1e7      	bne.n	402f10 <prvTimerTask+0x74>
  402f40:	f04f 0380 	mov.w	r3, #128	; 0x80
  402f44:	b672      	cpsid	i
  402f46:	f383 8811 	msr	BASEPRI, r3
  402f4a:	f3bf 8f6f 	isb	sy
  402f4e:	f3bf 8f4f 	dsb	sy
  402f52:	b662      	cpsie	i
  402f54:	e7fe      	b.n	402f54 <prvTimerTask+0xb8>
  402f56:	4b4d      	ldr	r3, [pc, #308]	; (40308c <prvTimerTask+0x1f0>)
  402f58:	4798      	blx	r3
  402f5a:	4d4a      	ldr	r5, [pc, #296]	; (403084 <prvTimerTask+0x1e8>)
  402f5c:	4c4e      	ldr	r4, [pc, #312]	; (403098 <prvTimerTask+0x1fc>)
  402f5e:	e006      	b.n	402f6e <prvTimerTask+0xd2>
  402f60:	9907      	ldr	r1, [sp, #28]
  402f62:	9806      	ldr	r0, [sp, #24]
  402f64:	9b05      	ldr	r3, [sp, #20]
  402f66:	4798      	blx	r3
  402f68:	9b04      	ldr	r3, [sp, #16]
  402f6a:	2b00      	cmp	r3, #0
  402f6c:	da09      	bge.n	402f82 <prvTimerTask+0xe6>
  402f6e:	2300      	movs	r3, #0
  402f70:	461a      	mov	r2, r3
  402f72:	a904      	add	r1, sp, #16
  402f74:	6828      	ldr	r0, [r5, #0]
  402f76:	47a0      	blx	r4
  402f78:	2800      	cmp	r0, #0
  402f7a:	d098      	beq.n	402eae <prvTimerTask+0x12>
  402f7c:	9b04      	ldr	r3, [sp, #16]
  402f7e:	2b00      	cmp	r3, #0
  402f80:	dbee      	blt.n	402f60 <prvTimerTask+0xc4>
  402f82:	f8dd a018 	ldr.w	sl, [sp, #24]
  402f86:	f8da 3014 	ldr.w	r3, [sl, #20]
  402f8a:	b113      	cbz	r3, 402f92 <prvTimerTask+0xf6>
  402f8c:	f10a 0004 	add.w	r0, sl, #4
  402f90:	47c0      	blx	r8
  402f92:	a803      	add	r0, sp, #12
  402f94:	4b3a      	ldr	r3, [pc, #232]	; (403080 <prvTimerTask+0x1e4>)
  402f96:	4798      	blx	r3
  402f98:	9b04      	ldr	r3, [sp, #16]
  402f9a:	2b09      	cmp	r3, #9
  402f9c:	d8e7      	bhi.n	402f6e <prvTimerTask+0xd2>
  402f9e:	a201      	add	r2, pc, #4	; (adr r2, 402fa4 <prvTimerTask+0x108>)
  402fa0:	f852 f023 	ldr.w	pc, [r2, r3, lsl #2]
  402fa4:	00402fcd 	.word	0x00402fcd
  402fa8:	00402fcd 	.word	0x00402fcd
  402fac:	00402fcd 	.word	0x00402fcd
  402fb0:	00402f6f 	.word	0x00402f6f
  402fb4:	00403021 	.word	0x00403021
  402fb8:	0040304d 	.word	0x0040304d
  402fbc:	00402fcd 	.word	0x00402fcd
  402fc0:	00402fcd 	.word	0x00402fcd
  402fc4:	00402f6f 	.word	0x00402f6f
  402fc8:	00403021 	.word	0x00403021
  402fcc:	9c05      	ldr	r4, [sp, #20]
  402fce:	f8da 1018 	ldr.w	r1, [sl, #24]
  402fd2:	4623      	mov	r3, r4
  402fd4:	4602      	mov	r2, r0
  402fd6:	4421      	add	r1, r4
  402fd8:	4650      	mov	r0, sl
  402fda:	4c2d      	ldr	r4, [pc, #180]	; (403090 <prvTimerTask+0x1f4>)
  402fdc:	47a0      	blx	r4
  402fde:	2801      	cmp	r0, #1
  402fe0:	d1bc      	bne.n	402f5c <prvTimerTask+0xc0>
  402fe2:	f8da 3024 	ldr.w	r3, [sl, #36]	; 0x24
  402fe6:	4650      	mov	r0, sl
  402fe8:	4798      	blx	r3
  402fea:	f8da 301c 	ldr.w	r3, [sl, #28]
  402fee:	2b01      	cmp	r3, #1
  402ff0:	d1b4      	bne.n	402f5c <prvTimerTask+0xc0>
  402ff2:	f8da 2018 	ldr.w	r2, [sl, #24]
  402ff6:	2100      	movs	r1, #0
  402ff8:	9100      	str	r1, [sp, #0]
  402ffa:	460b      	mov	r3, r1
  402ffc:	9805      	ldr	r0, [sp, #20]
  402ffe:	4402      	add	r2, r0
  403000:	4650      	mov	r0, sl
  403002:	4c24      	ldr	r4, [pc, #144]	; (403094 <prvTimerTask+0x1f8>)
  403004:	47a0      	blx	r4
  403006:	2800      	cmp	r0, #0
  403008:	d1a8      	bne.n	402f5c <prvTimerTask+0xc0>
  40300a:	f04f 0380 	mov.w	r3, #128	; 0x80
  40300e:	b672      	cpsid	i
  403010:	f383 8811 	msr	BASEPRI, r3
  403014:	f3bf 8f6f 	isb	sy
  403018:	f3bf 8f4f 	dsb	sy
  40301c:	b662      	cpsie	i
  40301e:	e7fe      	b.n	40301e <prvTimerTask+0x182>
  403020:	9905      	ldr	r1, [sp, #20]
  403022:	f8ca 1018 	str.w	r1, [sl, #24]
  403026:	b131      	cbz	r1, 403036 <prvTimerTask+0x19a>
  403028:	4603      	mov	r3, r0
  40302a:	4602      	mov	r2, r0
  40302c:	4401      	add	r1, r0
  40302e:	4650      	mov	r0, sl
  403030:	4c17      	ldr	r4, [pc, #92]	; (403090 <prvTimerTask+0x1f4>)
  403032:	47a0      	blx	r4
  403034:	e792      	b.n	402f5c <prvTimerTask+0xc0>
  403036:	f04f 0380 	mov.w	r3, #128	; 0x80
  40303a:	b672      	cpsid	i
  40303c:	f383 8811 	msr	BASEPRI, r3
  403040:	f3bf 8f6f 	isb	sy
  403044:	f3bf 8f4f 	dsb	sy
  403048:	b662      	cpsie	i
  40304a:	e7fe      	b.n	40304a <prvTimerTask+0x1ae>
  40304c:	4650      	mov	r0, sl
  40304e:	4b13      	ldr	r3, [pc, #76]	; (40309c <prvTimerTask+0x200>)
  403050:	4798      	blx	r3
  403052:	e783      	b.n	402f5c <prvTimerTask+0xc0>
  403054:	47b8      	blx	r7
  403056:	a804      	add	r0, sp, #16
  403058:	4b09      	ldr	r3, [pc, #36]	; (403080 <prvTimerTask+0x1e4>)
  40305a:	4798      	blx	r3
  40305c:	4605      	mov	r5, r0
  40305e:	9b04      	ldr	r3, [sp, #16]
  403060:	2b00      	cmp	r3, #0
  403062:	f47f af78 	bne.w	402f56 <prvTimerTask+0xba>
  403066:	4b0e      	ldr	r3, [pc, #56]	; (4030a0 <prvTimerTask+0x204>)
  403068:	681b      	ldr	r3, [r3, #0]
  40306a:	681a      	ldr	r2, [r3, #0]
  40306c:	fab2 f282 	clz	r2, r2
  403070:	0952      	lsrs	r2, r2, #5
  403072:	2400      	movs	r4, #0
  403074:	e72d      	b.n	402ed2 <prvTimerTask+0x36>
  403076:	bf00      	nop
  403078:	20400d64 	.word	0x20400d64
  40307c:	004023c5 	.word	0x004023c5
  403080:	00402de5 	.word	0x00402de5
  403084:	20400d98 	.word	0x20400d98
  403088:	00402029 	.word	0x00402029
  40308c:	0040252d 	.word	0x0040252d
  403090:	00402c4d 	.word	0x00402c4d
  403094:	00402d75 	.word	0x00402d75
  403098:	00401e25 	.word	0x00401e25
  40309c:	00401751 	.word	0x00401751
  4030a0:	20400d68 	.word	0x20400d68
  4030a4:	e000ed04 	.word	0xe000ed04
  4030a8:	004013e1 	.word	0x004013e1

004030ac <but_callback>:

/************************************************************************/
/* handlers / callbacks                                                 */
/************************************************************************/

void but_callback(void) {
  4030ac:	b500      	push	{lr}
  4030ae:	b083      	sub	sp, #12
	BaseType_t xHigherPriorityTaskWoken = pdFALSE;
  4030b0:	a902      	add	r1, sp, #8
  4030b2:	2300      	movs	r3, #0
  4030b4:	f841 3d04 	str.w	r3, [r1, #-4]!
	xSemaphoreGiveFromISR(xSemaphore, &xHigherPriorityTaskWoken);
  4030b8:	4b03      	ldr	r3, [pc, #12]	; (4030c8 <but_callback+0x1c>)
  4030ba:	6818      	ldr	r0, [r3, #0]
  4030bc:	4b03      	ldr	r3, [pc, #12]	; (4030cc <but_callback+0x20>)
  4030be:	4798      	blx	r3
}
  4030c0:	b003      	add	sp, #12
  4030c2:	f85d fb04 	ldr.w	pc, [sp], #4
  4030c6:	bf00      	nop
  4030c8:	20400d9c 	.word	0x20400d9c
  4030cc:	00401d45 	.word	0x00401d45

004030d0 <task_debug>:
/************************************************************************/
/* TASKS                                                                */
/************************************************************************/


static void task_debug(void *pvParameters) {
  4030d0:	b580      	push	{r7, lr}
  4030d2:	b082      	sub	sp, #8
	gfx_mono_ssd1306_init();
  4030d4:	4b0c      	ldr	r3, [pc, #48]	; (403108 <task_debug+0x38>)
  4030d6:	4798      	blx	r3

	for (;;) {
		gfx_mono_draw_filled_circle(10,10,4,1,GFX_WHOLE);
  4030d8:	f04f 0804 	mov.w	r8, #4
  4030dc:	270a      	movs	r7, #10
  4030de:	4e0b      	ldr	r6, [pc, #44]	; (40310c <task_debug+0x3c>)
  4030e0:	25ff      	movs	r5, #255	; 0xff
  4030e2:	9500      	str	r5, [sp, #0]
  4030e4:	2301      	movs	r3, #1
  4030e6:	4642      	mov	r2, r8
  4030e8:	4639      	mov	r1, r7
  4030ea:	4638      	mov	r0, r7
  4030ec:	47b0      	blx	r6
		vTaskDelay(150);
  4030ee:	2096      	movs	r0, #150	; 0x96
  4030f0:	4c07      	ldr	r4, [pc, #28]	; (403110 <task_debug+0x40>)
  4030f2:	47a0      	blx	r4
		gfx_mono_draw_filled_circle(10,10,4,0,GFX_WHOLE);
  4030f4:	9500      	str	r5, [sp, #0]
  4030f6:	2300      	movs	r3, #0
  4030f8:	4642      	mov	r2, r8
  4030fa:	4639      	mov	r1, r7
  4030fc:	4638      	mov	r0, r7
  4030fe:	47b0      	blx	r6
		vTaskDelay(150);
  403100:	2096      	movs	r0, #150	; 0x96
  403102:	47a0      	blx	r4
  403104:	e7ec      	b.n	4030e0 <task_debug+0x10>
  403106:	bf00      	nop
  403108:	00400531 	.word	0x00400531
  40310c:	004003c5 	.word	0x004003c5
  403110:	0040264d 	.word	0x0040264d

00403114 <usart_serial_getchar>:
 * \param p_usart   Base address of the USART instance.
 * \param data   Data to read
 *
 */
static inline void usart_serial_getchar(usart_if p_usart, uint8_t *data)
{
  403114:	b5f0      	push	{r4, r5, r6, r7, lr}
  403116:	b083      	sub	sp, #12
  403118:	4605      	mov	r5, r0
  40311a:	460c      	mov	r4, r1
	uint32_t val = 0;
  40311c:	2300      	movs	r3, #0
  40311e:	9301      	str	r3, [sp, #4]
	if (UART == (Uart*)p_usart) {
		while (uart_read((Uart*)p_usart, data));
	}
#else
# ifdef UART0
	if (UART0 == (Uart*)p_usart) {
  403120:	4b2a      	ldr	r3, [pc, #168]	; (4031cc <usart_serial_getchar+0xb8>)
  403122:	4298      	cmp	r0, r3
  403124:	d013      	beq.n	40314e <usart_serial_getchar+0x3a>
		while (uart_read((Uart*)p_usart, data));
	}
# endif
# ifdef UART1
	if (UART1 == (Uart*)p_usart) {
  403126:	4b2a      	ldr	r3, [pc, #168]	; (4031d0 <usart_serial_getchar+0xbc>)
  403128:	4298      	cmp	r0, r3
  40312a:	d018      	beq.n	40315e <usart_serial_getchar+0x4a>
		while (uart_read((Uart*)p_usart, data));
	}
# endif
# ifdef UART2
	if (UART2 == (Uart*)p_usart) {
  40312c:	4b29      	ldr	r3, [pc, #164]	; (4031d4 <usart_serial_getchar+0xc0>)
  40312e:	4298      	cmp	r0, r3
  403130:	d01d      	beq.n	40316e <usart_serial_getchar+0x5a>
		while (uart_read((Uart*)p_usart, data));
	}
# endif
# ifdef UART3
	if (UART3 == (Uart*)p_usart) {
  403132:	4b29      	ldr	r3, [pc, #164]	; (4031d8 <usart_serial_getchar+0xc4>)
  403134:	429d      	cmp	r5, r3
  403136:	d022      	beq.n	40317e <usart_serial_getchar+0x6a>
		while (usart_read(p_usart, &val));
		*data = (uint8_t)(val & 0xFF);
	}
#else
# ifdef USART0
	if (USART0 == p_usart) {
  403138:	4b28      	ldr	r3, [pc, #160]	; (4031dc <usart_serial_getchar+0xc8>)
  40313a:	429d      	cmp	r5, r3
  40313c:	d027      	beq.n	40318e <usart_serial_getchar+0x7a>
		while (usart_read(p_usart, &val));
		*data = (uint8_t)(val & 0xFF);
	}
# endif
# ifdef USART1
	if (USART1 == p_usart) {
  40313e:	4b28      	ldr	r3, [pc, #160]	; (4031e0 <usart_serial_getchar+0xcc>)
  403140:	429d      	cmp	r5, r3
  403142:	d02e      	beq.n	4031a2 <usart_serial_getchar+0x8e>
		while (usart_read(p_usart, &val));
		*data = (uint8_t)(val & 0xFF);
	}
# endif
# ifdef USART2
	if (USART2 == p_usart) {
  403144:	4b27      	ldr	r3, [pc, #156]	; (4031e4 <usart_serial_getchar+0xd0>)
  403146:	429d      	cmp	r5, r3
  403148:	d035      	beq.n	4031b6 <usart_serial_getchar+0xa2>
		*data = (uint8_t)(val & 0xFF);
	}
# endif
#endif /* ifdef USART */

}
  40314a:	b003      	add	sp, #12
  40314c:	bdf0      	pop	{r4, r5, r6, r7, pc}
		while (uart_read((Uart*)p_usart, data));
  40314e:	461f      	mov	r7, r3
  403150:	4e25      	ldr	r6, [pc, #148]	; (4031e8 <usart_serial_getchar+0xd4>)
  403152:	4621      	mov	r1, r4
  403154:	4638      	mov	r0, r7
  403156:	47b0      	blx	r6
  403158:	2800      	cmp	r0, #0
  40315a:	d1fa      	bne.n	403152 <usart_serial_getchar+0x3e>
  40315c:	e7e9      	b.n	403132 <usart_serial_getchar+0x1e>
		while (uart_read((Uart*)p_usart, data));
  40315e:	461f      	mov	r7, r3
  403160:	4e21      	ldr	r6, [pc, #132]	; (4031e8 <usart_serial_getchar+0xd4>)
  403162:	4621      	mov	r1, r4
  403164:	4638      	mov	r0, r7
  403166:	47b0      	blx	r6
  403168:	2800      	cmp	r0, #0
  40316a:	d1fa      	bne.n	403162 <usart_serial_getchar+0x4e>
  40316c:	e7e4      	b.n	403138 <usart_serial_getchar+0x24>
		while (uart_read((Uart*)p_usart, data));
  40316e:	461f      	mov	r7, r3
  403170:	4e1d      	ldr	r6, [pc, #116]	; (4031e8 <usart_serial_getchar+0xd4>)
  403172:	4621      	mov	r1, r4
  403174:	4638      	mov	r0, r7
  403176:	47b0      	blx	r6
  403178:	2800      	cmp	r0, #0
  40317a:	d1fa      	bne.n	403172 <usart_serial_getchar+0x5e>
  40317c:	e7df      	b.n	40313e <usart_serial_getchar+0x2a>
		while (uart_read((Uart*)p_usart, data));
  40317e:	461f      	mov	r7, r3
  403180:	4e19      	ldr	r6, [pc, #100]	; (4031e8 <usart_serial_getchar+0xd4>)
  403182:	4621      	mov	r1, r4
  403184:	4638      	mov	r0, r7
  403186:	47b0      	blx	r6
  403188:	2800      	cmp	r0, #0
  40318a:	d1fa      	bne.n	403182 <usart_serial_getchar+0x6e>
  40318c:	e7da      	b.n	403144 <usart_serial_getchar+0x30>
		while (usart_read(p_usart, &val));
  40318e:	461e      	mov	r6, r3
  403190:	4d16      	ldr	r5, [pc, #88]	; (4031ec <usart_serial_getchar+0xd8>)
  403192:	a901      	add	r1, sp, #4
  403194:	4630      	mov	r0, r6
  403196:	47a8      	blx	r5
  403198:	2800      	cmp	r0, #0
  40319a:	d1fa      	bne.n	403192 <usart_serial_getchar+0x7e>
		*data = (uint8_t)(val & 0xFF);
  40319c:	9b01      	ldr	r3, [sp, #4]
  40319e:	7023      	strb	r3, [r4, #0]
  4031a0:	e7d3      	b.n	40314a <usart_serial_getchar+0x36>
		while (usart_read(p_usart, &val));
  4031a2:	461e      	mov	r6, r3
  4031a4:	4d11      	ldr	r5, [pc, #68]	; (4031ec <usart_serial_getchar+0xd8>)
  4031a6:	a901      	add	r1, sp, #4
  4031a8:	4630      	mov	r0, r6
  4031aa:	47a8      	blx	r5
  4031ac:	2800      	cmp	r0, #0
  4031ae:	d1fa      	bne.n	4031a6 <usart_serial_getchar+0x92>
		*data = (uint8_t)(val & 0xFF);
  4031b0:	9b01      	ldr	r3, [sp, #4]
  4031b2:	7023      	strb	r3, [r4, #0]
  4031b4:	e7c9      	b.n	40314a <usart_serial_getchar+0x36>
		while (usart_read(p_usart, &val));
  4031b6:	461e      	mov	r6, r3
  4031b8:	4d0c      	ldr	r5, [pc, #48]	; (4031ec <usart_serial_getchar+0xd8>)
  4031ba:	a901      	add	r1, sp, #4
  4031bc:	4630      	mov	r0, r6
  4031be:	47a8      	blx	r5
  4031c0:	2800      	cmp	r0, #0
  4031c2:	d1fa      	bne.n	4031ba <usart_serial_getchar+0xa6>
		*data = (uint8_t)(val & 0xFF);
  4031c4:	9b01      	ldr	r3, [sp, #4]
  4031c6:	7023      	strb	r3, [r4, #0]
}
  4031c8:	e7bf      	b.n	40314a <usart_serial_getchar+0x36>
  4031ca:	bf00      	nop
  4031cc:	400e0800 	.word	0x400e0800
  4031d0:	400e0a00 	.word	0x400e0a00
  4031d4:	400e1a00 	.word	0x400e1a00
  4031d8:	400e1c00 	.word	0x400e1c00
  4031dc:	40024000 	.word	0x40024000
  4031e0:	40028000 	.word	0x40028000
  4031e4:	4002c000 	.word	0x4002c000
  4031e8:	00400fa3 	.word	0x00400fa3
  4031ec:	004010af 	.word	0x004010af

004031f0 <usart_serial_putchar>:
{
  4031f0:	b570      	push	{r4, r5, r6, lr}
  4031f2:	460c      	mov	r4, r1
	if (UART0 == (Uart*)p_usart) {
  4031f4:	4b2a      	ldr	r3, [pc, #168]	; (4032a0 <usart_serial_putchar+0xb0>)
  4031f6:	4298      	cmp	r0, r3
  4031f8:	d013      	beq.n	403222 <usart_serial_putchar+0x32>
	if (UART1 == (Uart*)p_usart) {
  4031fa:	4b2a      	ldr	r3, [pc, #168]	; (4032a4 <usart_serial_putchar+0xb4>)
  4031fc:	4298      	cmp	r0, r3
  4031fe:	d019      	beq.n	403234 <usart_serial_putchar+0x44>
	if (UART2 == (Uart*)p_usart) {
  403200:	4b29      	ldr	r3, [pc, #164]	; (4032a8 <usart_serial_putchar+0xb8>)
  403202:	4298      	cmp	r0, r3
  403204:	d01f      	beq.n	403246 <usart_serial_putchar+0x56>
	if (UART3 == (Uart*)p_usart) {
  403206:	4b29      	ldr	r3, [pc, #164]	; (4032ac <usart_serial_putchar+0xbc>)
  403208:	4298      	cmp	r0, r3
  40320a:	d025      	beq.n	403258 <usart_serial_putchar+0x68>
	if (USART0 == p_usart) {
  40320c:	4b28      	ldr	r3, [pc, #160]	; (4032b0 <usart_serial_putchar+0xc0>)
  40320e:	4298      	cmp	r0, r3
  403210:	d02b      	beq.n	40326a <usart_serial_putchar+0x7a>
	if (USART1 == p_usart) {
  403212:	4b28      	ldr	r3, [pc, #160]	; (4032b4 <usart_serial_putchar+0xc4>)
  403214:	4298      	cmp	r0, r3
  403216:	d031      	beq.n	40327c <usart_serial_putchar+0x8c>
	if (USART2 == p_usart) {
  403218:	4b27      	ldr	r3, [pc, #156]	; (4032b8 <usart_serial_putchar+0xc8>)
  40321a:	4298      	cmp	r0, r3
  40321c:	d037      	beq.n	40328e <usart_serial_putchar+0x9e>
	return 0;
  40321e:	2000      	movs	r0, #0
}
  403220:	bd70      	pop	{r4, r5, r6, pc}
		while (uart_write((Uart*)p_usart, c)!=0);
  403222:	461e      	mov	r6, r3
  403224:	4d25      	ldr	r5, [pc, #148]	; (4032bc <usart_serial_putchar+0xcc>)
  403226:	4621      	mov	r1, r4
  403228:	4630      	mov	r0, r6
  40322a:	47a8      	blx	r5
  40322c:	2800      	cmp	r0, #0
  40322e:	d1fa      	bne.n	403226 <usart_serial_putchar+0x36>
		return 1;
  403230:	2001      	movs	r0, #1
  403232:	bd70      	pop	{r4, r5, r6, pc}
		while (uart_write((Uart*)p_usart, c)!=0);
  403234:	461e      	mov	r6, r3
  403236:	4d21      	ldr	r5, [pc, #132]	; (4032bc <usart_serial_putchar+0xcc>)
  403238:	4621      	mov	r1, r4
  40323a:	4630      	mov	r0, r6
  40323c:	47a8      	blx	r5
  40323e:	2800      	cmp	r0, #0
  403240:	d1fa      	bne.n	403238 <usart_serial_putchar+0x48>
		return 1;
  403242:	2001      	movs	r0, #1
  403244:	bd70      	pop	{r4, r5, r6, pc}
		while (uart_write((Uart*)p_usart, c)!=0);
  403246:	461e      	mov	r6, r3
  403248:	4d1c      	ldr	r5, [pc, #112]	; (4032bc <usart_serial_putchar+0xcc>)
  40324a:	4621      	mov	r1, r4
  40324c:	4630      	mov	r0, r6
  40324e:	47a8      	blx	r5
  403250:	2800      	cmp	r0, #0
  403252:	d1fa      	bne.n	40324a <usart_serial_putchar+0x5a>
		return 1;
  403254:	2001      	movs	r0, #1
  403256:	bd70      	pop	{r4, r5, r6, pc}
		while (uart_write((Uart*)p_usart, c)!=0);
  403258:	461e      	mov	r6, r3
  40325a:	4d18      	ldr	r5, [pc, #96]	; (4032bc <usart_serial_putchar+0xcc>)
  40325c:	4621      	mov	r1, r4
  40325e:	4630      	mov	r0, r6
  403260:	47a8      	blx	r5
  403262:	2800      	cmp	r0, #0
  403264:	d1fa      	bne.n	40325c <usart_serial_putchar+0x6c>
		return 1;
  403266:	2001      	movs	r0, #1
  403268:	bd70      	pop	{r4, r5, r6, pc}
		while (usart_write(p_usart, c)!=0);
  40326a:	461e      	mov	r6, r3
  40326c:	4d14      	ldr	r5, [pc, #80]	; (4032c0 <usart_serial_putchar+0xd0>)
  40326e:	4621      	mov	r1, r4
  403270:	4630      	mov	r0, r6
  403272:	47a8      	blx	r5
  403274:	2800      	cmp	r0, #0
  403276:	d1fa      	bne.n	40326e <usart_serial_putchar+0x7e>
		return 1;
  403278:	2001      	movs	r0, #1
  40327a:	bd70      	pop	{r4, r5, r6, pc}
		while (usart_write(p_usart, c)!=0);
  40327c:	461e      	mov	r6, r3
  40327e:	4d10      	ldr	r5, [pc, #64]	; (4032c0 <usart_serial_putchar+0xd0>)
  403280:	4621      	mov	r1, r4
  403282:	4630      	mov	r0, r6
  403284:	47a8      	blx	r5
  403286:	2800      	cmp	r0, #0
  403288:	d1fa      	bne.n	403280 <usart_serial_putchar+0x90>
		return 1;
  40328a:	2001      	movs	r0, #1
  40328c:	bd70      	pop	{r4, r5, r6, pc}
		while (usart_write(p_usart, c)!=0);
  40328e:	461e      	mov	r6, r3
  403290:	4d0b      	ldr	r5, [pc, #44]	; (4032c0 <usart_serial_putchar+0xd0>)
  403292:	4621      	mov	r1, r4
  403294:	4630      	mov	r0, r6
  403296:	47a8      	blx	r5
  403298:	2800      	cmp	r0, #0
  40329a:	d1fa      	bne.n	403292 <usart_serial_putchar+0xa2>
		return 1;
  40329c:	2001      	movs	r0, #1
  40329e:	bd70      	pop	{r4, r5, r6, pc}
  4032a0:	400e0800 	.word	0x400e0800
  4032a4:	400e0a00 	.word	0x400e0a00
  4032a8:	400e1a00 	.word	0x400e1a00
  4032ac:	400e1c00 	.word	0x400e1c00
  4032b0:	40024000 	.word	0x40024000
  4032b4:	40028000 	.word	0x40028000
  4032b8:	4002c000 	.word	0x4002c000
  4032bc:	00400f91 	.word	0x00400f91
  4032c0:	00401099 	.word	0x00401099

004032c4 <vApplicationStackOverflowHook>:
extern void vApplicationStackOverflowHook(xTaskHandle *pxTask, signed char *pcTaskName) {
  4032c4:	b508      	push	{r3, lr}
	printf("stack overflow %x %s\r\n", pxTask, (portCHAR *)pcTaskName);
  4032c6:	460a      	mov	r2, r1
  4032c8:	4601      	mov	r1, r0
  4032ca:	4802      	ldr	r0, [pc, #8]	; (4032d4 <vApplicationStackOverflowHook+0x10>)
  4032cc:	4b02      	ldr	r3, [pc, #8]	; (4032d8 <vApplicationStackOverflowHook+0x14>)
  4032ce:	4798      	blx	r3
  4032d0:	e7fe      	b.n	4032d0 <vApplicationStackOverflowHook+0xc>
  4032d2:	bf00      	nop
  4032d4:	00408d1c 	.word	0x00408d1c
  4032d8:	00403c41 	.word	0x00403c41

004032dc <vApplicationTickHook>:
extern void vApplicationTickHook(void) { }
  4032dc:	4770      	bx	lr

004032de <vApplicationMallocFailedHook>:

portFORCE_INLINE static void vPortRaiseBASEPRI( void )
{
uint32_t ulNewBASEPRI;

	__asm volatile
  4032de:	f04f 0380 	mov.w	r3, #128	; 0x80
  4032e2:	b672      	cpsid	i
  4032e4:	f383 8811 	msr	BASEPRI, r3
  4032e8:	f3bf 8f6f 	isb	sy
  4032ec:	f3bf 8f4f 	dsb	sy
  4032f0:	b662      	cpsie	i
  4032f2:	e7fe      	b.n	4032f2 <vApplicationMallocFailedHook+0x14>

004032f4 <btn_init>:

/************************************************************************/
/* funcoes                                                              */
/************************************************************************/

void btn_init(void) {
  4032f4:	b530      	push	{r4, r5, lr}
  4032f6:	b083      	sub	sp, #12
	// Inicializa clock do perifrico PIO responsavel pelo botao
	pmc_enable_periph_clk(BTN_PIO_ID);
  4032f8:	200a      	movs	r0, #10
  4032fa:	4b15      	ldr	r3, [pc, #84]	; (403350 <btn_init+0x5c>)
  4032fc:	4798      	blx	r3

	// Configura PIO para lidar com o pino do boto como entrada
	// com pull-up
	pio_configure(BTN_PIO, PIO_INPUT, BTN_PIO_PIN_MASK, PIO_PULLUP | PIO_DEBOUNCE);
  4032fe:	4c15      	ldr	r4, [pc, #84]	; (403354 <btn_init+0x60>)
  403300:	2309      	movs	r3, #9
  403302:	f44f 6200 	mov.w	r2, #2048	; 0x800
  403306:	f04f 5120 	mov.w	r1, #671088640	; 0x28000000
  40330a:	4620      	mov	r0, r4
  40330c:	4d12      	ldr	r5, [pc, #72]	; (403358 <btn_init+0x64>)
  40330e:	47a8      	blx	r5
	pio_set_debounce_filter(BTN_PIO, BTN_PIO_PIN_MASK, 60);
  403310:	223c      	movs	r2, #60	; 0x3c
  403312:	f44f 6100 	mov.w	r1, #2048	; 0x800
  403316:	4620      	mov	r0, r4
  403318:	4b10      	ldr	r3, [pc, #64]	; (40335c <btn_init+0x68>)
  40331a:	4798      	blx	r3
	
	// Configura interrupo no pino referente ao botao e associa
	// funo de callback caso uma interrupo for gerada
	// a funo de callback  a: but_callback()
	pio_handler_set(BTN_PIO,
  40331c:	4b10      	ldr	r3, [pc, #64]	; (403360 <btn_init+0x6c>)
  40331e:	9300      	str	r3, [sp, #0]
  403320:	2350      	movs	r3, #80	; 0x50
  403322:	f44f 6200 	mov.w	r2, #2048	; 0x800
  403326:	210a      	movs	r1, #10
  403328:	4620      	mov	r0, r4
  40332a:	4d0e      	ldr	r5, [pc, #56]	; (403364 <btn_init+0x70>)
  40332c:	47a8      	blx	r5
	BTN_PIO_PIN_MASK,
	PIO_IT_FALL_EDGE,
	but_callback);

	// Ativa interrupo e limpa primeira IRQ gerada na ativacao
	pio_enable_interrupt(BTN_PIO, BTN_PIO_PIN_MASK);
  40332e:	f44f 6100 	mov.w	r1, #2048	; 0x800
  403332:	4620      	mov	r0, r4
  403334:	4b0c      	ldr	r3, [pc, #48]	; (403368 <btn_init+0x74>)
  403336:	4798      	blx	r3
	pio_get_interrupt_status(BTN_PIO);
  403338:	4620      	mov	r0, r4
  40333a:	4b0c      	ldr	r3, [pc, #48]	; (40336c <btn_init+0x78>)
  40333c:	4798      	blx	r3
    \param [in]      IRQn  External interrupt number. Value cannot be negative.
 */
__STATIC_INLINE void NVIC_EnableIRQ(IRQn_Type IRQn)
{
/*  NVIC->ISER[((uint32_t)(IRQn) >> 5)] = (1 << ((uint32_t)(IRQn) & 0x1F));  enable interrupt */
  NVIC->ISER[(uint32_t)((int32_t)IRQn) >> 5] = (uint32_t)(1 << ((uint32_t)((int32_t)IRQn) & (uint32_t)0x1F)); /* enable interrupt */
  40333e:	4b0c      	ldr	r3, [pc, #48]	; (403370 <btn_init+0x7c>)
  403340:	f44f 6280 	mov.w	r2, #1024	; 0x400
  403344:	601a      	str	r2, [r3, #0]
__STATIC_INLINE void NVIC_SetPriority(IRQn_Type IRQn, uint32_t priority)
{
  if(IRQn < 0) {
    SCB->SHPR[((uint32_t)(IRQn) & 0xF)-4] = ((priority << (8 - __NVIC_PRIO_BITS)) & 0xff); } /* set Priority for Cortex-M  System Interrupts */
  else {
    NVIC->IP[(uint32_t)(IRQn)]            = ((priority << (8 - __NVIC_PRIO_BITS)) & 0xff); } /* set Priority for device specific Interrupts  */
  403346:	2280      	movs	r2, #128	; 0x80
  403348:	f883 230a 	strb.w	r2, [r3, #778]	; 0x30a

	// Configura NVIC para receber interrupcoes do PIO do botao
	// com prioridade 4 (quanto mais prximo de 0 maior)
	NVIC_EnableIRQ(BTN_PIO_ID);
	NVIC_SetPriority(BTN_PIO_ID, 4); // Prioridade 4
}
  40334c:	b003      	add	sp, #12
  40334e:	bd30      	pop	{r4, r5, pc}
  403350:	00400f3d 	.word	0x00400f3d
  403354:	400e0e00 	.word	0x400e0e00
  403358:	00400c29 	.word	0x00400c29
  40335c:	00400b1d 	.word	0x00400b1d
  403360:	004030ad 	.word	0x004030ad
  403364:	00400d49 	.word	0x00400d49
  403368:	00400ceb 	.word	0x00400ceb
  40336c:	00400cef 	.word	0x00400cef
  403370:	e000e100 	.word	0xe000e100

00403374 <main>:
}

/************************************************************************/
/* main                                                                 */
/************************************************************************/
int main(void) {
  403374:	b500      	push	{lr}
  403376:	b08b      	sub	sp, #44	; 0x2c
	/* Initialize the SAM system */
	sysclk_init();
  403378:	4b2a      	ldr	r3, [pc, #168]	; (403424 <main+0xb0>)
  40337a:	4798      	blx	r3
	board_init();
  40337c:	4b2a      	ldr	r3, [pc, #168]	; (403428 <main+0xb4>)
  40337e:	4798      	blx	r3

	/* Create semaphore */
	xSemaphore = xSemaphoreCreateBinary();
  403380:	2203      	movs	r2, #3
  403382:	2100      	movs	r1, #0
  403384:	2001      	movs	r0, #1
  403386:	4b29      	ldr	r3, [pc, #164]	; (40342c <main+0xb8>)
  403388:	4798      	blx	r3
  40338a:	4b29      	ldr	r3, [pc, #164]	; (403430 <main+0xbc>)
  40338c:	6018      	str	r0, [r3, #0]

	if (xSemaphore == NULL) {
  40338e:	2800      	cmp	r0, #0
  403390:	d044      	beq.n	40341c <main+0xa8>
		printf("Failed to create semaphore\r\n");
	}

	/* Initialize the buttons */
	btn_init();
  403392:	4b28      	ldr	r3, [pc, #160]	; (403434 <main+0xc0>)
  403394:	4798      	blx	r3
 * \param opt         Options needed to set up RS232 communication (see \ref usart_options_t).
 *
 */
static inline void stdio_serial_init(volatile void *usart, const usart_serial_options_t *opt)
{
	stdio_base = (void *)usart;
  403396:	4d28      	ldr	r5, [pc, #160]	; (403438 <main+0xc4>)
  403398:	4b28      	ldr	r3, [pc, #160]	; (40343c <main+0xc8>)
  40339a:	601d      	str	r5, [r3, #0]
	ptr_put = (int (*)(void volatile*,char))&usart_serial_putchar;
  40339c:	4a28      	ldr	r2, [pc, #160]	; (403440 <main+0xcc>)
  40339e:	4b29      	ldr	r3, [pc, #164]	; (403444 <main+0xd0>)
  4033a0:	601a      	str	r2, [r3, #0]
	ptr_get = (void (*)(void volatile*,char*))&usart_serial_getchar;
  4033a2:	4a29      	ldr	r2, [pc, #164]	; (403448 <main+0xd4>)
  4033a4:	4b29      	ldr	r3, [pc, #164]	; (40344c <main+0xd8>)
  4033a6:	601a      	str	r2, [r3, #0]
	usart_settings.baudrate = opt->baudrate;
  4033a8:	f44f 33e1 	mov.w	r3, #115200	; 0x1c200
  4033ac:	9304      	str	r3, [sp, #16]
	usart_settings.char_length = opt->charlength;
  4033ae:	23c0      	movs	r3, #192	; 0xc0
  4033b0:	9305      	str	r3, [sp, #20]
	usart_settings.parity_type = opt->paritytype;
  4033b2:	f44f 6300 	mov.w	r3, #2048	; 0x800
  4033b6:	9306      	str	r3, [sp, #24]
	usart_settings.stop_bits= opt->stopbits;
  4033b8:	2400      	movs	r4, #0
  4033ba:	9407      	str	r4, [sp, #28]
	usart_settings.channel_mode= US_MR_CHMODE_NORMAL;
  4033bc:	9408      	str	r4, [sp, #32]
 *
 * \param ul_id Id (number) of the peripheral clock.
 */
static inline void sysclk_enable_peripheral_clock(uint32_t ul_id)
{
	pmc_enable_periph_clk(ul_id);
  4033be:	200e      	movs	r0, #14
  4033c0:	4b23      	ldr	r3, [pc, #140]	; (403450 <main+0xdc>)
  4033c2:	4798      	blx	r3
		usart_init_rs232(p_usart, &usart_settings,
  4033c4:	4a23      	ldr	r2, [pc, #140]	; (403454 <main+0xe0>)
  4033c6:	a904      	add	r1, sp, #16
  4033c8:	4628      	mov	r0, r5
  4033ca:	4b23      	ldr	r3, [pc, #140]	; (403458 <main+0xe4>)
  4033cc:	4798      	blx	r3
		usart_enable_tx(p_usart);
  4033ce:	4628      	mov	r0, r5
  4033d0:	4b22      	ldr	r3, [pc, #136]	; (40345c <main+0xe8>)
  4033d2:	4798      	blx	r3
		usart_enable_rx(p_usart);
  4033d4:	4628      	mov	r0, r5
  4033d6:	4b22      	ldr	r3, [pc, #136]	; (403460 <main+0xec>)
  4033d8:	4798      	blx	r3
	fdevopen((int (*)(char, FILE*))(_write),(int (*)(FILE*))(_read));
#  endif
#  if UC3 || SAM
	// For AVR32 and SAM GCC
	// Specify that stdout and stdin should not be buffered.
	setbuf(stdout, NULL);
  4033da:	4e22      	ldr	r6, [pc, #136]	; (403464 <main+0xf0>)
  4033dc:	6833      	ldr	r3, [r6, #0]
  4033de:	4621      	mov	r1, r4
  4033e0:	6898      	ldr	r0, [r3, #8]
  4033e2:	4d21      	ldr	r5, [pc, #132]	; (403468 <main+0xf4>)
  4033e4:	47a8      	blx	r5
	setbuf(stdin, NULL);
  4033e6:	6833      	ldr	r3, [r6, #0]
  4033e8:	4621      	mov	r1, r4
  4033ea:	6858      	ldr	r0, [r3, #4]
  4033ec:	47a8      	blx	r5
	setbuf(stdout, NULL);
  4033ee:	6833      	ldr	r3, [r6, #0]
  4033f0:	4621      	mov	r1, r4
  4033f2:	6898      	ldr	r0, [r3, #8]
  4033f4:	47a8      	blx	r5

	/* Initialize the console uart */
	configure_console();
	
	if (xTaskCreate(task_debug, "debug", TASK_OLED_STACK_SIZE, NULL,
  4033f6:	9403      	str	r4, [sp, #12]
  4033f8:	9402      	str	r4, [sp, #8]
  4033fa:	9401      	str	r4, [sp, #4]
  4033fc:	9400      	str	r4, [sp, #0]
  4033fe:	4623      	mov	r3, r4
  403400:	f44f 62c0 	mov.w	r2, #1536	; 0x600
  403404:	4919      	ldr	r1, [pc, #100]	; (40346c <main+0xf8>)
  403406:	481a      	ldr	r0, [pc, #104]	; (403470 <main+0xfc>)
  403408:	4c1a      	ldr	r4, [pc, #104]	; (403474 <main+0x100>)
  40340a:	47a0      	blx	r4
  40340c:	2801      	cmp	r0, #1
  40340e:	d002      	beq.n	403416 <main+0xa2>
	TASK_OLED_STACK_PRIORITY, NULL) != pdPASS) {
		printf("Failed to create debug task\r\n");
  403410:	4819      	ldr	r0, [pc, #100]	; (403478 <main+0x104>)
  403412:	4b1a      	ldr	r3, [pc, #104]	; (40347c <main+0x108>)
  403414:	4798      	blx	r3
	}

	/* Start the scheduler. */
	vTaskStartScheduler();
  403416:	4b1a      	ldr	r3, [pc, #104]	; (403480 <main+0x10c>)
  403418:	4798      	blx	r3
  40341a:	e7fe      	b.n	40341a <main+0xa6>
		printf("Failed to create semaphore\r\n");
  40341c:	4819      	ldr	r0, [pc, #100]	; (403484 <main+0x110>)
  40341e:	4b17      	ldr	r3, [pc, #92]	; (40347c <main+0x108>)
  403420:	4798      	blx	r3
  403422:	e7b6      	b.n	403392 <main+0x1e>
  403424:	00400889 	.word	0x00400889
  403428:	00400985 	.word	0x00400985
  40342c:	004019e5 	.word	0x004019e5
  403430:	20400d9c 	.word	0x20400d9c
  403434:	004032f5 	.word	0x004032f5
  403438:	40028000 	.word	0x40028000
  40343c:	20400ddc 	.word	0x20400ddc
  403440:	004031f1 	.word	0x004031f1
  403444:	20400dd8 	.word	0x20400dd8
  403448:	00403115 	.word	0x00403115
  40344c:	20400dd4 	.word	0x20400dd4
  403450:	00400f3d 	.word	0x00400f3d
  403454:	08f0d180 	.word	0x08f0d180
  403458:	00401039 	.word	0x00401039
  40345c:	0040108d 	.word	0x0040108d
  403460:	00401093 	.word	0x00401093
  403464:	20400014 	.word	0x20400014
  403468:	00403d39 	.word	0x00403d39
  40346c:	00408cf4 	.word	0x00408cf4
  403470:	004030d1 	.word	0x004030d1
  403474:	00402105 	.word	0x00402105
  403478:	00408cfc 	.word	0x00408cfc
  40347c:	00403d05 	.word	0x00403d05
  403480:	00402339 	.word	0x00402339
  403484:	00408cd8 	.word	0x00408cd8

00403488 <__libc_init_array>:
  403488:	b570      	push	{r4, r5, r6, lr}
  40348a:	4e0f      	ldr	r6, [pc, #60]	; (4034c8 <__libc_init_array+0x40>)
  40348c:	4d0f      	ldr	r5, [pc, #60]	; (4034cc <__libc_init_array+0x44>)
  40348e:	1b76      	subs	r6, r6, r5
  403490:	10b6      	asrs	r6, r6, #2
  403492:	bf18      	it	ne
  403494:	2400      	movne	r4, #0
  403496:	d005      	beq.n	4034a4 <__libc_init_array+0x1c>
  403498:	3401      	adds	r4, #1
  40349a:	f855 3b04 	ldr.w	r3, [r5], #4
  40349e:	4798      	blx	r3
  4034a0:	42a6      	cmp	r6, r4
  4034a2:	d1f9      	bne.n	403498 <__libc_init_array+0x10>
  4034a4:	4e0a      	ldr	r6, [pc, #40]	; (4034d0 <__libc_init_array+0x48>)
  4034a6:	4d0b      	ldr	r5, [pc, #44]	; (4034d4 <__libc_init_array+0x4c>)
  4034a8:	1b76      	subs	r6, r6, r5
  4034aa:	f005 fd89 	bl	408fc0 <_init>
  4034ae:	10b6      	asrs	r6, r6, #2
  4034b0:	bf18      	it	ne
  4034b2:	2400      	movne	r4, #0
  4034b4:	d006      	beq.n	4034c4 <__libc_init_array+0x3c>
  4034b6:	3401      	adds	r4, #1
  4034b8:	f855 3b04 	ldr.w	r3, [r5], #4
  4034bc:	4798      	blx	r3
  4034be:	42a6      	cmp	r6, r4
  4034c0:	d1f9      	bne.n	4034b6 <__libc_init_array+0x2e>
  4034c2:	bd70      	pop	{r4, r5, r6, pc}
  4034c4:	bd70      	pop	{r4, r5, r6, pc}
  4034c6:	bf00      	nop
  4034c8:	00408fcc 	.word	0x00408fcc
  4034cc:	00408fcc 	.word	0x00408fcc
  4034d0:	00408fd4 	.word	0x00408fd4
  4034d4:	00408fcc 	.word	0x00408fcc

004034d8 <malloc>:
  4034d8:	4b02      	ldr	r3, [pc, #8]	; (4034e4 <malloc+0xc>)
  4034da:	4601      	mov	r1, r0
  4034dc:	6818      	ldr	r0, [r3, #0]
  4034de:	f000 b80b 	b.w	4034f8 <_malloc_r>
  4034e2:	bf00      	nop
  4034e4:	20400014 	.word	0x20400014

004034e8 <free>:
  4034e8:	4b02      	ldr	r3, [pc, #8]	; (4034f4 <free+0xc>)
  4034ea:	4601      	mov	r1, r0
  4034ec:	6818      	ldr	r0, [r3, #0]
  4034ee:	f003 ba2f 	b.w	406950 <_free_r>
  4034f2:	bf00      	nop
  4034f4:	20400014 	.word	0x20400014

004034f8 <_malloc_r>:
  4034f8:	e92d 4ff0 	stmdb	sp!, {r4, r5, r6, r7, r8, r9, sl, fp, lr}
  4034fc:	f101 060b 	add.w	r6, r1, #11
  403500:	2e16      	cmp	r6, #22
  403502:	b083      	sub	sp, #12
  403504:	4605      	mov	r5, r0
  403506:	f240 809e 	bls.w	403646 <_malloc_r+0x14e>
  40350a:	f036 0607 	bics.w	r6, r6, #7
  40350e:	f100 80bd 	bmi.w	40368c <_malloc_r+0x194>
  403512:	42b1      	cmp	r1, r6
  403514:	f200 80ba 	bhi.w	40368c <_malloc_r+0x194>
  403518:	f000 fb86 	bl	403c28 <__malloc_lock>
  40351c:	f5b6 7ffc 	cmp.w	r6, #504	; 0x1f8
  403520:	f0c0 8293 	bcc.w	403a4a <_malloc_r+0x552>
  403524:	0a73      	lsrs	r3, r6, #9
  403526:	f000 80b8 	beq.w	40369a <_malloc_r+0x1a2>
  40352a:	2b04      	cmp	r3, #4
  40352c:	f200 8179 	bhi.w	403822 <_malloc_r+0x32a>
  403530:	09b3      	lsrs	r3, r6, #6
  403532:	f103 0039 	add.w	r0, r3, #57	; 0x39
  403536:	f103 0e38 	add.w	lr, r3, #56	; 0x38
  40353a:	00c3      	lsls	r3, r0, #3
  40353c:	4fbf      	ldr	r7, [pc, #764]	; (40383c <_malloc_r+0x344>)
  40353e:	443b      	add	r3, r7
  403540:	f1a3 0108 	sub.w	r1, r3, #8
  403544:	685c      	ldr	r4, [r3, #4]
  403546:	42a1      	cmp	r1, r4
  403548:	d106      	bne.n	403558 <_malloc_r+0x60>
  40354a:	e00c      	b.n	403566 <_malloc_r+0x6e>
  40354c:	2a00      	cmp	r2, #0
  40354e:	f280 80aa 	bge.w	4036a6 <_malloc_r+0x1ae>
  403552:	68e4      	ldr	r4, [r4, #12]
  403554:	42a1      	cmp	r1, r4
  403556:	d006      	beq.n	403566 <_malloc_r+0x6e>
  403558:	6863      	ldr	r3, [r4, #4]
  40355a:	f023 0303 	bic.w	r3, r3, #3
  40355e:	1b9a      	subs	r2, r3, r6
  403560:	2a0f      	cmp	r2, #15
  403562:	ddf3      	ble.n	40354c <_malloc_r+0x54>
  403564:	4670      	mov	r0, lr
  403566:	693c      	ldr	r4, [r7, #16]
  403568:	f8df e2e4 	ldr.w	lr, [pc, #740]	; 403850 <_malloc_r+0x358>
  40356c:	4574      	cmp	r4, lr
  40356e:	f000 81ab 	beq.w	4038c8 <_malloc_r+0x3d0>
  403572:	6863      	ldr	r3, [r4, #4]
  403574:	f023 0303 	bic.w	r3, r3, #3
  403578:	1b9a      	subs	r2, r3, r6
  40357a:	2a0f      	cmp	r2, #15
  40357c:	f300 8190 	bgt.w	4038a0 <_malloc_r+0x3a8>
  403580:	2a00      	cmp	r2, #0
  403582:	f8c7 e014 	str.w	lr, [r7, #20]
  403586:	f8c7 e010 	str.w	lr, [r7, #16]
  40358a:	f280 809d 	bge.w	4036c8 <_malloc_r+0x1d0>
  40358e:	f5b3 7f00 	cmp.w	r3, #512	; 0x200
  403592:	f080 8161 	bcs.w	403858 <_malloc_r+0x360>
  403596:	08db      	lsrs	r3, r3, #3
  403598:	f103 0c01 	add.w	ip, r3, #1
  40359c:	1099      	asrs	r1, r3, #2
  40359e:	687a      	ldr	r2, [r7, #4]
  4035a0:	f857 803c 	ldr.w	r8, [r7, ip, lsl #3]
  4035a4:	f8c4 8008 	str.w	r8, [r4, #8]
  4035a8:	2301      	movs	r3, #1
  4035aa:	408b      	lsls	r3, r1
  4035ac:	eb07 01cc 	add.w	r1, r7, ip, lsl #3
  4035b0:	4313      	orrs	r3, r2
  4035b2:	3908      	subs	r1, #8
  4035b4:	60e1      	str	r1, [r4, #12]
  4035b6:	607b      	str	r3, [r7, #4]
  4035b8:	f847 403c 	str.w	r4, [r7, ip, lsl #3]
  4035bc:	f8c8 400c 	str.w	r4, [r8, #12]
  4035c0:	1082      	asrs	r2, r0, #2
  4035c2:	2401      	movs	r4, #1
  4035c4:	4094      	lsls	r4, r2
  4035c6:	429c      	cmp	r4, r3
  4035c8:	f200 808b 	bhi.w	4036e2 <_malloc_r+0x1ea>
  4035cc:	421c      	tst	r4, r3
  4035ce:	d106      	bne.n	4035de <_malloc_r+0xe6>
  4035d0:	f020 0003 	bic.w	r0, r0, #3
  4035d4:	0064      	lsls	r4, r4, #1
  4035d6:	421c      	tst	r4, r3
  4035d8:	f100 0004 	add.w	r0, r0, #4
  4035dc:	d0fa      	beq.n	4035d4 <_malloc_r+0xdc>
  4035de:	eb07 09c0 	add.w	r9, r7, r0, lsl #3
  4035e2:	46cc      	mov	ip, r9
  4035e4:	4680      	mov	r8, r0
  4035e6:	f8dc 300c 	ldr.w	r3, [ip, #12]
  4035ea:	459c      	cmp	ip, r3
  4035ec:	d107      	bne.n	4035fe <_malloc_r+0x106>
  4035ee:	e16d      	b.n	4038cc <_malloc_r+0x3d4>
  4035f0:	2a00      	cmp	r2, #0
  4035f2:	f280 817b 	bge.w	4038ec <_malloc_r+0x3f4>
  4035f6:	68db      	ldr	r3, [r3, #12]
  4035f8:	459c      	cmp	ip, r3
  4035fa:	f000 8167 	beq.w	4038cc <_malloc_r+0x3d4>
  4035fe:	6859      	ldr	r1, [r3, #4]
  403600:	f021 0103 	bic.w	r1, r1, #3
  403604:	1b8a      	subs	r2, r1, r6
  403606:	2a0f      	cmp	r2, #15
  403608:	ddf2      	ble.n	4035f0 <_malloc_r+0xf8>
  40360a:	f8d3 c00c 	ldr.w	ip, [r3, #12]
  40360e:	f8d3 8008 	ldr.w	r8, [r3, #8]
  403612:	9300      	str	r3, [sp, #0]
  403614:	199c      	adds	r4, r3, r6
  403616:	4628      	mov	r0, r5
  403618:	f046 0601 	orr.w	r6, r6, #1
  40361c:	f042 0501 	orr.w	r5, r2, #1
  403620:	605e      	str	r6, [r3, #4]
  403622:	f8c8 c00c 	str.w	ip, [r8, #12]
  403626:	f8cc 8008 	str.w	r8, [ip, #8]
  40362a:	617c      	str	r4, [r7, #20]
  40362c:	613c      	str	r4, [r7, #16]
  40362e:	f8c4 e00c 	str.w	lr, [r4, #12]
  403632:	f8c4 e008 	str.w	lr, [r4, #8]
  403636:	6065      	str	r5, [r4, #4]
  403638:	505a      	str	r2, [r3, r1]
  40363a:	f000 fafb 	bl	403c34 <__malloc_unlock>
  40363e:	9b00      	ldr	r3, [sp, #0]
  403640:	f103 0408 	add.w	r4, r3, #8
  403644:	e01e      	b.n	403684 <_malloc_r+0x18c>
  403646:	2910      	cmp	r1, #16
  403648:	d820      	bhi.n	40368c <_malloc_r+0x194>
  40364a:	f000 faed 	bl	403c28 <__malloc_lock>
  40364e:	2610      	movs	r6, #16
  403650:	2318      	movs	r3, #24
  403652:	2002      	movs	r0, #2
  403654:	4f79      	ldr	r7, [pc, #484]	; (40383c <_malloc_r+0x344>)
  403656:	443b      	add	r3, r7
  403658:	f1a3 0208 	sub.w	r2, r3, #8
  40365c:	685c      	ldr	r4, [r3, #4]
  40365e:	4294      	cmp	r4, r2
  403660:	f000 813d 	beq.w	4038de <_malloc_r+0x3e6>
  403664:	6863      	ldr	r3, [r4, #4]
  403666:	68e1      	ldr	r1, [r4, #12]
  403668:	68a6      	ldr	r6, [r4, #8]
  40366a:	f023 0303 	bic.w	r3, r3, #3
  40366e:	4423      	add	r3, r4
  403670:	4628      	mov	r0, r5
  403672:	685a      	ldr	r2, [r3, #4]
  403674:	60f1      	str	r1, [r6, #12]
  403676:	f042 0201 	orr.w	r2, r2, #1
  40367a:	608e      	str	r6, [r1, #8]
  40367c:	605a      	str	r2, [r3, #4]
  40367e:	f000 fad9 	bl	403c34 <__malloc_unlock>
  403682:	3408      	adds	r4, #8
  403684:	4620      	mov	r0, r4
  403686:	b003      	add	sp, #12
  403688:	e8bd 8ff0 	ldmia.w	sp!, {r4, r5, r6, r7, r8, r9, sl, fp, pc}
  40368c:	2400      	movs	r4, #0
  40368e:	230c      	movs	r3, #12
  403690:	4620      	mov	r0, r4
  403692:	602b      	str	r3, [r5, #0]
  403694:	b003      	add	sp, #12
  403696:	e8bd 8ff0 	ldmia.w	sp!, {r4, r5, r6, r7, r8, r9, sl, fp, pc}
  40369a:	2040      	movs	r0, #64	; 0x40
  40369c:	f44f 7300 	mov.w	r3, #512	; 0x200
  4036a0:	f04f 0e3f 	mov.w	lr, #63	; 0x3f
  4036a4:	e74a      	b.n	40353c <_malloc_r+0x44>
  4036a6:	4423      	add	r3, r4
  4036a8:	68e1      	ldr	r1, [r4, #12]
  4036aa:	685a      	ldr	r2, [r3, #4]
  4036ac:	68a6      	ldr	r6, [r4, #8]
  4036ae:	f042 0201 	orr.w	r2, r2, #1
  4036b2:	60f1      	str	r1, [r6, #12]
  4036b4:	4628      	mov	r0, r5
  4036b6:	608e      	str	r6, [r1, #8]
  4036b8:	605a      	str	r2, [r3, #4]
  4036ba:	f000 fabb 	bl	403c34 <__malloc_unlock>
  4036be:	3408      	adds	r4, #8
  4036c0:	4620      	mov	r0, r4
  4036c2:	b003      	add	sp, #12
  4036c4:	e8bd 8ff0 	ldmia.w	sp!, {r4, r5, r6, r7, r8, r9, sl, fp, pc}
  4036c8:	4423      	add	r3, r4
  4036ca:	4628      	mov	r0, r5
  4036cc:	685a      	ldr	r2, [r3, #4]
  4036ce:	f042 0201 	orr.w	r2, r2, #1
  4036d2:	605a      	str	r2, [r3, #4]
  4036d4:	f000 faae 	bl	403c34 <__malloc_unlock>
  4036d8:	3408      	adds	r4, #8
  4036da:	4620      	mov	r0, r4
  4036dc:	b003      	add	sp, #12
  4036de:	e8bd 8ff0 	ldmia.w	sp!, {r4, r5, r6, r7, r8, r9, sl, fp, pc}
  4036e2:	68bc      	ldr	r4, [r7, #8]
  4036e4:	6863      	ldr	r3, [r4, #4]
  4036e6:	f023 0803 	bic.w	r8, r3, #3
  4036ea:	45b0      	cmp	r8, r6
  4036ec:	d304      	bcc.n	4036f8 <_malloc_r+0x200>
  4036ee:	eba8 0306 	sub.w	r3, r8, r6
  4036f2:	2b0f      	cmp	r3, #15
  4036f4:	f300 8085 	bgt.w	403802 <_malloc_r+0x30a>
  4036f8:	f8df 9158 	ldr.w	r9, [pc, #344]	; 403854 <_malloc_r+0x35c>
  4036fc:	4b50      	ldr	r3, [pc, #320]	; (403840 <_malloc_r+0x348>)
  4036fe:	f8d9 2000 	ldr.w	r2, [r9]
  403702:	681b      	ldr	r3, [r3, #0]
  403704:	3201      	adds	r2, #1
  403706:	4433      	add	r3, r6
  403708:	eb04 0a08 	add.w	sl, r4, r8
  40370c:	f000 8155 	beq.w	4039ba <_malloc_r+0x4c2>
  403710:	f503 5380 	add.w	r3, r3, #4096	; 0x1000
  403714:	330f      	adds	r3, #15
  403716:	f423 6b7f 	bic.w	fp, r3, #4080	; 0xff0
  40371a:	f02b 0b0f 	bic.w	fp, fp, #15
  40371e:	4659      	mov	r1, fp
  403720:	4628      	mov	r0, r5
  403722:	f000 faf7 	bl	403d14 <_sbrk_r>
  403726:	1c41      	adds	r1, r0, #1
  403728:	4602      	mov	r2, r0
  40372a:	f000 80fc 	beq.w	403926 <_malloc_r+0x42e>
  40372e:	4582      	cmp	sl, r0
  403730:	f200 80f7 	bhi.w	403922 <_malloc_r+0x42a>
  403734:	4b43      	ldr	r3, [pc, #268]	; (403844 <_malloc_r+0x34c>)
  403736:	6819      	ldr	r1, [r3, #0]
  403738:	4459      	add	r1, fp
  40373a:	6019      	str	r1, [r3, #0]
  40373c:	f000 814d 	beq.w	4039da <_malloc_r+0x4e2>
  403740:	f8d9 0000 	ldr.w	r0, [r9]
  403744:	3001      	adds	r0, #1
  403746:	bf1b      	ittet	ne
  403748:	eba2 0a0a 	subne.w	sl, r2, sl
  40374c:	4451      	addne	r1, sl
  40374e:	f8c9 2000 	streq.w	r2, [r9]
  403752:	6019      	strne	r1, [r3, #0]
  403754:	f012 0107 	ands.w	r1, r2, #7
  403758:	f000 8115 	beq.w	403986 <_malloc_r+0x48e>
  40375c:	f1c1 0008 	rsb	r0, r1, #8
  403760:	f5c1 5180 	rsb	r1, r1, #4096	; 0x1000
  403764:	4402      	add	r2, r0
  403766:	3108      	adds	r1, #8
  403768:	eb02 090b 	add.w	r9, r2, fp
  40376c:	f3c9 090b 	ubfx	r9, r9, #0, #12
  403770:	eba1 0909 	sub.w	r9, r1, r9
  403774:	4649      	mov	r1, r9
  403776:	4628      	mov	r0, r5
  403778:	9301      	str	r3, [sp, #4]
  40377a:	9200      	str	r2, [sp, #0]
  40377c:	f000 faca 	bl	403d14 <_sbrk_r>
  403780:	1c43      	adds	r3, r0, #1
  403782:	e89d 000c 	ldmia.w	sp, {r2, r3}
  403786:	f000 8143 	beq.w	403a10 <_malloc_r+0x518>
  40378a:	1a80      	subs	r0, r0, r2
  40378c:	4448      	add	r0, r9
  40378e:	f040 0001 	orr.w	r0, r0, #1
  403792:	6819      	ldr	r1, [r3, #0]
  403794:	60ba      	str	r2, [r7, #8]
  403796:	4449      	add	r1, r9
  403798:	42bc      	cmp	r4, r7
  40379a:	6050      	str	r0, [r2, #4]
  40379c:	6019      	str	r1, [r3, #0]
  40379e:	d017      	beq.n	4037d0 <_malloc_r+0x2d8>
  4037a0:	f1b8 0f0f 	cmp.w	r8, #15
  4037a4:	f240 80fb 	bls.w	40399e <_malloc_r+0x4a6>
  4037a8:	6860      	ldr	r0, [r4, #4]
  4037aa:	f1a8 020c 	sub.w	r2, r8, #12
  4037ae:	f022 0207 	bic.w	r2, r2, #7
  4037b2:	eb04 0e02 	add.w	lr, r4, r2
  4037b6:	f000 0001 	and.w	r0, r0, #1
  4037ba:	f04f 0c05 	mov.w	ip, #5
  4037be:	4310      	orrs	r0, r2
  4037c0:	2a0f      	cmp	r2, #15
  4037c2:	6060      	str	r0, [r4, #4]
  4037c4:	f8ce c004 	str.w	ip, [lr, #4]
  4037c8:	f8ce c008 	str.w	ip, [lr, #8]
  4037cc:	f200 8117 	bhi.w	4039fe <_malloc_r+0x506>
  4037d0:	4b1d      	ldr	r3, [pc, #116]	; (403848 <_malloc_r+0x350>)
  4037d2:	68bc      	ldr	r4, [r7, #8]
  4037d4:	681a      	ldr	r2, [r3, #0]
  4037d6:	4291      	cmp	r1, r2
  4037d8:	bf88      	it	hi
  4037da:	6019      	strhi	r1, [r3, #0]
  4037dc:	4b1b      	ldr	r3, [pc, #108]	; (40384c <_malloc_r+0x354>)
  4037de:	681a      	ldr	r2, [r3, #0]
  4037e0:	4291      	cmp	r1, r2
  4037e2:	6862      	ldr	r2, [r4, #4]
  4037e4:	bf88      	it	hi
  4037e6:	6019      	strhi	r1, [r3, #0]
  4037e8:	f022 0203 	bic.w	r2, r2, #3
  4037ec:	4296      	cmp	r6, r2
  4037ee:	eba2 0306 	sub.w	r3, r2, r6
  4037f2:	d801      	bhi.n	4037f8 <_malloc_r+0x300>
  4037f4:	2b0f      	cmp	r3, #15
  4037f6:	dc04      	bgt.n	403802 <_malloc_r+0x30a>
  4037f8:	4628      	mov	r0, r5
  4037fa:	f000 fa1b 	bl	403c34 <__malloc_unlock>
  4037fe:	2400      	movs	r4, #0
  403800:	e740      	b.n	403684 <_malloc_r+0x18c>
  403802:	19a2      	adds	r2, r4, r6
  403804:	f043 0301 	orr.w	r3, r3, #1
  403808:	f046 0601 	orr.w	r6, r6, #1
  40380c:	6066      	str	r6, [r4, #4]
  40380e:	4628      	mov	r0, r5
  403810:	60ba      	str	r2, [r7, #8]
  403812:	6053      	str	r3, [r2, #4]
  403814:	f000 fa0e 	bl	403c34 <__malloc_unlock>
  403818:	3408      	adds	r4, #8
  40381a:	4620      	mov	r0, r4
  40381c:	b003      	add	sp, #12
  40381e:	e8bd 8ff0 	ldmia.w	sp!, {r4, r5, r6, r7, r8, r9, sl, fp, pc}
  403822:	2b14      	cmp	r3, #20
  403824:	d971      	bls.n	40390a <_malloc_r+0x412>
  403826:	2b54      	cmp	r3, #84	; 0x54
  403828:	f200 80a3 	bhi.w	403972 <_malloc_r+0x47a>
  40382c:	0b33      	lsrs	r3, r6, #12
  40382e:	f103 006f 	add.w	r0, r3, #111	; 0x6f
  403832:	f103 0e6e 	add.w	lr, r3, #110	; 0x6e
  403836:	00c3      	lsls	r3, r0, #3
  403838:	e680      	b.n	40353c <_malloc_r+0x44>
  40383a:	bf00      	nop
  40383c:	20400440 	.word	0x20400440
  403840:	20400dd0 	.word	0x20400dd0
  403844:	20400da0 	.word	0x20400da0
  403848:	20400dc8 	.word	0x20400dc8
  40384c:	20400dcc 	.word	0x20400dcc
  403850:	20400448 	.word	0x20400448
  403854:	20400848 	.word	0x20400848
  403858:	0a5a      	lsrs	r2, r3, #9
  40385a:	2a04      	cmp	r2, #4
  40385c:	d95b      	bls.n	403916 <_malloc_r+0x41e>
  40385e:	2a14      	cmp	r2, #20
  403860:	f200 80ae 	bhi.w	4039c0 <_malloc_r+0x4c8>
  403864:	f102 015c 	add.w	r1, r2, #92	; 0x5c
  403868:	00c9      	lsls	r1, r1, #3
  40386a:	325b      	adds	r2, #91	; 0x5b
  40386c:	eb07 0c01 	add.w	ip, r7, r1
  403870:	5879      	ldr	r1, [r7, r1]
  403872:	f1ac 0c08 	sub.w	ip, ip, #8
  403876:	458c      	cmp	ip, r1
  403878:	f000 8088 	beq.w	40398c <_malloc_r+0x494>
  40387c:	684a      	ldr	r2, [r1, #4]
  40387e:	f022 0203 	bic.w	r2, r2, #3
  403882:	4293      	cmp	r3, r2
  403884:	d273      	bcs.n	40396e <_malloc_r+0x476>
  403886:	6889      	ldr	r1, [r1, #8]
  403888:	458c      	cmp	ip, r1
  40388a:	d1f7      	bne.n	40387c <_malloc_r+0x384>
  40388c:	f8dc 200c 	ldr.w	r2, [ip, #12]
  403890:	687b      	ldr	r3, [r7, #4]
  403892:	60e2      	str	r2, [r4, #12]
  403894:	f8c4 c008 	str.w	ip, [r4, #8]
  403898:	6094      	str	r4, [r2, #8]
  40389a:	f8cc 400c 	str.w	r4, [ip, #12]
  40389e:	e68f      	b.n	4035c0 <_malloc_r+0xc8>
  4038a0:	19a1      	adds	r1, r4, r6
  4038a2:	f046 0c01 	orr.w	ip, r6, #1
  4038a6:	f042 0601 	orr.w	r6, r2, #1
  4038aa:	f8c4 c004 	str.w	ip, [r4, #4]
  4038ae:	4628      	mov	r0, r5
  4038b0:	6179      	str	r1, [r7, #20]
  4038b2:	6139      	str	r1, [r7, #16]
  4038b4:	f8c1 e00c 	str.w	lr, [r1, #12]
  4038b8:	f8c1 e008 	str.w	lr, [r1, #8]
  4038bc:	604e      	str	r6, [r1, #4]
  4038be:	50e2      	str	r2, [r4, r3]
  4038c0:	f000 f9b8 	bl	403c34 <__malloc_unlock>
  4038c4:	3408      	adds	r4, #8
  4038c6:	e6dd      	b.n	403684 <_malloc_r+0x18c>
  4038c8:	687b      	ldr	r3, [r7, #4]
  4038ca:	e679      	b.n	4035c0 <_malloc_r+0xc8>
  4038cc:	f108 0801 	add.w	r8, r8, #1
  4038d0:	f018 0f03 	tst.w	r8, #3
  4038d4:	f10c 0c08 	add.w	ip, ip, #8
  4038d8:	f47f ae85 	bne.w	4035e6 <_malloc_r+0xee>
  4038dc:	e02d      	b.n	40393a <_malloc_r+0x442>
  4038de:	68dc      	ldr	r4, [r3, #12]
  4038e0:	42a3      	cmp	r3, r4
  4038e2:	bf08      	it	eq
  4038e4:	3002      	addeq	r0, #2
  4038e6:	f43f ae3e 	beq.w	403566 <_malloc_r+0x6e>
  4038ea:	e6bb      	b.n	403664 <_malloc_r+0x16c>
  4038ec:	4419      	add	r1, r3
  4038ee:	461c      	mov	r4, r3
  4038f0:	684a      	ldr	r2, [r1, #4]
  4038f2:	68db      	ldr	r3, [r3, #12]
  4038f4:	f854 6f08 	ldr.w	r6, [r4, #8]!
  4038f8:	f042 0201 	orr.w	r2, r2, #1
  4038fc:	604a      	str	r2, [r1, #4]
  4038fe:	4628      	mov	r0, r5
  403900:	60f3      	str	r3, [r6, #12]
  403902:	609e      	str	r6, [r3, #8]
  403904:	f000 f996 	bl	403c34 <__malloc_unlock>
  403908:	e6bc      	b.n	403684 <_malloc_r+0x18c>
  40390a:	f103 005c 	add.w	r0, r3, #92	; 0x5c
  40390e:	f103 0e5b 	add.w	lr, r3, #91	; 0x5b
  403912:	00c3      	lsls	r3, r0, #3
  403914:	e612      	b.n	40353c <_malloc_r+0x44>
  403916:	099a      	lsrs	r2, r3, #6
  403918:	f102 0139 	add.w	r1, r2, #57	; 0x39
  40391c:	00c9      	lsls	r1, r1, #3
  40391e:	3238      	adds	r2, #56	; 0x38
  403920:	e7a4      	b.n	40386c <_malloc_r+0x374>
  403922:	42bc      	cmp	r4, r7
  403924:	d054      	beq.n	4039d0 <_malloc_r+0x4d8>
  403926:	68bc      	ldr	r4, [r7, #8]
  403928:	6862      	ldr	r2, [r4, #4]
  40392a:	f022 0203 	bic.w	r2, r2, #3
  40392e:	e75d      	b.n	4037ec <_malloc_r+0x2f4>
  403930:	f859 3908 	ldr.w	r3, [r9], #-8
  403934:	4599      	cmp	r9, r3
  403936:	f040 8086 	bne.w	403a46 <_malloc_r+0x54e>
  40393a:	f010 0f03 	tst.w	r0, #3
  40393e:	f100 30ff 	add.w	r0, r0, #4294967295
  403942:	d1f5      	bne.n	403930 <_malloc_r+0x438>
  403944:	687b      	ldr	r3, [r7, #4]
  403946:	ea23 0304 	bic.w	r3, r3, r4
  40394a:	607b      	str	r3, [r7, #4]
  40394c:	0064      	lsls	r4, r4, #1
  40394e:	429c      	cmp	r4, r3
  403950:	f63f aec7 	bhi.w	4036e2 <_malloc_r+0x1ea>
  403954:	2c00      	cmp	r4, #0
  403956:	f43f aec4 	beq.w	4036e2 <_malloc_r+0x1ea>
  40395a:	421c      	tst	r4, r3
  40395c:	4640      	mov	r0, r8
  40395e:	f47f ae3e 	bne.w	4035de <_malloc_r+0xe6>
  403962:	0064      	lsls	r4, r4, #1
  403964:	421c      	tst	r4, r3
  403966:	f100 0004 	add.w	r0, r0, #4
  40396a:	d0fa      	beq.n	403962 <_malloc_r+0x46a>
  40396c:	e637      	b.n	4035de <_malloc_r+0xe6>
  40396e:	468c      	mov	ip, r1
  403970:	e78c      	b.n	40388c <_malloc_r+0x394>
  403972:	f5b3 7faa 	cmp.w	r3, #340	; 0x154
  403976:	d815      	bhi.n	4039a4 <_malloc_r+0x4ac>
  403978:	0bf3      	lsrs	r3, r6, #15
  40397a:	f103 0078 	add.w	r0, r3, #120	; 0x78
  40397e:	f103 0e77 	add.w	lr, r3, #119	; 0x77
  403982:	00c3      	lsls	r3, r0, #3
  403984:	e5da      	b.n	40353c <_malloc_r+0x44>
  403986:	f44f 5180 	mov.w	r1, #4096	; 0x1000
  40398a:	e6ed      	b.n	403768 <_malloc_r+0x270>
  40398c:	687b      	ldr	r3, [r7, #4]
  40398e:	1092      	asrs	r2, r2, #2
  403990:	2101      	movs	r1, #1
  403992:	fa01 f202 	lsl.w	r2, r1, r2
  403996:	4313      	orrs	r3, r2
  403998:	607b      	str	r3, [r7, #4]
  40399a:	4662      	mov	r2, ip
  40399c:	e779      	b.n	403892 <_malloc_r+0x39a>
  40399e:	2301      	movs	r3, #1
  4039a0:	6053      	str	r3, [r2, #4]
  4039a2:	e729      	b.n	4037f8 <_malloc_r+0x300>
  4039a4:	f240 5254 	movw	r2, #1364	; 0x554
  4039a8:	4293      	cmp	r3, r2
  4039aa:	d822      	bhi.n	4039f2 <_malloc_r+0x4fa>
  4039ac:	0cb3      	lsrs	r3, r6, #18
  4039ae:	f103 007d 	add.w	r0, r3, #125	; 0x7d
  4039b2:	f103 0e7c 	add.w	lr, r3, #124	; 0x7c
  4039b6:	00c3      	lsls	r3, r0, #3
  4039b8:	e5c0      	b.n	40353c <_malloc_r+0x44>
  4039ba:	f103 0b10 	add.w	fp, r3, #16
  4039be:	e6ae      	b.n	40371e <_malloc_r+0x226>
  4039c0:	2a54      	cmp	r2, #84	; 0x54
  4039c2:	d829      	bhi.n	403a18 <_malloc_r+0x520>
  4039c4:	0b1a      	lsrs	r2, r3, #12
  4039c6:	f102 016f 	add.w	r1, r2, #111	; 0x6f
  4039ca:	00c9      	lsls	r1, r1, #3
  4039cc:	326e      	adds	r2, #110	; 0x6e
  4039ce:	e74d      	b.n	40386c <_malloc_r+0x374>
  4039d0:	4b20      	ldr	r3, [pc, #128]	; (403a54 <_malloc_r+0x55c>)
  4039d2:	6819      	ldr	r1, [r3, #0]
  4039d4:	4459      	add	r1, fp
  4039d6:	6019      	str	r1, [r3, #0]
  4039d8:	e6b2      	b.n	403740 <_malloc_r+0x248>
  4039da:	f3ca 000b 	ubfx	r0, sl, #0, #12
  4039de:	2800      	cmp	r0, #0
  4039e0:	f47f aeae 	bne.w	403740 <_malloc_r+0x248>
  4039e4:	eb08 030b 	add.w	r3, r8, fp
  4039e8:	68ba      	ldr	r2, [r7, #8]
  4039ea:	f043 0301 	orr.w	r3, r3, #1
  4039ee:	6053      	str	r3, [r2, #4]
  4039f0:	e6ee      	b.n	4037d0 <_malloc_r+0x2d8>
  4039f2:	207f      	movs	r0, #127	; 0x7f
  4039f4:	f44f 737e 	mov.w	r3, #1016	; 0x3f8
  4039f8:	f04f 0e7e 	mov.w	lr, #126	; 0x7e
  4039fc:	e59e      	b.n	40353c <_malloc_r+0x44>
  4039fe:	f104 0108 	add.w	r1, r4, #8
  403a02:	4628      	mov	r0, r5
  403a04:	9300      	str	r3, [sp, #0]
  403a06:	f002 ffa3 	bl	406950 <_free_r>
  403a0a:	9b00      	ldr	r3, [sp, #0]
  403a0c:	6819      	ldr	r1, [r3, #0]
  403a0e:	e6df      	b.n	4037d0 <_malloc_r+0x2d8>
  403a10:	2001      	movs	r0, #1
  403a12:	f04f 0900 	mov.w	r9, #0
  403a16:	e6bc      	b.n	403792 <_malloc_r+0x29a>
  403a18:	f5b2 7faa 	cmp.w	r2, #340	; 0x154
  403a1c:	d805      	bhi.n	403a2a <_malloc_r+0x532>
  403a1e:	0bda      	lsrs	r2, r3, #15
  403a20:	f102 0178 	add.w	r1, r2, #120	; 0x78
  403a24:	00c9      	lsls	r1, r1, #3
  403a26:	3277      	adds	r2, #119	; 0x77
  403a28:	e720      	b.n	40386c <_malloc_r+0x374>
  403a2a:	f240 5154 	movw	r1, #1364	; 0x554
  403a2e:	428a      	cmp	r2, r1
  403a30:	d805      	bhi.n	403a3e <_malloc_r+0x546>
  403a32:	0c9a      	lsrs	r2, r3, #18
  403a34:	f102 017d 	add.w	r1, r2, #125	; 0x7d
  403a38:	00c9      	lsls	r1, r1, #3
  403a3a:	327c      	adds	r2, #124	; 0x7c
  403a3c:	e716      	b.n	40386c <_malloc_r+0x374>
  403a3e:	f44f 717e 	mov.w	r1, #1016	; 0x3f8
  403a42:	227e      	movs	r2, #126	; 0x7e
  403a44:	e712      	b.n	40386c <_malloc_r+0x374>
  403a46:	687b      	ldr	r3, [r7, #4]
  403a48:	e780      	b.n	40394c <_malloc_r+0x454>
  403a4a:	08f0      	lsrs	r0, r6, #3
  403a4c:	f106 0308 	add.w	r3, r6, #8
  403a50:	e600      	b.n	403654 <_malloc_r+0x15c>
  403a52:	bf00      	nop
  403a54:	20400da0 	.word	0x20400da0

00403a58 <memcpy>:
  403a58:	4684      	mov	ip, r0
  403a5a:	ea41 0300 	orr.w	r3, r1, r0
  403a5e:	f013 0303 	ands.w	r3, r3, #3
  403a62:	d16d      	bne.n	403b40 <memcpy+0xe8>
  403a64:	3a40      	subs	r2, #64	; 0x40
  403a66:	d341      	bcc.n	403aec <memcpy+0x94>
  403a68:	f851 3b04 	ldr.w	r3, [r1], #4
  403a6c:	f840 3b04 	str.w	r3, [r0], #4
  403a70:	f851 3b04 	ldr.w	r3, [r1], #4
  403a74:	f840 3b04 	str.w	r3, [r0], #4
  403a78:	f851 3b04 	ldr.w	r3, [r1], #4
  403a7c:	f840 3b04 	str.w	r3, [r0], #4
  403a80:	f851 3b04 	ldr.w	r3, [r1], #4
  403a84:	f840 3b04 	str.w	r3, [r0], #4
  403a88:	f851 3b04 	ldr.w	r3, [r1], #4
  403a8c:	f840 3b04 	str.w	r3, [r0], #4
  403a90:	f851 3b04 	ldr.w	r3, [r1], #4
  403a94:	f840 3b04 	str.w	r3, [r0], #4
  403a98:	f851 3b04 	ldr.w	r3, [r1], #4
  403a9c:	f840 3b04 	str.w	r3, [r0], #4
  403aa0:	f851 3b04 	ldr.w	r3, [r1], #4
  403aa4:	f840 3b04 	str.w	r3, [r0], #4
  403aa8:	f851 3b04 	ldr.w	r3, [r1], #4
  403aac:	f840 3b04 	str.w	r3, [r0], #4
  403ab0:	f851 3b04 	ldr.w	r3, [r1], #4
  403ab4:	f840 3b04 	str.w	r3, [r0], #4
  403ab8:	f851 3b04 	ldr.w	r3, [r1], #4
  403abc:	f840 3b04 	str.w	r3, [r0], #4
  403ac0:	f851 3b04 	ldr.w	r3, [r1], #4
  403ac4:	f840 3b04 	str.w	r3, [r0], #4
  403ac8:	f851 3b04 	ldr.w	r3, [r1], #4
  403acc:	f840 3b04 	str.w	r3, [r0], #4
  403ad0:	f851 3b04 	ldr.w	r3, [r1], #4
  403ad4:	f840 3b04 	str.w	r3, [r0], #4
  403ad8:	f851 3b04 	ldr.w	r3, [r1], #4
  403adc:	f840 3b04 	str.w	r3, [r0], #4
  403ae0:	f851 3b04 	ldr.w	r3, [r1], #4
  403ae4:	f840 3b04 	str.w	r3, [r0], #4
  403ae8:	3a40      	subs	r2, #64	; 0x40
  403aea:	d2bd      	bcs.n	403a68 <memcpy+0x10>
  403aec:	3230      	adds	r2, #48	; 0x30
  403aee:	d311      	bcc.n	403b14 <memcpy+0xbc>
  403af0:	f851 3b04 	ldr.w	r3, [r1], #4
  403af4:	f840 3b04 	str.w	r3, [r0], #4
  403af8:	f851 3b04 	ldr.w	r3, [r1], #4
  403afc:	f840 3b04 	str.w	r3, [r0], #4
  403b00:	f851 3b04 	ldr.w	r3, [r1], #4
  403b04:	f840 3b04 	str.w	r3, [r0], #4
  403b08:	f851 3b04 	ldr.w	r3, [r1], #4
  403b0c:	f840 3b04 	str.w	r3, [r0], #4
  403b10:	3a10      	subs	r2, #16
  403b12:	d2ed      	bcs.n	403af0 <memcpy+0x98>
  403b14:	320c      	adds	r2, #12
  403b16:	d305      	bcc.n	403b24 <memcpy+0xcc>
  403b18:	f851 3b04 	ldr.w	r3, [r1], #4
  403b1c:	f840 3b04 	str.w	r3, [r0], #4
  403b20:	3a04      	subs	r2, #4
  403b22:	d2f9      	bcs.n	403b18 <memcpy+0xc0>
  403b24:	3204      	adds	r2, #4
  403b26:	d008      	beq.n	403b3a <memcpy+0xe2>
  403b28:	07d2      	lsls	r2, r2, #31
  403b2a:	bf1c      	itt	ne
  403b2c:	f811 3b01 	ldrbne.w	r3, [r1], #1
  403b30:	f800 3b01 	strbne.w	r3, [r0], #1
  403b34:	d301      	bcc.n	403b3a <memcpy+0xe2>
  403b36:	880b      	ldrh	r3, [r1, #0]
  403b38:	8003      	strh	r3, [r0, #0]
  403b3a:	4660      	mov	r0, ip
  403b3c:	4770      	bx	lr
  403b3e:	bf00      	nop
  403b40:	2a08      	cmp	r2, #8
  403b42:	d313      	bcc.n	403b6c <memcpy+0x114>
  403b44:	078b      	lsls	r3, r1, #30
  403b46:	d08d      	beq.n	403a64 <memcpy+0xc>
  403b48:	f010 0303 	ands.w	r3, r0, #3
  403b4c:	d08a      	beq.n	403a64 <memcpy+0xc>
  403b4e:	f1c3 0304 	rsb	r3, r3, #4
  403b52:	1ad2      	subs	r2, r2, r3
  403b54:	07db      	lsls	r3, r3, #31
  403b56:	bf1c      	itt	ne
  403b58:	f811 3b01 	ldrbne.w	r3, [r1], #1
  403b5c:	f800 3b01 	strbne.w	r3, [r0], #1
  403b60:	d380      	bcc.n	403a64 <memcpy+0xc>
  403b62:	f831 3b02 	ldrh.w	r3, [r1], #2
  403b66:	f820 3b02 	strh.w	r3, [r0], #2
  403b6a:	e77b      	b.n	403a64 <memcpy+0xc>
  403b6c:	3a04      	subs	r2, #4
  403b6e:	d3d9      	bcc.n	403b24 <memcpy+0xcc>
  403b70:	3a01      	subs	r2, #1
  403b72:	f811 3b01 	ldrb.w	r3, [r1], #1
  403b76:	f800 3b01 	strb.w	r3, [r0], #1
  403b7a:	d2f9      	bcs.n	403b70 <memcpy+0x118>
  403b7c:	780b      	ldrb	r3, [r1, #0]
  403b7e:	7003      	strb	r3, [r0, #0]
  403b80:	784b      	ldrb	r3, [r1, #1]
  403b82:	7043      	strb	r3, [r0, #1]
  403b84:	788b      	ldrb	r3, [r1, #2]
  403b86:	7083      	strb	r3, [r0, #2]
  403b88:	4660      	mov	r0, ip
  403b8a:	4770      	bx	lr

00403b8c <memset>:
  403b8c:	b470      	push	{r4, r5, r6}
  403b8e:	0786      	lsls	r6, r0, #30
  403b90:	d046      	beq.n	403c20 <memset+0x94>
  403b92:	1e54      	subs	r4, r2, #1
  403b94:	2a00      	cmp	r2, #0
  403b96:	d041      	beq.n	403c1c <memset+0x90>
  403b98:	b2ca      	uxtb	r2, r1
  403b9a:	4603      	mov	r3, r0
  403b9c:	e002      	b.n	403ba4 <memset+0x18>
  403b9e:	f114 34ff 	adds.w	r4, r4, #4294967295
  403ba2:	d33b      	bcc.n	403c1c <memset+0x90>
  403ba4:	f803 2b01 	strb.w	r2, [r3], #1
  403ba8:	079d      	lsls	r5, r3, #30
  403baa:	d1f8      	bne.n	403b9e <memset+0x12>
  403bac:	2c03      	cmp	r4, #3
  403bae:	d92e      	bls.n	403c0e <memset+0x82>
  403bb0:	b2cd      	uxtb	r5, r1
  403bb2:	ea45 2505 	orr.w	r5, r5, r5, lsl #8
  403bb6:	2c0f      	cmp	r4, #15
  403bb8:	ea45 4505 	orr.w	r5, r5, r5, lsl #16
  403bbc:	d919      	bls.n	403bf2 <memset+0x66>
  403bbe:	f103 0210 	add.w	r2, r3, #16
  403bc2:	4626      	mov	r6, r4
  403bc4:	3e10      	subs	r6, #16
  403bc6:	2e0f      	cmp	r6, #15
  403bc8:	f842 5c10 	str.w	r5, [r2, #-16]
  403bcc:	f842 5c0c 	str.w	r5, [r2, #-12]
  403bd0:	f842 5c08 	str.w	r5, [r2, #-8]
  403bd4:	f842 5c04 	str.w	r5, [r2, #-4]
  403bd8:	f102 0210 	add.w	r2, r2, #16
  403bdc:	d8f2      	bhi.n	403bc4 <memset+0x38>
  403bde:	f1a4 0210 	sub.w	r2, r4, #16
  403be2:	f022 020f 	bic.w	r2, r2, #15
  403be6:	f004 040f 	and.w	r4, r4, #15
  403bea:	3210      	adds	r2, #16
  403bec:	2c03      	cmp	r4, #3
  403bee:	4413      	add	r3, r2
  403bf0:	d90d      	bls.n	403c0e <memset+0x82>
  403bf2:	461e      	mov	r6, r3
  403bf4:	4622      	mov	r2, r4
  403bf6:	3a04      	subs	r2, #4
  403bf8:	2a03      	cmp	r2, #3
  403bfa:	f846 5b04 	str.w	r5, [r6], #4
  403bfe:	d8fa      	bhi.n	403bf6 <memset+0x6a>
  403c00:	1f22      	subs	r2, r4, #4
  403c02:	f022 0203 	bic.w	r2, r2, #3
  403c06:	3204      	adds	r2, #4
  403c08:	4413      	add	r3, r2
  403c0a:	f004 0403 	and.w	r4, r4, #3
  403c0e:	b12c      	cbz	r4, 403c1c <memset+0x90>
  403c10:	b2c9      	uxtb	r1, r1
  403c12:	441c      	add	r4, r3
  403c14:	f803 1b01 	strb.w	r1, [r3], #1
  403c18:	429c      	cmp	r4, r3
  403c1a:	d1fb      	bne.n	403c14 <memset+0x88>
  403c1c:	bc70      	pop	{r4, r5, r6}
  403c1e:	4770      	bx	lr
  403c20:	4614      	mov	r4, r2
  403c22:	4603      	mov	r3, r0
  403c24:	e7c2      	b.n	403bac <memset+0x20>
  403c26:	bf00      	nop

00403c28 <__malloc_lock>:
  403c28:	4801      	ldr	r0, [pc, #4]	; (403c30 <__malloc_lock+0x8>)
  403c2a:	f003 b92b 	b.w	406e84 <__retarget_lock_acquire_recursive>
  403c2e:	bf00      	nop
  403c30:	20400e30 	.word	0x20400e30

00403c34 <__malloc_unlock>:
  403c34:	4801      	ldr	r0, [pc, #4]	; (403c3c <__malloc_unlock+0x8>)
  403c36:	f003 b927 	b.w	406e88 <__retarget_lock_release_recursive>
  403c3a:	bf00      	nop
  403c3c:	20400e30 	.word	0x20400e30

00403c40 <printf>:
  403c40:	b40f      	push	{r0, r1, r2, r3}
  403c42:	b500      	push	{lr}
  403c44:	4907      	ldr	r1, [pc, #28]	; (403c64 <printf+0x24>)
  403c46:	b083      	sub	sp, #12
  403c48:	ab04      	add	r3, sp, #16
  403c4a:	6808      	ldr	r0, [r1, #0]
  403c4c:	f853 2b04 	ldr.w	r2, [r3], #4
  403c50:	6881      	ldr	r1, [r0, #8]
  403c52:	9301      	str	r3, [sp, #4]
  403c54:	f000 f9c2 	bl	403fdc <_vfprintf_r>
  403c58:	b003      	add	sp, #12
  403c5a:	f85d eb04 	ldr.w	lr, [sp], #4
  403c5e:	b004      	add	sp, #16
  403c60:	4770      	bx	lr
  403c62:	bf00      	nop
  403c64:	20400014 	.word	0x20400014

00403c68 <_puts_r>:
  403c68:	b5f0      	push	{r4, r5, r6, r7, lr}
  403c6a:	4605      	mov	r5, r0
  403c6c:	b089      	sub	sp, #36	; 0x24
  403c6e:	4608      	mov	r0, r1
  403c70:	460c      	mov	r4, r1
  403c72:	f000 f945 	bl	403f00 <strlen>
  403c76:	6bab      	ldr	r3, [r5, #56]	; 0x38
  403c78:	4f21      	ldr	r7, [pc, #132]	; (403d00 <_puts_r+0x98>)
  403c7a:	9404      	str	r4, [sp, #16]
  403c7c:	2601      	movs	r6, #1
  403c7e:	1c44      	adds	r4, r0, #1
  403c80:	a904      	add	r1, sp, #16
  403c82:	2202      	movs	r2, #2
  403c84:	9403      	str	r4, [sp, #12]
  403c86:	9005      	str	r0, [sp, #20]
  403c88:	68ac      	ldr	r4, [r5, #8]
  403c8a:	9706      	str	r7, [sp, #24]
  403c8c:	9607      	str	r6, [sp, #28]
  403c8e:	9101      	str	r1, [sp, #4]
  403c90:	9202      	str	r2, [sp, #8]
  403c92:	b353      	cbz	r3, 403cea <_puts_r+0x82>
  403c94:	6e63      	ldr	r3, [r4, #100]	; 0x64
  403c96:	f013 0f01 	tst.w	r3, #1
  403c9a:	f9b4 300c 	ldrsh.w	r3, [r4, #12]
  403c9e:	b29a      	uxth	r2, r3
  403ca0:	d101      	bne.n	403ca6 <_puts_r+0x3e>
  403ca2:	0590      	lsls	r0, r2, #22
  403ca4:	d525      	bpl.n	403cf2 <_puts_r+0x8a>
  403ca6:	0491      	lsls	r1, r2, #18
  403ca8:	d406      	bmi.n	403cb8 <_puts_r+0x50>
  403caa:	6e62      	ldr	r2, [r4, #100]	; 0x64
  403cac:	f443 5300 	orr.w	r3, r3, #8192	; 0x2000
  403cb0:	f422 5200 	bic.w	r2, r2, #8192	; 0x2000
  403cb4:	81a3      	strh	r3, [r4, #12]
  403cb6:	6662      	str	r2, [r4, #100]	; 0x64
  403cb8:	4628      	mov	r0, r5
  403cba:	aa01      	add	r2, sp, #4
  403cbc:	4621      	mov	r1, r4
  403cbe:	f002 ff2d 	bl	406b1c <__sfvwrite_r>
  403cc2:	6e63      	ldr	r3, [r4, #100]	; 0x64
  403cc4:	2800      	cmp	r0, #0
  403cc6:	bf0c      	ite	eq
  403cc8:	250a      	moveq	r5, #10
  403cca:	f04f 35ff 	movne.w	r5, #4294967295
  403cce:	07da      	lsls	r2, r3, #31
  403cd0:	d402      	bmi.n	403cd8 <_puts_r+0x70>
  403cd2:	89a3      	ldrh	r3, [r4, #12]
  403cd4:	059b      	lsls	r3, r3, #22
  403cd6:	d502      	bpl.n	403cde <_puts_r+0x76>
  403cd8:	4628      	mov	r0, r5
  403cda:	b009      	add	sp, #36	; 0x24
  403cdc:	bdf0      	pop	{r4, r5, r6, r7, pc}
  403cde:	6da0      	ldr	r0, [r4, #88]	; 0x58
  403ce0:	f003 f8d2 	bl	406e88 <__retarget_lock_release_recursive>
  403ce4:	4628      	mov	r0, r5
  403ce6:	b009      	add	sp, #36	; 0x24
  403ce8:	bdf0      	pop	{r4, r5, r6, r7, pc}
  403cea:	4628      	mov	r0, r5
  403cec:	f002 fd8e 	bl	40680c <__sinit>
  403cf0:	e7d0      	b.n	403c94 <_puts_r+0x2c>
  403cf2:	6da0      	ldr	r0, [r4, #88]	; 0x58
  403cf4:	f003 f8c6 	bl	406e84 <__retarget_lock_acquire_recursive>
  403cf8:	f9b4 300c 	ldrsh.w	r3, [r4, #12]
  403cfc:	b29a      	uxth	r2, r3
  403cfe:	e7d2      	b.n	403ca6 <_puts_r+0x3e>
  403d00:	00408d38 	.word	0x00408d38

00403d04 <puts>:
  403d04:	4b02      	ldr	r3, [pc, #8]	; (403d10 <puts+0xc>)
  403d06:	4601      	mov	r1, r0
  403d08:	6818      	ldr	r0, [r3, #0]
  403d0a:	f7ff bfad 	b.w	403c68 <_puts_r>
  403d0e:	bf00      	nop
  403d10:	20400014 	.word	0x20400014

00403d14 <_sbrk_r>:
  403d14:	b538      	push	{r3, r4, r5, lr}
  403d16:	4c07      	ldr	r4, [pc, #28]	; (403d34 <_sbrk_r+0x20>)
  403d18:	2300      	movs	r3, #0
  403d1a:	4605      	mov	r5, r0
  403d1c:	4608      	mov	r0, r1
  403d1e:	6023      	str	r3, [r4, #0]
  403d20:	f7fd fb02 	bl	401328 <_sbrk>
  403d24:	1c43      	adds	r3, r0, #1
  403d26:	d000      	beq.n	403d2a <_sbrk_r+0x16>
  403d28:	bd38      	pop	{r3, r4, r5, pc}
  403d2a:	6823      	ldr	r3, [r4, #0]
  403d2c:	2b00      	cmp	r3, #0
  403d2e:	d0fb      	beq.n	403d28 <_sbrk_r+0x14>
  403d30:	602b      	str	r3, [r5, #0]
  403d32:	bd38      	pop	{r3, r4, r5, pc}
  403d34:	20400e44 	.word	0x20400e44

00403d38 <setbuf>:
  403d38:	2900      	cmp	r1, #0
  403d3a:	bf0c      	ite	eq
  403d3c:	2202      	moveq	r2, #2
  403d3e:	2200      	movne	r2, #0
  403d40:	f44f 6380 	mov.w	r3, #1024	; 0x400
  403d44:	f000 b800 	b.w	403d48 <setvbuf>

00403d48 <setvbuf>:
  403d48:	e92d 43f0 	stmdb	sp!, {r4, r5, r6, r7, r8, r9, lr}
  403d4c:	4c61      	ldr	r4, [pc, #388]	; (403ed4 <setvbuf+0x18c>)
  403d4e:	6825      	ldr	r5, [r4, #0]
  403d50:	b083      	sub	sp, #12
  403d52:	4604      	mov	r4, r0
  403d54:	460f      	mov	r7, r1
  403d56:	4690      	mov	r8, r2
  403d58:	461e      	mov	r6, r3
  403d5a:	b115      	cbz	r5, 403d62 <setvbuf+0x1a>
  403d5c:	6bab      	ldr	r3, [r5, #56]	; 0x38
  403d5e:	2b00      	cmp	r3, #0
  403d60:	d064      	beq.n	403e2c <setvbuf+0xe4>
  403d62:	f1b8 0f02 	cmp.w	r8, #2
  403d66:	d006      	beq.n	403d76 <setvbuf+0x2e>
  403d68:	f1b8 0f01 	cmp.w	r8, #1
  403d6c:	f200 809f 	bhi.w	403eae <setvbuf+0x166>
  403d70:	2e00      	cmp	r6, #0
  403d72:	f2c0 809c 	blt.w	403eae <setvbuf+0x166>
  403d76:	6e63      	ldr	r3, [r4, #100]	; 0x64
  403d78:	07d8      	lsls	r0, r3, #31
  403d7a:	d534      	bpl.n	403de6 <setvbuf+0x9e>
  403d7c:	4621      	mov	r1, r4
  403d7e:	4628      	mov	r0, r5
  403d80:	f002 fcec 	bl	40675c <_fflush_r>
  403d84:	6b21      	ldr	r1, [r4, #48]	; 0x30
  403d86:	b141      	cbz	r1, 403d9a <setvbuf+0x52>
  403d88:	f104 0340 	add.w	r3, r4, #64	; 0x40
  403d8c:	4299      	cmp	r1, r3
  403d8e:	d002      	beq.n	403d96 <setvbuf+0x4e>
  403d90:	4628      	mov	r0, r5
  403d92:	f002 fddd 	bl	406950 <_free_r>
  403d96:	2300      	movs	r3, #0
  403d98:	6323      	str	r3, [r4, #48]	; 0x30
  403d9a:	f9b4 300c 	ldrsh.w	r3, [r4, #12]
  403d9e:	2200      	movs	r2, #0
  403da0:	61a2      	str	r2, [r4, #24]
  403da2:	6062      	str	r2, [r4, #4]
  403da4:	061a      	lsls	r2, r3, #24
  403da6:	d43a      	bmi.n	403e1e <setvbuf+0xd6>
  403da8:	f423 634a 	bic.w	r3, r3, #3232	; 0xca0
  403dac:	f023 0303 	bic.w	r3, r3, #3
  403db0:	f1b8 0f02 	cmp.w	r8, #2
  403db4:	81a3      	strh	r3, [r4, #12]
  403db6:	d01d      	beq.n	403df4 <setvbuf+0xac>
  403db8:	ab01      	add	r3, sp, #4
  403dba:	466a      	mov	r2, sp
  403dbc:	4621      	mov	r1, r4
  403dbe:	4628      	mov	r0, r5
  403dc0:	f003 f864 	bl	406e8c <__swhatbuf_r>
  403dc4:	89a3      	ldrh	r3, [r4, #12]
  403dc6:	4318      	orrs	r0, r3
  403dc8:	81a0      	strh	r0, [r4, #12]
  403dca:	2e00      	cmp	r6, #0
  403dcc:	d132      	bne.n	403e34 <setvbuf+0xec>
  403dce:	9e00      	ldr	r6, [sp, #0]
  403dd0:	4630      	mov	r0, r6
  403dd2:	f7ff fb81 	bl	4034d8 <malloc>
  403dd6:	4607      	mov	r7, r0
  403dd8:	2800      	cmp	r0, #0
  403dda:	d06b      	beq.n	403eb4 <setvbuf+0x16c>
  403ddc:	89a3      	ldrh	r3, [r4, #12]
  403dde:	f043 0380 	orr.w	r3, r3, #128	; 0x80
  403de2:	81a3      	strh	r3, [r4, #12]
  403de4:	e028      	b.n	403e38 <setvbuf+0xf0>
  403de6:	89a3      	ldrh	r3, [r4, #12]
  403de8:	0599      	lsls	r1, r3, #22
  403dea:	d4c7      	bmi.n	403d7c <setvbuf+0x34>
  403dec:	6da0      	ldr	r0, [r4, #88]	; 0x58
  403dee:	f003 f849 	bl	406e84 <__retarget_lock_acquire_recursive>
  403df2:	e7c3      	b.n	403d7c <setvbuf+0x34>
  403df4:	2500      	movs	r5, #0
  403df6:	6e61      	ldr	r1, [r4, #100]	; 0x64
  403df8:	2600      	movs	r6, #0
  403dfa:	f104 0243 	add.w	r2, r4, #67	; 0x43
  403dfe:	f043 0302 	orr.w	r3, r3, #2
  403e02:	2001      	movs	r0, #1
  403e04:	60a6      	str	r6, [r4, #8]
  403e06:	07ce      	lsls	r6, r1, #31
  403e08:	81a3      	strh	r3, [r4, #12]
  403e0a:	6022      	str	r2, [r4, #0]
  403e0c:	6122      	str	r2, [r4, #16]
  403e0e:	6160      	str	r0, [r4, #20]
  403e10:	d401      	bmi.n	403e16 <setvbuf+0xce>
  403e12:	0598      	lsls	r0, r3, #22
  403e14:	d53e      	bpl.n	403e94 <setvbuf+0x14c>
  403e16:	4628      	mov	r0, r5
  403e18:	b003      	add	sp, #12
  403e1a:	e8bd 83f0 	ldmia.w	sp!, {r4, r5, r6, r7, r8, r9, pc}
  403e1e:	6921      	ldr	r1, [r4, #16]
  403e20:	4628      	mov	r0, r5
  403e22:	f002 fd95 	bl	406950 <_free_r>
  403e26:	f9b4 300c 	ldrsh.w	r3, [r4, #12]
  403e2a:	e7bd      	b.n	403da8 <setvbuf+0x60>
  403e2c:	4628      	mov	r0, r5
  403e2e:	f002 fced 	bl	40680c <__sinit>
  403e32:	e796      	b.n	403d62 <setvbuf+0x1a>
  403e34:	2f00      	cmp	r7, #0
  403e36:	d0cb      	beq.n	403dd0 <setvbuf+0x88>
  403e38:	6bab      	ldr	r3, [r5, #56]	; 0x38
  403e3a:	2b00      	cmp	r3, #0
  403e3c:	d033      	beq.n	403ea6 <setvbuf+0x15e>
  403e3e:	9b00      	ldr	r3, [sp, #0]
  403e40:	f9b4 200c 	ldrsh.w	r2, [r4, #12]
  403e44:	6027      	str	r7, [r4, #0]
  403e46:	429e      	cmp	r6, r3
  403e48:	bf1c      	itt	ne
  403e4a:	f442 6200 	orrne.w	r2, r2, #2048	; 0x800
  403e4e:	81a2      	strhne	r2, [r4, #12]
  403e50:	f1b8 0f01 	cmp.w	r8, #1
  403e54:	bf04      	itt	eq
  403e56:	f042 0201 	orreq.w	r2, r2, #1
  403e5a:	81a2      	strheq	r2, [r4, #12]
  403e5c:	b292      	uxth	r2, r2
  403e5e:	f012 0308 	ands.w	r3, r2, #8
  403e62:	6127      	str	r7, [r4, #16]
  403e64:	6166      	str	r6, [r4, #20]
  403e66:	d00e      	beq.n	403e86 <setvbuf+0x13e>
  403e68:	07d1      	lsls	r1, r2, #31
  403e6a:	d51a      	bpl.n	403ea2 <setvbuf+0x15a>
  403e6c:	6e65      	ldr	r5, [r4, #100]	; 0x64
  403e6e:	4276      	negs	r6, r6
  403e70:	2300      	movs	r3, #0
  403e72:	f015 0501 	ands.w	r5, r5, #1
  403e76:	61a6      	str	r6, [r4, #24]
  403e78:	60a3      	str	r3, [r4, #8]
  403e7a:	d009      	beq.n	403e90 <setvbuf+0x148>
  403e7c:	2500      	movs	r5, #0
  403e7e:	4628      	mov	r0, r5
  403e80:	b003      	add	sp, #12
  403e82:	e8bd 83f0 	ldmia.w	sp!, {r4, r5, r6, r7, r8, r9, pc}
  403e86:	60a3      	str	r3, [r4, #8]
  403e88:	6e65      	ldr	r5, [r4, #100]	; 0x64
  403e8a:	f015 0501 	ands.w	r5, r5, #1
  403e8e:	d1f5      	bne.n	403e7c <setvbuf+0x134>
  403e90:	0593      	lsls	r3, r2, #22
  403e92:	d4c0      	bmi.n	403e16 <setvbuf+0xce>
  403e94:	6da0      	ldr	r0, [r4, #88]	; 0x58
  403e96:	f002 fff7 	bl	406e88 <__retarget_lock_release_recursive>
  403e9a:	4628      	mov	r0, r5
  403e9c:	b003      	add	sp, #12
  403e9e:	e8bd 83f0 	ldmia.w	sp!, {r4, r5, r6, r7, r8, r9, pc}
  403ea2:	60a6      	str	r6, [r4, #8]
  403ea4:	e7f0      	b.n	403e88 <setvbuf+0x140>
  403ea6:	4628      	mov	r0, r5
  403ea8:	f002 fcb0 	bl	40680c <__sinit>
  403eac:	e7c7      	b.n	403e3e <setvbuf+0xf6>
  403eae:	f04f 35ff 	mov.w	r5, #4294967295
  403eb2:	e7b0      	b.n	403e16 <setvbuf+0xce>
  403eb4:	f8dd 9000 	ldr.w	r9, [sp]
  403eb8:	45b1      	cmp	r9, r6
  403eba:	d004      	beq.n	403ec6 <setvbuf+0x17e>
  403ebc:	4648      	mov	r0, r9
  403ebe:	f7ff fb0b 	bl	4034d8 <malloc>
  403ec2:	4607      	mov	r7, r0
  403ec4:	b920      	cbnz	r0, 403ed0 <setvbuf+0x188>
  403ec6:	f9b4 300c 	ldrsh.w	r3, [r4, #12]
  403eca:	f04f 35ff 	mov.w	r5, #4294967295
  403ece:	e792      	b.n	403df6 <setvbuf+0xae>
  403ed0:	464e      	mov	r6, r9
  403ed2:	e783      	b.n	403ddc <setvbuf+0x94>
  403ed4:	20400014 	.word	0x20400014
	...

00403f00 <strlen>:
  403f00:	f890 f000 	pld	[r0]
  403f04:	e96d 4502 	strd	r4, r5, [sp, #-8]!
  403f08:	f020 0107 	bic.w	r1, r0, #7
  403f0c:	f06f 0c00 	mvn.w	ip, #0
  403f10:	f010 0407 	ands.w	r4, r0, #7
  403f14:	f891 f020 	pld	[r1, #32]
  403f18:	f040 8049 	bne.w	403fae <strlen+0xae>
  403f1c:	f04f 0400 	mov.w	r4, #0
  403f20:	f06f 0007 	mvn.w	r0, #7
  403f24:	e9d1 2300 	ldrd	r2, r3, [r1]
  403f28:	f891 f040 	pld	[r1, #64]	; 0x40
  403f2c:	f100 0008 	add.w	r0, r0, #8
  403f30:	fa82 f24c 	uadd8	r2, r2, ip
  403f34:	faa4 f28c 	sel	r2, r4, ip
  403f38:	fa83 f34c 	uadd8	r3, r3, ip
  403f3c:	faa2 f38c 	sel	r3, r2, ip
  403f40:	bb4b      	cbnz	r3, 403f96 <strlen+0x96>
  403f42:	e9d1 2302 	ldrd	r2, r3, [r1, #8]
  403f46:	fa82 f24c 	uadd8	r2, r2, ip
  403f4a:	f100 0008 	add.w	r0, r0, #8
  403f4e:	faa4 f28c 	sel	r2, r4, ip
  403f52:	fa83 f34c 	uadd8	r3, r3, ip
  403f56:	faa2 f38c 	sel	r3, r2, ip
  403f5a:	b9e3      	cbnz	r3, 403f96 <strlen+0x96>
  403f5c:	e9d1 2304 	ldrd	r2, r3, [r1, #16]
  403f60:	fa82 f24c 	uadd8	r2, r2, ip
  403f64:	f100 0008 	add.w	r0, r0, #8
  403f68:	faa4 f28c 	sel	r2, r4, ip
  403f6c:	fa83 f34c 	uadd8	r3, r3, ip
  403f70:	faa2 f38c 	sel	r3, r2, ip
  403f74:	b97b      	cbnz	r3, 403f96 <strlen+0x96>
  403f76:	e9d1 2306 	ldrd	r2, r3, [r1, #24]
  403f7a:	f101 0120 	add.w	r1, r1, #32
  403f7e:	fa82 f24c 	uadd8	r2, r2, ip
  403f82:	f100 0008 	add.w	r0, r0, #8
  403f86:	faa4 f28c 	sel	r2, r4, ip
  403f8a:	fa83 f34c 	uadd8	r3, r3, ip
  403f8e:	faa2 f38c 	sel	r3, r2, ip
  403f92:	2b00      	cmp	r3, #0
  403f94:	d0c6      	beq.n	403f24 <strlen+0x24>
  403f96:	2a00      	cmp	r2, #0
  403f98:	bf04      	itt	eq
  403f9a:	3004      	addeq	r0, #4
  403f9c:	461a      	moveq	r2, r3
  403f9e:	ba12      	rev	r2, r2
  403fa0:	fab2 f282 	clz	r2, r2
  403fa4:	e8fd 4502 	ldrd	r4, r5, [sp], #8
  403fa8:	eb00 00d2 	add.w	r0, r0, r2, lsr #3
  403fac:	4770      	bx	lr
  403fae:	e9d1 2300 	ldrd	r2, r3, [r1]
  403fb2:	f004 0503 	and.w	r5, r4, #3
  403fb6:	f1c4 0000 	rsb	r0, r4, #0
  403fba:	ea4f 05c5 	mov.w	r5, r5, lsl #3
  403fbe:	f014 0f04 	tst.w	r4, #4
  403fc2:	f891 f040 	pld	[r1, #64]	; 0x40
  403fc6:	fa0c f505 	lsl.w	r5, ip, r5
  403fca:	ea62 0205 	orn	r2, r2, r5
  403fce:	bf1c      	itt	ne
  403fd0:	ea63 0305 	ornne	r3, r3, r5
  403fd4:	4662      	movne	r2, ip
  403fd6:	f04f 0400 	mov.w	r4, #0
  403fda:	e7a9      	b.n	403f30 <strlen+0x30>

00403fdc <_vfprintf_r>:
  403fdc:	e92d 4ff0 	stmdb	sp!, {r4, r5, r6, r7, r8, r9, sl, fp, lr}
  403fe0:	b0c1      	sub	sp, #260	; 0x104
  403fe2:	461d      	mov	r5, r3
  403fe4:	468a      	mov	sl, r1
  403fe6:	4691      	mov	r9, r2
  403fe8:	4604      	mov	r4, r0
  403fea:	9008      	str	r0, [sp, #32]
  403fec:	f002 ff38 	bl	406e60 <_localeconv_r>
  403ff0:	6803      	ldr	r3, [r0, #0]
  403ff2:	9315      	str	r3, [sp, #84]	; 0x54
  403ff4:	4618      	mov	r0, r3
  403ff6:	f7ff ff83 	bl	403f00 <strlen>
  403ffa:	950e      	str	r5, [sp, #56]	; 0x38
  403ffc:	9014      	str	r0, [sp, #80]	; 0x50
  403ffe:	b11c      	cbz	r4, 404008 <_vfprintf_r+0x2c>
  404000:	6ba3      	ldr	r3, [r4, #56]	; 0x38
  404002:	2b00      	cmp	r3, #0
  404004:	f000 825f 	beq.w	4044c6 <_vfprintf_r+0x4ea>
  404008:	f8da 3064 	ldr.w	r3, [sl, #100]	; 0x64
  40400c:	f9ba 200c 	ldrsh.w	r2, [sl, #12]
  404010:	f013 0f01 	tst.w	r3, #1
  404014:	b293      	uxth	r3, r2
  404016:	d102      	bne.n	40401e <_vfprintf_r+0x42>
  404018:	0599      	lsls	r1, r3, #22
  40401a:	f140 8275 	bpl.w	404508 <_vfprintf_r+0x52c>
  40401e:	049f      	lsls	r7, r3, #18
  404020:	d40a      	bmi.n	404038 <_vfprintf_r+0x5c>
  404022:	f8da 1064 	ldr.w	r1, [sl, #100]	; 0x64
  404026:	f442 5300 	orr.w	r3, r2, #8192	; 0x2000
  40402a:	f421 5100 	bic.w	r1, r1, #8192	; 0x2000
  40402e:	f8aa 300c 	strh.w	r3, [sl, #12]
  404032:	f8ca 1064 	str.w	r1, [sl, #100]	; 0x64
  404036:	b29b      	uxth	r3, r3
  404038:	071e      	lsls	r6, r3, #28
  40403a:	f140 8223 	bpl.w	404484 <_vfprintf_r+0x4a8>
  40403e:	f8da 2010 	ldr.w	r2, [sl, #16]
  404042:	2a00      	cmp	r2, #0
  404044:	f000 821e 	beq.w	404484 <_vfprintf_r+0x4a8>
  404048:	f003 021a 	and.w	r2, r3, #26
  40404c:	2a0a      	cmp	r2, #10
  40404e:	f000 823e 	beq.w	4044ce <_vfprintf_r+0x4f2>
  404052:	2300      	movs	r3, #0
  404054:	4618      	mov	r0, r3
  404056:	9311      	str	r3, [sp, #68]	; 0x44
  404058:	9313      	str	r3, [sp, #76]	; 0x4c
  40405a:	9312      	str	r3, [sp, #72]	; 0x48
  40405c:	9325      	str	r3, [sp, #148]	; 0x94
  40405e:	9324      	str	r3, [sp, #144]	; 0x90
  404060:	9318      	str	r3, [sp, #96]	; 0x60
  404062:	9319      	str	r3, [sp, #100]	; 0x64
  404064:	930b      	str	r3, [sp, #44]	; 0x2c
  404066:	ab30      	add	r3, sp, #192	; 0xc0
  404068:	9323      	str	r3, [sp, #140]	; 0x8c
  40406a:	4698      	mov	r8, r3
  40406c:	9016      	str	r0, [sp, #88]	; 0x58
  40406e:	9017      	str	r0, [sp, #92]	; 0x5c
  404070:	f8cd a028 	str.w	sl, [sp, #40]	; 0x28
  404074:	f899 3000 	ldrb.w	r3, [r9]
  404078:	464c      	mov	r4, r9
  40407a:	b1eb      	cbz	r3, 4040b8 <_vfprintf_r+0xdc>
  40407c:	2b25      	cmp	r3, #37	; 0x25
  40407e:	d102      	bne.n	404086 <_vfprintf_r+0xaa>
  404080:	e01a      	b.n	4040b8 <_vfprintf_r+0xdc>
  404082:	2b25      	cmp	r3, #37	; 0x25
  404084:	d003      	beq.n	40408e <_vfprintf_r+0xb2>
  404086:	f814 3f01 	ldrb.w	r3, [r4, #1]!
  40408a:	2b00      	cmp	r3, #0
  40408c:	d1f9      	bne.n	404082 <_vfprintf_r+0xa6>
  40408e:	eba4 0509 	sub.w	r5, r4, r9
  404092:	b18d      	cbz	r5, 4040b8 <_vfprintf_r+0xdc>
  404094:	9b24      	ldr	r3, [sp, #144]	; 0x90
  404096:	9a25      	ldr	r2, [sp, #148]	; 0x94
  404098:	f8c8 9000 	str.w	r9, [r8]
  40409c:	3301      	adds	r3, #1
  40409e:	442a      	add	r2, r5
  4040a0:	2b07      	cmp	r3, #7
  4040a2:	f8c8 5004 	str.w	r5, [r8, #4]
  4040a6:	9225      	str	r2, [sp, #148]	; 0x94
  4040a8:	9324      	str	r3, [sp, #144]	; 0x90
  4040aa:	f300 8201 	bgt.w	4044b0 <_vfprintf_r+0x4d4>
  4040ae:	f108 0808 	add.w	r8, r8, #8
  4040b2:	9b0b      	ldr	r3, [sp, #44]	; 0x2c
  4040b4:	442b      	add	r3, r5
  4040b6:	930b      	str	r3, [sp, #44]	; 0x2c
  4040b8:	7823      	ldrb	r3, [r4, #0]
  4040ba:	2b00      	cmp	r3, #0
  4040bc:	f000 83f0 	beq.w	4048a0 <_vfprintf_r+0x8c4>
  4040c0:	2300      	movs	r3, #0
  4040c2:	461a      	mov	r2, r3
  4040c4:	f88d 306f 	strb.w	r3, [sp, #111]	; 0x6f
  4040c8:	4619      	mov	r1, r3
  4040ca:	930c      	str	r3, [sp, #48]	; 0x30
  4040cc:	469b      	mov	fp, r3
  4040ce:	7866      	ldrb	r6, [r4, #1]
  4040d0:	f04f 33ff 	mov.w	r3, #4294967295
  4040d4:	f104 0901 	add.w	r9, r4, #1
  4040d8:	9309      	str	r3, [sp, #36]	; 0x24
  4040da:	f109 0901 	add.w	r9, r9, #1
  4040de:	f1a6 0320 	sub.w	r3, r6, #32
  4040e2:	2b58      	cmp	r3, #88	; 0x58
  4040e4:	f200 83bf 	bhi.w	404866 <_vfprintf_r+0x88a>
  4040e8:	e8df f013 	tbh	[pc, r3, lsl #1]
  4040ec:	03bd02e0 	.word	0x03bd02e0
  4040f0:	034f03bd 	.word	0x034f03bd
  4040f4:	03bd03bd 	.word	0x03bd03bd
  4040f8:	03bd03bd 	.word	0x03bd03bd
  4040fc:	03bd03bd 	.word	0x03bd03bd
  404100:	03080354 	.word	0x03080354
  404104:	021a03bd 	.word	0x021a03bd
  404108:	03bd02e8 	.word	0x03bd02e8
  40410c:	033a0303 	.word	0x033a0303
  404110:	033a033a 	.word	0x033a033a
  404114:	033a033a 	.word	0x033a033a
  404118:	033a033a 	.word	0x033a033a
  40411c:	033a033a 	.word	0x033a033a
  404120:	03bd03bd 	.word	0x03bd03bd
  404124:	03bd03bd 	.word	0x03bd03bd
  404128:	03bd03bd 	.word	0x03bd03bd
  40412c:	03bd03bd 	.word	0x03bd03bd
  404130:	03bd03bd 	.word	0x03bd03bd
  404134:	03620349 	.word	0x03620349
  404138:	036203bd 	.word	0x036203bd
  40413c:	03bd03bd 	.word	0x03bd03bd
  404140:	03bd03bd 	.word	0x03bd03bd
  404144:	03bd03a2 	.word	0x03bd03a2
  404148:	006f03bd 	.word	0x006f03bd
  40414c:	03bd03bd 	.word	0x03bd03bd
  404150:	03bd03bd 	.word	0x03bd03bd
  404154:	005903bd 	.word	0x005903bd
  404158:	03bd03bd 	.word	0x03bd03bd
  40415c:	03bd031e 	.word	0x03bd031e
  404160:	03bd03bd 	.word	0x03bd03bd
  404164:	03bd03bd 	.word	0x03bd03bd
  404168:	03bd03bd 	.word	0x03bd03bd
  40416c:	03bd03bd 	.word	0x03bd03bd
  404170:	032403bd 	.word	0x032403bd
  404174:	03620273 	.word	0x03620273
  404178:	03620362 	.word	0x03620362
  40417c:	027302b7 	.word	0x027302b7
  404180:	03bd03bd 	.word	0x03bd03bd
  404184:	03bd02bc 	.word	0x03bd02bc
  404188:	007102c9 	.word	0x007102c9
  40418c:	0247030d 	.word	0x0247030d
  404190:	025203bd 	.word	0x025203bd
  404194:	005b03bd 	.word	0x005b03bd
  404198:	03bd03bd 	.word	0x03bd03bd
  40419c:	021f      	.short	0x021f
  40419e:	f04b 0b10 	orr.w	fp, fp, #16
  4041a2:	f01b 0f20 	tst.w	fp, #32
  4041a6:	f040 8353 	bne.w	404850 <_vfprintf_r+0x874>
  4041aa:	9a0e      	ldr	r2, [sp, #56]	; 0x38
  4041ac:	f01b 0f10 	tst.w	fp, #16
  4041b0:	4613      	mov	r3, r2
  4041b2:	f040 85b4 	bne.w	404d1e <_vfprintf_r+0xd42>
  4041b6:	f01b 0f40 	tst.w	fp, #64	; 0x40
  4041ba:	f000 85b0 	beq.w	404d1e <_vfprintf_r+0xd42>
  4041be:	8814      	ldrh	r4, [r2, #0]
  4041c0:	3204      	adds	r2, #4
  4041c2:	2500      	movs	r5, #0
  4041c4:	2301      	movs	r3, #1
  4041c6:	920e      	str	r2, [sp, #56]	; 0x38
  4041c8:	e014      	b.n	4041f4 <_vfprintf_r+0x218>
  4041ca:	f04b 0b10 	orr.w	fp, fp, #16
  4041ce:	f01b 0320 	ands.w	r3, fp, #32
  4041d2:	f040 8332 	bne.w	40483a <_vfprintf_r+0x85e>
  4041d6:	f01b 0210 	ands.w	r2, fp, #16
  4041da:	f040 8589 	bne.w	404cf0 <_vfprintf_r+0xd14>
  4041de:	f01b 0340 	ands.w	r3, fp, #64	; 0x40
  4041e2:	f000 8585 	beq.w	404cf0 <_vfprintf_r+0xd14>
  4041e6:	990e      	ldr	r1, [sp, #56]	; 0x38
  4041e8:	4613      	mov	r3, r2
  4041ea:	460a      	mov	r2, r1
  4041ec:	3204      	adds	r2, #4
  4041ee:	880c      	ldrh	r4, [r1, #0]
  4041f0:	920e      	str	r2, [sp, #56]	; 0x38
  4041f2:	2500      	movs	r5, #0
  4041f4:	f04f 0a00 	mov.w	sl, #0
  4041f8:	f88d a06f 	strb.w	sl, [sp, #111]	; 0x6f
  4041fc:	9909      	ldr	r1, [sp, #36]	; 0x24
  4041fe:	1c4a      	adds	r2, r1, #1
  404200:	f000 820b 	beq.w	40461a <_vfprintf_r+0x63e>
  404204:	f02b 0280 	bic.w	r2, fp, #128	; 0x80
  404208:	9206      	str	r2, [sp, #24]
  40420a:	ea54 0205 	orrs.w	r2, r4, r5
  40420e:	f040 820a 	bne.w	404626 <_vfprintf_r+0x64a>
  404212:	2900      	cmp	r1, #0
  404214:	f040 846f 	bne.w	404af6 <_vfprintf_r+0xb1a>
  404218:	2b00      	cmp	r3, #0
  40421a:	f040 852d 	bne.w	404c78 <_vfprintf_r+0xc9c>
  40421e:	f01b 0301 	ands.w	r3, fp, #1
  404222:	930d      	str	r3, [sp, #52]	; 0x34
  404224:	f000 8668 	beq.w	404ef8 <_vfprintf_r+0xf1c>
  404228:	af40      	add	r7, sp, #256	; 0x100
  40422a:	2330      	movs	r3, #48	; 0x30
  40422c:	f807 3d41 	strb.w	r3, [r7, #-65]!
  404230:	9b09      	ldr	r3, [sp, #36]	; 0x24
  404232:	9a0d      	ldr	r2, [sp, #52]	; 0x34
  404234:	4293      	cmp	r3, r2
  404236:	bfb8      	it	lt
  404238:	4613      	movlt	r3, r2
  40423a:	9307      	str	r3, [sp, #28]
  40423c:	2300      	movs	r3, #0
  40423e:	9310      	str	r3, [sp, #64]	; 0x40
  404240:	f1ba 0f00 	cmp.w	sl, #0
  404244:	d002      	beq.n	40424c <_vfprintf_r+0x270>
  404246:	9b07      	ldr	r3, [sp, #28]
  404248:	3301      	adds	r3, #1
  40424a:	9307      	str	r3, [sp, #28]
  40424c:	9b06      	ldr	r3, [sp, #24]
  40424e:	f013 0302 	ands.w	r3, r3, #2
  404252:	930f      	str	r3, [sp, #60]	; 0x3c
  404254:	d002      	beq.n	40425c <_vfprintf_r+0x280>
  404256:	9b07      	ldr	r3, [sp, #28]
  404258:	3302      	adds	r3, #2
  40425a:	9307      	str	r3, [sp, #28]
  40425c:	9b06      	ldr	r3, [sp, #24]
  40425e:	f013 0584 	ands.w	r5, r3, #132	; 0x84
  404262:	f040 831b 	bne.w	40489c <_vfprintf_r+0x8c0>
  404266:	9b0c      	ldr	r3, [sp, #48]	; 0x30
  404268:	9a07      	ldr	r2, [sp, #28]
  40426a:	eba3 0b02 	sub.w	fp, r3, r2
  40426e:	f1bb 0f00 	cmp.w	fp, #0
  404272:	f340 8313 	ble.w	40489c <_vfprintf_r+0x8c0>
  404276:	f1bb 0f10 	cmp.w	fp, #16
  40427a:	9925      	ldr	r1, [sp, #148]	; 0x94
  40427c:	9a24      	ldr	r2, [sp, #144]	; 0x90
  40427e:	dd28      	ble.n	4042d2 <_vfprintf_r+0x2f6>
  404280:	4643      	mov	r3, r8
  404282:	2410      	movs	r4, #16
  404284:	46a8      	mov	r8, r5
  404286:	f8dd a020 	ldr.w	sl, [sp, #32]
  40428a:	9d0a      	ldr	r5, [sp, #40]	; 0x28
  40428c:	e006      	b.n	40429c <_vfprintf_r+0x2c0>
  40428e:	f1ab 0b10 	sub.w	fp, fp, #16
  404292:	f1bb 0f10 	cmp.w	fp, #16
  404296:	f103 0308 	add.w	r3, r3, #8
  40429a:	dd18      	ble.n	4042ce <_vfprintf_r+0x2f2>
  40429c:	3201      	adds	r2, #1
  40429e:	48b9      	ldr	r0, [pc, #740]	; (404584 <_vfprintf_r+0x5a8>)
  4042a0:	9224      	str	r2, [sp, #144]	; 0x90
  4042a2:	3110      	adds	r1, #16
  4042a4:	2a07      	cmp	r2, #7
  4042a6:	9125      	str	r1, [sp, #148]	; 0x94
  4042a8:	e883 0011 	stmia.w	r3, {r0, r4}
  4042ac:	ddef      	ble.n	40428e <_vfprintf_r+0x2b2>
  4042ae:	aa23      	add	r2, sp, #140	; 0x8c
  4042b0:	4629      	mov	r1, r5
  4042b2:	4650      	mov	r0, sl
  4042b4:	f003 fc3c 	bl	407b30 <__sprint_r>
  4042b8:	2800      	cmp	r0, #0
  4042ba:	f040 836a 	bne.w	404992 <_vfprintf_r+0x9b6>
  4042be:	f1ab 0b10 	sub.w	fp, fp, #16
  4042c2:	f1bb 0f10 	cmp.w	fp, #16
  4042c6:	9925      	ldr	r1, [sp, #148]	; 0x94
  4042c8:	9a24      	ldr	r2, [sp, #144]	; 0x90
  4042ca:	ab30      	add	r3, sp, #192	; 0xc0
  4042cc:	dce6      	bgt.n	40429c <_vfprintf_r+0x2c0>
  4042ce:	4645      	mov	r5, r8
  4042d0:	4698      	mov	r8, r3
  4042d2:	3201      	adds	r2, #1
  4042d4:	4bab      	ldr	r3, [pc, #684]	; (404584 <_vfprintf_r+0x5a8>)
  4042d6:	9224      	str	r2, [sp, #144]	; 0x90
  4042d8:	eb0b 0401 	add.w	r4, fp, r1
  4042dc:	2a07      	cmp	r2, #7
  4042de:	9425      	str	r4, [sp, #148]	; 0x94
  4042e0:	e888 0808 	stmia.w	r8, {r3, fp}
  4042e4:	f300 84cd 	bgt.w	404c82 <_vfprintf_r+0xca6>
  4042e8:	f89d a06f 	ldrb.w	sl, [sp, #111]	; 0x6f
  4042ec:	f108 0808 	add.w	r8, r8, #8
  4042f0:	f1ba 0f00 	cmp.w	sl, #0
  4042f4:	d00e      	beq.n	404314 <_vfprintf_r+0x338>
  4042f6:	9b24      	ldr	r3, [sp, #144]	; 0x90
  4042f8:	3301      	adds	r3, #1
  4042fa:	3401      	adds	r4, #1
  4042fc:	f10d 016f 	add.w	r1, sp, #111	; 0x6f
  404300:	2201      	movs	r2, #1
  404302:	2b07      	cmp	r3, #7
  404304:	9425      	str	r4, [sp, #148]	; 0x94
  404306:	9324      	str	r3, [sp, #144]	; 0x90
  404308:	e888 0006 	stmia.w	r8, {r1, r2}
  40430c:	f300 840a 	bgt.w	404b24 <_vfprintf_r+0xb48>
  404310:	f108 0808 	add.w	r8, r8, #8
  404314:	9b0f      	ldr	r3, [sp, #60]	; 0x3c
  404316:	b16b      	cbz	r3, 404334 <_vfprintf_r+0x358>
  404318:	9b24      	ldr	r3, [sp, #144]	; 0x90
  40431a:	3301      	adds	r3, #1
  40431c:	3402      	adds	r4, #2
  40431e:	a91c      	add	r1, sp, #112	; 0x70
  404320:	2202      	movs	r2, #2
  404322:	2b07      	cmp	r3, #7
  404324:	9425      	str	r4, [sp, #148]	; 0x94
  404326:	9324      	str	r3, [sp, #144]	; 0x90
  404328:	e888 0006 	stmia.w	r8, {r1, r2}
  40432c:	f300 8406 	bgt.w	404b3c <_vfprintf_r+0xb60>
  404330:	f108 0808 	add.w	r8, r8, #8
  404334:	2d80      	cmp	r5, #128	; 0x80
  404336:	f000 832e 	beq.w	404996 <_vfprintf_r+0x9ba>
  40433a:	9b09      	ldr	r3, [sp, #36]	; 0x24
  40433c:	9a0d      	ldr	r2, [sp, #52]	; 0x34
  40433e:	eba3 0a02 	sub.w	sl, r3, r2
  404342:	f1ba 0f00 	cmp.w	sl, #0
  404346:	dd3b      	ble.n	4043c0 <_vfprintf_r+0x3e4>
  404348:	f1ba 0f10 	cmp.w	sl, #16
  40434c:	9b24      	ldr	r3, [sp, #144]	; 0x90
  40434e:	4d8e      	ldr	r5, [pc, #568]	; (404588 <_vfprintf_r+0x5ac>)
  404350:	dd2b      	ble.n	4043aa <_vfprintf_r+0x3ce>
  404352:	4642      	mov	r2, r8
  404354:	4621      	mov	r1, r4
  404356:	46b0      	mov	r8, r6
  404358:	f04f 0b10 	mov.w	fp, #16
  40435c:	462e      	mov	r6, r5
  40435e:	9c08      	ldr	r4, [sp, #32]
  404360:	9d0a      	ldr	r5, [sp, #40]	; 0x28
  404362:	e006      	b.n	404372 <_vfprintf_r+0x396>
  404364:	f1aa 0a10 	sub.w	sl, sl, #16
  404368:	f1ba 0f10 	cmp.w	sl, #16
  40436c:	f102 0208 	add.w	r2, r2, #8
  404370:	dd17      	ble.n	4043a2 <_vfprintf_r+0x3c6>
  404372:	3301      	adds	r3, #1
  404374:	3110      	adds	r1, #16
  404376:	2b07      	cmp	r3, #7
  404378:	9125      	str	r1, [sp, #148]	; 0x94
  40437a:	9324      	str	r3, [sp, #144]	; 0x90
  40437c:	e882 0840 	stmia.w	r2, {r6, fp}
  404380:	ddf0      	ble.n	404364 <_vfprintf_r+0x388>
  404382:	aa23      	add	r2, sp, #140	; 0x8c
  404384:	4629      	mov	r1, r5
  404386:	4620      	mov	r0, r4
  404388:	f003 fbd2 	bl	407b30 <__sprint_r>
  40438c:	2800      	cmp	r0, #0
  40438e:	f040 8300 	bne.w	404992 <_vfprintf_r+0x9b6>
  404392:	f1aa 0a10 	sub.w	sl, sl, #16
  404396:	f1ba 0f10 	cmp.w	sl, #16
  40439a:	9925      	ldr	r1, [sp, #148]	; 0x94
  40439c:	9b24      	ldr	r3, [sp, #144]	; 0x90
  40439e:	aa30      	add	r2, sp, #192	; 0xc0
  4043a0:	dce7      	bgt.n	404372 <_vfprintf_r+0x396>
  4043a2:	4635      	mov	r5, r6
  4043a4:	460c      	mov	r4, r1
  4043a6:	4646      	mov	r6, r8
  4043a8:	4690      	mov	r8, r2
  4043aa:	3301      	adds	r3, #1
  4043ac:	4454      	add	r4, sl
  4043ae:	2b07      	cmp	r3, #7
  4043b0:	9425      	str	r4, [sp, #148]	; 0x94
  4043b2:	9324      	str	r3, [sp, #144]	; 0x90
  4043b4:	e888 0420 	stmia.w	r8, {r5, sl}
  4043b8:	f300 83a9 	bgt.w	404b0e <_vfprintf_r+0xb32>
  4043bc:	f108 0808 	add.w	r8, r8, #8
  4043c0:	9b06      	ldr	r3, [sp, #24]
  4043c2:	05db      	lsls	r3, r3, #23
  4043c4:	f100 8285 	bmi.w	4048d2 <_vfprintf_r+0x8f6>
  4043c8:	9b24      	ldr	r3, [sp, #144]	; 0x90
  4043ca:	990d      	ldr	r1, [sp, #52]	; 0x34
  4043cc:	f8c8 7000 	str.w	r7, [r8]
  4043d0:	3301      	adds	r3, #1
  4043d2:	440c      	add	r4, r1
  4043d4:	2b07      	cmp	r3, #7
  4043d6:	9425      	str	r4, [sp, #148]	; 0x94
  4043d8:	f8c8 1004 	str.w	r1, [r8, #4]
  4043dc:	9324      	str	r3, [sp, #144]	; 0x90
  4043de:	f300 8375 	bgt.w	404acc <_vfprintf_r+0xaf0>
  4043e2:	f108 0808 	add.w	r8, r8, #8
  4043e6:	9b06      	ldr	r3, [sp, #24]
  4043e8:	0759      	lsls	r1, r3, #29
  4043ea:	d53b      	bpl.n	404464 <_vfprintf_r+0x488>
  4043ec:	9b0c      	ldr	r3, [sp, #48]	; 0x30
  4043ee:	9a07      	ldr	r2, [sp, #28]
  4043f0:	1a9d      	subs	r5, r3, r2
  4043f2:	2d00      	cmp	r5, #0
  4043f4:	dd36      	ble.n	404464 <_vfprintf_r+0x488>
  4043f6:	2d10      	cmp	r5, #16
  4043f8:	9b24      	ldr	r3, [sp, #144]	; 0x90
  4043fa:	dd21      	ble.n	404440 <_vfprintf_r+0x464>
  4043fc:	2610      	movs	r6, #16
  4043fe:	9f08      	ldr	r7, [sp, #32]
  404400:	f8dd a028 	ldr.w	sl, [sp, #40]	; 0x28
  404404:	e004      	b.n	404410 <_vfprintf_r+0x434>
  404406:	3d10      	subs	r5, #16
  404408:	2d10      	cmp	r5, #16
  40440a:	f108 0808 	add.w	r8, r8, #8
  40440e:	dd17      	ble.n	404440 <_vfprintf_r+0x464>
  404410:	3301      	adds	r3, #1
  404412:	4a5c      	ldr	r2, [pc, #368]	; (404584 <_vfprintf_r+0x5a8>)
  404414:	9324      	str	r3, [sp, #144]	; 0x90
  404416:	3410      	adds	r4, #16
  404418:	2b07      	cmp	r3, #7
  40441a:	9425      	str	r4, [sp, #148]	; 0x94
  40441c:	e888 0044 	stmia.w	r8, {r2, r6}
  404420:	ddf1      	ble.n	404406 <_vfprintf_r+0x42a>
  404422:	aa23      	add	r2, sp, #140	; 0x8c
  404424:	4651      	mov	r1, sl
  404426:	4638      	mov	r0, r7
  404428:	f003 fb82 	bl	407b30 <__sprint_r>
  40442c:	2800      	cmp	r0, #0
  40442e:	f040 823f 	bne.w	4048b0 <_vfprintf_r+0x8d4>
  404432:	3d10      	subs	r5, #16
  404434:	2d10      	cmp	r5, #16
  404436:	9c25      	ldr	r4, [sp, #148]	; 0x94
  404438:	9b24      	ldr	r3, [sp, #144]	; 0x90
  40443a:	f10d 08c0 	add.w	r8, sp, #192	; 0xc0
  40443e:	dce7      	bgt.n	404410 <_vfprintf_r+0x434>
  404440:	3301      	adds	r3, #1
  404442:	4a50      	ldr	r2, [pc, #320]	; (404584 <_vfprintf_r+0x5a8>)
  404444:	9324      	str	r3, [sp, #144]	; 0x90
  404446:	442c      	add	r4, r5
  404448:	2b07      	cmp	r3, #7
  40444a:	9425      	str	r4, [sp, #148]	; 0x94
  40444c:	e888 0024 	stmia.w	r8, {r2, r5}
  404450:	dd08      	ble.n	404464 <_vfprintf_r+0x488>
  404452:	aa23      	add	r2, sp, #140	; 0x8c
  404454:	990a      	ldr	r1, [sp, #40]	; 0x28
  404456:	9808      	ldr	r0, [sp, #32]
  404458:	f003 fb6a 	bl	407b30 <__sprint_r>
  40445c:	2800      	cmp	r0, #0
  40445e:	f040 8347 	bne.w	404af0 <_vfprintf_r+0xb14>
  404462:	9c25      	ldr	r4, [sp, #148]	; 0x94
  404464:	9b0b      	ldr	r3, [sp, #44]	; 0x2c
  404466:	9a0c      	ldr	r2, [sp, #48]	; 0x30
  404468:	9907      	ldr	r1, [sp, #28]
  40446a:	428a      	cmp	r2, r1
  40446c:	bfac      	ite	ge
  40446e:	189b      	addge	r3, r3, r2
  404470:	185b      	addlt	r3, r3, r1
  404472:	930b      	str	r3, [sp, #44]	; 0x2c
  404474:	2c00      	cmp	r4, #0
  404476:	f040 8333 	bne.w	404ae0 <_vfprintf_r+0xb04>
  40447a:	2300      	movs	r3, #0
  40447c:	9324      	str	r3, [sp, #144]	; 0x90
  40447e:	f10d 08c0 	add.w	r8, sp, #192	; 0xc0
  404482:	e5f7      	b.n	404074 <_vfprintf_r+0x98>
  404484:	4651      	mov	r1, sl
  404486:	9808      	ldr	r0, [sp, #32]
  404488:	f001 f896 	bl	4055b8 <__swsetup_r>
  40448c:	2800      	cmp	r0, #0
  40448e:	d038      	beq.n	404502 <_vfprintf_r+0x526>
  404490:	f8da 3064 	ldr.w	r3, [sl, #100]	; 0x64
  404494:	07dd      	lsls	r5, r3, #31
  404496:	d404      	bmi.n	4044a2 <_vfprintf_r+0x4c6>
  404498:	f8ba 300c 	ldrh.w	r3, [sl, #12]
  40449c:	059c      	lsls	r4, r3, #22
  40449e:	f140 85ca 	bpl.w	405036 <_vfprintf_r+0x105a>
  4044a2:	f04f 33ff 	mov.w	r3, #4294967295
  4044a6:	930b      	str	r3, [sp, #44]	; 0x2c
  4044a8:	980b      	ldr	r0, [sp, #44]	; 0x2c
  4044aa:	b041      	add	sp, #260	; 0x104
  4044ac:	e8bd 8ff0 	ldmia.w	sp!, {r4, r5, r6, r7, r8, r9, sl, fp, pc}
  4044b0:	aa23      	add	r2, sp, #140	; 0x8c
  4044b2:	990a      	ldr	r1, [sp, #40]	; 0x28
  4044b4:	9808      	ldr	r0, [sp, #32]
  4044b6:	f003 fb3b 	bl	407b30 <__sprint_r>
  4044ba:	2800      	cmp	r0, #0
  4044bc:	f040 8318 	bne.w	404af0 <_vfprintf_r+0xb14>
  4044c0:	f10d 08c0 	add.w	r8, sp, #192	; 0xc0
  4044c4:	e5f5      	b.n	4040b2 <_vfprintf_r+0xd6>
  4044c6:	9808      	ldr	r0, [sp, #32]
  4044c8:	f002 f9a0 	bl	40680c <__sinit>
  4044cc:	e59c      	b.n	404008 <_vfprintf_r+0x2c>
  4044ce:	f9ba 200e 	ldrsh.w	r2, [sl, #14]
  4044d2:	2a00      	cmp	r2, #0
  4044d4:	f6ff adbd 	blt.w	404052 <_vfprintf_r+0x76>
  4044d8:	f8da 2064 	ldr.w	r2, [sl, #100]	; 0x64
  4044dc:	07d0      	lsls	r0, r2, #31
  4044de:	d405      	bmi.n	4044ec <_vfprintf_r+0x510>
  4044e0:	0599      	lsls	r1, r3, #22
  4044e2:	d403      	bmi.n	4044ec <_vfprintf_r+0x510>
  4044e4:	f8da 0058 	ldr.w	r0, [sl, #88]	; 0x58
  4044e8:	f002 fcce 	bl	406e88 <__retarget_lock_release_recursive>
  4044ec:	462b      	mov	r3, r5
  4044ee:	464a      	mov	r2, r9
  4044f0:	4651      	mov	r1, sl
  4044f2:	9808      	ldr	r0, [sp, #32]
  4044f4:	f001 f81e 	bl	405534 <__sbprintf>
  4044f8:	900b      	str	r0, [sp, #44]	; 0x2c
  4044fa:	980b      	ldr	r0, [sp, #44]	; 0x2c
  4044fc:	b041      	add	sp, #260	; 0x104
  4044fe:	e8bd 8ff0 	ldmia.w	sp!, {r4, r5, r6, r7, r8, r9, sl, fp, pc}
  404502:	f8ba 300c 	ldrh.w	r3, [sl, #12]
  404506:	e59f      	b.n	404048 <_vfprintf_r+0x6c>
  404508:	f8da 0058 	ldr.w	r0, [sl, #88]	; 0x58
  40450c:	f002 fcba 	bl	406e84 <__retarget_lock_acquire_recursive>
  404510:	f9ba 200c 	ldrsh.w	r2, [sl, #12]
  404514:	b293      	uxth	r3, r2
  404516:	e582      	b.n	40401e <_vfprintf_r+0x42>
  404518:	980c      	ldr	r0, [sp, #48]	; 0x30
  40451a:	930e      	str	r3, [sp, #56]	; 0x38
  40451c:	4240      	negs	r0, r0
  40451e:	900c      	str	r0, [sp, #48]	; 0x30
  404520:	f04b 0b04 	orr.w	fp, fp, #4
  404524:	f899 6000 	ldrb.w	r6, [r9]
  404528:	e5d7      	b.n	4040da <_vfprintf_r+0xfe>
  40452a:	2a00      	cmp	r2, #0
  40452c:	f040 87df 	bne.w	4054ee <_vfprintf_r+0x1512>
  404530:	4b16      	ldr	r3, [pc, #88]	; (40458c <_vfprintf_r+0x5b0>)
  404532:	9318      	str	r3, [sp, #96]	; 0x60
  404534:	f01b 0f20 	tst.w	fp, #32
  404538:	f040 84b9 	bne.w	404eae <_vfprintf_r+0xed2>
  40453c:	9a0e      	ldr	r2, [sp, #56]	; 0x38
  40453e:	f01b 0f10 	tst.w	fp, #16
  404542:	4613      	mov	r3, r2
  404544:	f040 83dc 	bne.w	404d00 <_vfprintf_r+0xd24>
  404548:	f01b 0f40 	tst.w	fp, #64	; 0x40
  40454c:	f000 83d8 	beq.w	404d00 <_vfprintf_r+0xd24>
  404550:	3304      	adds	r3, #4
  404552:	8814      	ldrh	r4, [r2, #0]
  404554:	930e      	str	r3, [sp, #56]	; 0x38
  404556:	2500      	movs	r5, #0
  404558:	f01b 0f01 	tst.w	fp, #1
  40455c:	f000 8322 	beq.w	404ba4 <_vfprintf_r+0xbc8>
  404560:	ea54 0305 	orrs.w	r3, r4, r5
  404564:	f000 831e 	beq.w	404ba4 <_vfprintf_r+0xbc8>
  404568:	2330      	movs	r3, #48	; 0x30
  40456a:	f88d 3070 	strb.w	r3, [sp, #112]	; 0x70
  40456e:	f88d 6071 	strb.w	r6, [sp, #113]	; 0x71
  404572:	f04b 0b02 	orr.w	fp, fp, #2
  404576:	2302      	movs	r3, #2
  404578:	e63c      	b.n	4041f4 <_vfprintf_r+0x218>
  40457a:	f04b 0b20 	orr.w	fp, fp, #32
  40457e:	f899 6000 	ldrb.w	r6, [r9]
  404582:	e5aa      	b.n	4040da <_vfprintf_r+0xfe>
  404584:	00408d80 	.word	0x00408d80
  404588:	00408d90 	.word	0x00408d90
  40458c:	00408d60 	.word	0x00408d60
  404590:	9a0e      	ldr	r2, [sp, #56]	; 0x38
  404592:	6817      	ldr	r7, [r2, #0]
  404594:	2400      	movs	r4, #0
  404596:	f88d 406f 	strb.w	r4, [sp, #111]	; 0x6f
  40459a:	1d15      	adds	r5, r2, #4
  40459c:	2f00      	cmp	r7, #0
  40459e:	f000 864e 	beq.w	40523e <_vfprintf_r+0x1262>
  4045a2:	9a09      	ldr	r2, [sp, #36]	; 0x24
  4045a4:	1c53      	adds	r3, r2, #1
  4045a6:	f000 85cc 	beq.w	405142 <_vfprintf_r+0x1166>
  4045aa:	4621      	mov	r1, r4
  4045ac:	4638      	mov	r0, r7
  4045ae:	f002 fce7 	bl	406f80 <memchr>
  4045b2:	2800      	cmp	r0, #0
  4045b4:	f000 8697 	beq.w	4052e6 <_vfprintf_r+0x130a>
  4045b8:	1bc3      	subs	r3, r0, r7
  4045ba:	930d      	str	r3, [sp, #52]	; 0x34
  4045bc:	9409      	str	r4, [sp, #36]	; 0x24
  4045be:	950e      	str	r5, [sp, #56]	; 0x38
  4045c0:	f8cd b018 	str.w	fp, [sp, #24]
  4045c4:	ea23 73e3 	bic.w	r3, r3, r3, asr #31
  4045c8:	9307      	str	r3, [sp, #28]
  4045ca:	9410      	str	r4, [sp, #64]	; 0x40
  4045cc:	f89d a06f 	ldrb.w	sl, [sp, #111]	; 0x6f
  4045d0:	e636      	b.n	404240 <_vfprintf_r+0x264>
  4045d2:	2a00      	cmp	r2, #0
  4045d4:	f040 8796 	bne.w	405504 <_vfprintf_r+0x1528>
  4045d8:	f01b 0f20 	tst.w	fp, #32
  4045dc:	f040 845a 	bne.w	404e94 <_vfprintf_r+0xeb8>
  4045e0:	f01b 0f10 	tst.w	fp, #16
  4045e4:	f040 83a2 	bne.w	404d2c <_vfprintf_r+0xd50>
  4045e8:	f01b 0f40 	tst.w	fp, #64	; 0x40
  4045ec:	f000 839e 	beq.w	404d2c <_vfprintf_r+0xd50>
  4045f0:	990e      	ldr	r1, [sp, #56]	; 0x38
  4045f2:	f9b1 4000 	ldrsh.w	r4, [r1]
  4045f6:	3104      	adds	r1, #4
  4045f8:	17e5      	asrs	r5, r4, #31
  4045fa:	4622      	mov	r2, r4
  4045fc:	462b      	mov	r3, r5
  4045fe:	910e      	str	r1, [sp, #56]	; 0x38
  404600:	2a00      	cmp	r2, #0
  404602:	f173 0300 	sbcs.w	r3, r3, #0
  404606:	f2c0 8487 	blt.w	404f18 <_vfprintf_r+0xf3c>
  40460a:	9909      	ldr	r1, [sp, #36]	; 0x24
  40460c:	f89d a06f 	ldrb.w	sl, [sp, #111]	; 0x6f
  404610:	1c4a      	adds	r2, r1, #1
  404612:	f04f 0301 	mov.w	r3, #1
  404616:	f47f adf5 	bne.w	404204 <_vfprintf_r+0x228>
  40461a:	ea54 0205 	orrs.w	r2, r4, r5
  40461e:	f000 826c 	beq.w	404afa <_vfprintf_r+0xb1e>
  404622:	f8cd b018 	str.w	fp, [sp, #24]
  404626:	2b01      	cmp	r3, #1
  404628:	f000 8308 	beq.w	404c3c <_vfprintf_r+0xc60>
  40462c:	2b02      	cmp	r3, #2
  40462e:	f040 8295 	bne.w	404b5c <_vfprintf_r+0xb80>
  404632:	9818      	ldr	r0, [sp, #96]	; 0x60
  404634:	af30      	add	r7, sp, #192	; 0xc0
  404636:	0923      	lsrs	r3, r4, #4
  404638:	f004 010f 	and.w	r1, r4, #15
  40463c:	ea43 7305 	orr.w	r3, r3, r5, lsl #28
  404640:	092a      	lsrs	r2, r5, #4
  404642:	461c      	mov	r4, r3
  404644:	4615      	mov	r5, r2
  404646:	5c43      	ldrb	r3, [r0, r1]
  404648:	f807 3d01 	strb.w	r3, [r7, #-1]!
  40464c:	ea54 0305 	orrs.w	r3, r4, r5
  404650:	d1f1      	bne.n	404636 <_vfprintf_r+0x65a>
  404652:	ab30      	add	r3, sp, #192	; 0xc0
  404654:	1bdb      	subs	r3, r3, r7
  404656:	930d      	str	r3, [sp, #52]	; 0x34
  404658:	e5ea      	b.n	404230 <_vfprintf_r+0x254>
  40465a:	f04b 0b40 	orr.w	fp, fp, #64	; 0x40
  40465e:	f899 6000 	ldrb.w	r6, [r9]
  404662:	e53a      	b.n	4040da <_vfprintf_r+0xfe>
  404664:	f899 6000 	ldrb.w	r6, [r9]
  404668:	2e6c      	cmp	r6, #108	; 0x6c
  40466a:	bf03      	ittte	eq
  40466c:	f899 6001 	ldrbeq.w	r6, [r9, #1]
  404670:	f04b 0b20 	orreq.w	fp, fp, #32
  404674:	f109 0901 	addeq.w	r9, r9, #1
  404678:	f04b 0b10 	orrne.w	fp, fp, #16
  40467c:	e52d      	b.n	4040da <_vfprintf_r+0xfe>
  40467e:	2a00      	cmp	r2, #0
  404680:	f040 874c 	bne.w	40551c <_vfprintf_r+0x1540>
  404684:	f01b 0f20 	tst.w	fp, #32
  404688:	f040 853f 	bne.w	40510a <_vfprintf_r+0x112e>
  40468c:	f01b 0f10 	tst.w	fp, #16
  404690:	f040 80fc 	bne.w	40488c <_vfprintf_r+0x8b0>
  404694:	f01b 0f40 	tst.w	fp, #64	; 0x40
  404698:	f000 80f8 	beq.w	40488c <_vfprintf_r+0x8b0>
  40469c:	9a0e      	ldr	r2, [sp, #56]	; 0x38
  40469e:	6813      	ldr	r3, [r2, #0]
  4046a0:	3204      	adds	r2, #4
  4046a2:	920e      	str	r2, [sp, #56]	; 0x38
  4046a4:	f8bd 202c 	ldrh.w	r2, [sp, #44]	; 0x2c
  4046a8:	801a      	strh	r2, [r3, #0]
  4046aa:	e4e3      	b.n	404074 <_vfprintf_r+0x98>
  4046ac:	f899 6000 	ldrb.w	r6, [r9]
  4046b0:	2900      	cmp	r1, #0
  4046b2:	f47f ad12 	bne.w	4040da <_vfprintf_r+0xfe>
  4046b6:	2201      	movs	r2, #1
  4046b8:	2120      	movs	r1, #32
  4046ba:	e50e      	b.n	4040da <_vfprintf_r+0xfe>
  4046bc:	f899 6000 	ldrb.w	r6, [r9]
  4046c0:	2e2a      	cmp	r6, #42	; 0x2a
  4046c2:	f109 0001 	add.w	r0, r9, #1
  4046c6:	f000 86f1 	beq.w	4054ac <_vfprintf_r+0x14d0>
  4046ca:	f1a6 0330 	sub.w	r3, r6, #48	; 0x30
  4046ce:	2b09      	cmp	r3, #9
  4046d0:	4681      	mov	r9, r0
  4046d2:	bf98      	it	ls
  4046d4:	2000      	movls	r0, #0
  4046d6:	f200 863d 	bhi.w	405354 <_vfprintf_r+0x1378>
  4046da:	f819 6b01 	ldrb.w	r6, [r9], #1
  4046de:	eb00 0080 	add.w	r0, r0, r0, lsl #2
  4046e2:	eb03 0040 	add.w	r0, r3, r0, lsl #1
  4046e6:	f1a6 0330 	sub.w	r3, r6, #48	; 0x30
  4046ea:	2b09      	cmp	r3, #9
  4046ec:	d9f5      	bls.n	4046da <_vfprintf_r+0x6fe>
  4046ee:	9009      	str	r0, [sp, #36]	; 0x24
  4046f0:	e4f5      	b.n	4040de <_vfprintf_r+0x102>
  4046f2:	f04b 0b80 	orr.w	fp, fp, #128	; 0x80
  4046f6:	f899 6000 	ldrb.w	r6, [r9]
  4046fa:	e4ee      	b.n	4040da <_vfprintf_r+0xfe>
  4046fc:	f899 6000 	ldrb.w	r6, [r9]
  404700:	2201      	movs	r2, #1
  404702:	212b      	movs	r1, #43	; 0x2b
  404704:	e4e9      	b.n	4040da <_vfprintf_r+0xfe>
  404706:	9a0e      	ldr	r2, [sp, #56]	; 0x38
  404708:	4bae      	ldr	r3, [pc, #696]	; (4049c4 <_vfprintf_r+0x9e8>)
  40470a:	6814      	ldr	r4, [r2, #0]
  40470c:	9318      	str	r3, [sp, #96]	; 0x60
  40470e:	2678      	movs	r6, #120	; 0x78
  404710:	2330      	movs	r3, #48	; 0x30
  404712:	3204      	adds	r2, #4
  404714:	f88d 3070 	strb.w	r3, [sp, #112]	; 0x70
  404718:	f04b 0b02 	orr.w	fp, fp, #2
  40471c:	920e      	str	r2, [sp, #56]	; 0x38
  40471e:	2500      	movs	r5, #0
  404720:	f88d 6071 	strb.w	r6, [sp, #113]	; 0x71
  404724:	2302      	movs	r3, #2
  404726:	e565      	b.n	4041f4 <_vfprintf_r+0x218>
  404728:	2a00      	cmp	r2, #0
  40472a:	f040 86e4 	bne.w	4054f6 <_vfprintf_r+0x151a>
  40472e:	4ba6      	ldr	r3, [pc, #664]	; (4049c8 <_vfprintf_r+0x9ec>)
  404730:	9318      	str	r3, [sp, #96]	; 0x60
  404732:	e6ff      	b.n	404534 <_vfprintf_r+0x558>
  404734:	990e      	ldr	r1, [sp, #56]	; 0x38
  404736:	f8cd b018 	str.w	fp, [sp, #24]
  40473a:	680a      	ldr	r2, [r1, #0]
  40473c:	f88d 2098 	strb.w	r2, [sp, #152]	; 0x98
  404740:	2300      	movs	r3, #0
  404742:	460a      	mov	r2, r1
  404744:	469a      	mov	sl, r3
  404746:	f88d 306f 	strb.w	r3, [sp, #111]	; 0x6f
  40474a:	3204      	adds	r2, #4
  40474c:	2301      	movs	r3, #1
  40474e:	9307      	str	r3, [sp, #28]
  404750:	f8cd a024 	str.w	sl, [sp, #36]	; 0x24
  404754:	f8cd a040 	str.w	sl, [sp, #64]	; 0x40
  404758:	920e      	str	r2, [sp, #56]	; 0x38
  40475a:	930d      	str	r3, [sp, #52]	; 0x34
  40475c:	af26      	add	r7, sp, #152	; 0x98
  40475e:	e575      	b.n	40424c <_vfprintf_r+0x270>
  404760:	f1a6 0330 	sub.w	r3, r6, #48	; 0x30
  404764:	2000      	movs	r0, #0
  404766:	f819 6b01 	ldrb.w	r6, [r9], #1
  40476a:	eb00 0080 	add.w	r0, r0, r0, lsl #2
  40476e:	eb03 0040 	add.w	r0, r3, r0, lsl #1
  404772:	f1a6 0330 	sub.w	r3, r6, #48	; 0x30
  404776:	2b09      	cmp	r3, #9
  404778:	d9f5      	bls.n	404766 <_vfprintf_r+0x78a>
  40477a:	900c      	str	r0, [sp, #48]	; 0x30
  40477c:	e4af      	b.n	4040de <_vfprintf_r+0x102>
  40477e:	2a00      	cmp	r2, #0
  404780:	f040 86c8 	bne.w	405514 <_vfprintf_r+0x1538>
  404784:	f04b 0b10 	orr.w	fp, fp, #16
  404788:	e726      	b.n	4045d8 <_vfprintf_r+0x5fc>
  40478a:	f04b 0b01 	orr.w	fp, fp, #1
  40478e:	f899 6000 	ldrb.w	r6, [r9]
  404792:	e4a2      	b.n	4040da <_vfprintf_r+0xfe>
  404794:	9c0e      	ldr	r4, [sp, #56]	; 0x38
  404796:	6823      	ldr	r3, [r4, #0]
  404798:	930c      	str	r3, [sp, #48]	; 0x30
  40479a:	4618      	mov	r0, r3
  40479c:	2800      	cmp	r0, #0
  40479e:	4623      	mov	r3, r4
  4047a0:	f103 0304 	add.w	r3, r3, #4
  4047a4:	f6ff aeb8 	blt.w	404518 <_vfprintf_r+0x53c>
  4047a8:	930e      	str	r3, [sp, #56]	; 0x38
  4047aa:	f899 6000 	ldrb.w	r6, [r9]
  4047ae:	e494      	b.n	4040da <_vfprintf_r+0xfe>
  4047b0:	2a00      	cmp	r2, #0
  4047b2:	f040 86b7 	bne.w	405524 <_vfprintf_r+0x1548>
  4047b6:	9d0e      	ldr	r5, [sp, #56]	; 0x38
  4047b8:	3507      	adds	r5, #7
  4047ba:	f025 0307 	bic.w	r3, r5, #7
  4047be:	f103 0208 	add.w	r2, r3, #8
  4047c2:	920e      	str	r2, [sp, #56]	; 0x38
  4047c4:	681a      	ldr	r2, [r3, #0]
  4047c6:	9213      	str	r2, [sp, #76]	; 0x4c
  4047c8:	685b      	ldr	r3, [r3, #4]
  4047ca:	9312      	str	r3, [sp, #72]	; 0x48
  4047cc:	9b12      	ldr	r3, [sp, #72]	; 0x48
  4047ce:	9d13      	ldr	r5, [sp, #76]	; 0x4c
  4047d0:	f023 4400 	bic.w	r4, r3, #2147483648	; 0x80000000
  4047d4:	4628      	mov	r0, r5
  4047d6:	4621      	mov	r1, r4
  4047d8:	f04f 32ff 	mov.w	r2, #4294967295
  4047dc:	4b7b      	ldr	r3, [pc, #492]	; (4049cc <_vfprintf_r+0x9f0>)
  4047de:	f004 f8a9 	bl	408934 <__aeabi_dcmpun>
  4047e2:	2800      	cmp	r0, #0
  4047e4:	f040 83a2 	bne.w	404f2c <_vfprintf_r+0xf50>
  4047e8:	4628      	mov	r0, r5
  4047ea:	4621      	mov	r1, r4
  4047ec:	f04f 32ff 	mov.w	r2, #4294967295
  4047f0:	4b76      	ldr	r3, [pc, #472]	; (4049cc <_vfprintf_r+0x9f0>)
  4047f2:	f004 f881 	bl	4088f8 <__aeabi_dcmple>
  4047f6:	2800      	cmp	r0, #0
  4047f8:	f040 8398 	bne.w	404f2c <_vfprintf_r+0xf50>
  4047fc:	9a16      	ldr	r2, [sp, #88]	; 0x58
  4047fe:	9813      	ldr	r0, [sp, #76]	; 0x4c
  404800:	9b17      	ldr	r3, [sp, #92]	; 0x5c
  404802:	9912      	ldr	r1, [sp, #72]	; 0x48
  404804:	f004 f86e 	bl	4088e4 <__aeabi_dcmplt>
  404808:	2800      	cmp	r0, #0
  40480a:	f040 8435 	bne.w	405078 <_vfprintf_r+0x109c>
  40480e:	f89d a06f 	ldrb.w	sl, [sp, #111]	; 0x6f
  404812:	4f6f      	ldr	r7, [pc, #444]	; (4049d0 <_vfprintf_r+0x9f4>)
  404814:	4b6f      	ldr	r3, [pc, #444]	; (4049d4 <_vfprintf_r+0x9f8>)
  404816:	2203      	movs	r2, #3
  404818:	2100      	movs	r1, #0
  40481a:	f02b 0080 	bic.w	r0, fp, #128	; 0x80
  40481e:	9207      	str	r2, [sp, #28]
  404820:	9109      	str	r1, [sp, #36]	; 0x24
  404822:	9006      	str	r0, [sp, #24]
  404824:	2e47      	cmp	r6, #71	; 0x47
  404826:	bfd8      	it	le
  404828:	461f      	movle	r7, r3
  40482a:	920d      	str	r2, [sp, #52]	; 0x34
  40482c:	9110      	str	r1, [sp, #64]	; 0x40
  40482e:	e507      	b.n	404240 <_vfprintf_r+0x264>
  404830:	f04b 0b08 	orr.w	fp, fp, #8
  404834:	f899 6000 	ldrb.w	r6, [r9]
  404838:	e44f      	b.n	4040da <_vfprintf_r+0xfe>
  40483a:	9d0e      	ldr	r5, [sp, #56]	; 0x38
  40483c:	3507      	adds	r5, #7
  40483e:	f025 0307 	bic.w	r3, r5, #7
  404842:	f103 0208 	add.w	r2, r3, #8
  404846:	e9d3 4500 	ldrd	r4, r5, [r3]
  40484a:	920e      	str	r2, [sp, #56]	; 0x38
  40484c:	2300      	movs	r3, #0
  40484e:	e4d1      	b.n	4041f4 <_vfprintf_r+0x218>
  404850:	9d0e      	ldr	r5, [sp, #56]	; 0x38
  404852:	3507      	adds	r5, #7
  404854:	f025 0307 	bic.w	r3, r5, #7
  404858:	f103 0208 	add.w	r2, r3, #8
  40485c:	e9d3 4500 	ldrd	r4, r5, [r3]
  404860:	920e      	str	r2, [sp, #56]	; 0x38
  404862:	2301      	movs	r3, #1
  404864:	e4c6      	b.n	4041f4 <_vfprintf_r+0x218>
  404866:	2a00      	cmp	r2, #0
  404868:	f040 8650 	bne.w	40550c <_vfprintf_r+0x1530>
  40486c:	b1c6      	cbz	r6, 4048a0 <_vfprintf_r+0x8c4>
  40486e:	2300      	movs	r3, #0
  404870:	2201      	movs	r2, #1
  404872:	469a      	mov	sl, r3
  404874:	9207      	str	r2, [sp, #28]
  404876:	f88d 6098 	strb.w	r6, [sp, #152]	; 0x98
  40487a:	f8cd b018 	str.w	fp, [sp, #24]
  40487e:	f88d 306f 	strb.w	r3, [sp, #111]	; 0x6f
  404882:	9309      	str	r3, [sp, #36]	; 0x24
  404884:	9310      	str	r3, [sp, #64]	; 0x40
  404886:	920d      	str	r2, [sp, #52]	; 0x34
  404888:	af26      	add	r7, sp, #152	; 0x98
  40488a:	e4df      	b.n	40424c <_vfprintf_r+0x270>
  40488c:	9a0e      	ldr	r2, [sp, #56]	; 0x38
  40488e:	6813      	ldr	r3, [r2, #0]
  404890:	3204      	adds	r2, #4
  404892:	920e      	str	r2, [sp, #56]	; 0x38
  404894:	9a0b      	ldr	r2, [sp, #44]	; 0x2c
  404896:	601a      	str	r2, [r3, #0]
  404898:	f7ff bbec 	b.w	404074 <_vfprintf_r+0x98>
  40489c:	9c25      	ldr	r4, [sp, #148]	; 0x94
  40489e:	e527      	b.n	4042f0 <_vfprintf_r+0x314>
  4048a0:	9b25      	ldr	r3, [sp, #148]	; 0x94
  4048a2:	f8dd a028 	ldr.w	sl, [sp, #40]	; 0x28
  4048a6:	2b00      	cmp	r3, #0
  4048a8:	f040 8594 	bne.w	4053d4 <_vfprintf_r+0x13f8>
  4048ac:	2300      	movs	r3, #0
  4048ae:	9324      	str	r3, [sp, #144]	; 0x90
  4048b0:	f8da 3064 	ldr.w	r3, [sl, #100]	; 0x64
  4048b4:	f013 0f01 	tst.w	r3, #1
  4048b8:	f8ba 300c 	ldrh.w	r3, [sl, #12]
  4048bc:	d102      	bne.n	4048c4 <_vfprintf_r+0x8e8>
  4048be:	059a      	lsls	r2, r3, #22
  4048c0:	f140 8249 	bpl.w	404d56 <_vfprintf_r+0xd7a>
  4048c4:	065b      	lsls	r3, r3, #25
  4048c6:	f53f adec 	bmi.w	4044a2 <_vfprintf_r+0x4c6>
  4048ca:	980b      	ldr	r0, [sp, #44]	; 0x2c
  4048cc:	b041      	add	sp, #260	; 0x104
  4048ce:	e8bd 8ff0 	ldmia.w	sp!, {r4, r5, r6, r7, r8, r9, sl, fp, pc}
  4048d2:	2e65      	cmp	r6, #101	; 0x65
  4048d4:	f340 80b2 	ble.w	404a3c <_vfprintf_r+0xa60>
  4048d8:	9a16      	ldr	r2, [sp, #88]	; 0x58
  4048da:	9813      	ldr	r0, [sp, #76]	; 0x4c
  4048dc:	9b17      	ldr	r3, [sp, #92]	; 0x5c
  4048de:	9912      	ldr	r1, [sp, #72]	; 0x48
  4048e0:	f003 fff6 	bl	4088d0 <__aeabi_dcmpeq>
  4048e4:	2800      	cmp	r0, #0
  4048e6:	f000 8160 	beq.w	404baa <_vfprintf_r+0xbce>
  4048ea:	9b24      	ldr	r3, [sp, #144]	; 0x90
  4048ec:	4a3a      	ldr	r2, [pc, #232]	; (4049d8 <_vfprintf_r+0x9fc>)
  4048ee:	f8c8 2000 	str.w	r2, [r8]
  4048f2:	3301      	adds	r3, #1
  4048f4:	3401      	adds	r4, #1
  4048f6:	2201      	movs	r2, #1
  4048f8:	2b07      	cmp	r3, #7
  4048fa:	9425      	str	r4, [sp, #148]	; 0x94
  4048fc:	9324      	str	r3, [sp, #144]	; 0x90
  4048fe:	f8c8 2004 	str.w	r2, [r8, #4]
  404902:	f300 83bf 	bgt.w	405084 <_vfprintf_r+0x10a8>
  404906:	f108 0808 	add.w	r8, r8, #8
  40490a:	9b1d      	ldr	r3, [sp, #116]	; 0x74
  40490c:	9a11      	ldr	r2, [sp, #68]	; 0x44
  40490e:	9c25      	ldr	r4, [sp, #148]	; 0x94
  404910:	4293      	cmp	r3, r2
  404912:	db03      	blt.n	40491c <_vfprintf_r+0x940>
  404914:	9b06      	ldr	r3, [sp, #24]
  404916:	07df      	lsls	r7, r3, #31
  404918:	f57f ad65 	bpl.w	4043e6 <_vfprintf_r+0x40a>
  40491c:	9b24      	ldr	r3, [sp, #144]	; 0x90
  40491e:	9914      	ldr	r1, [sp, #80]	; 0x50
  404920:	9a15      	ldr	r2, [sp, #84]	; 0x54
  404922:	f8c8 2000 	str.w	r2, [r8]
  404926:	3301      	adds	r3, #1
  404928:	440c      	add	r4, r1
  40492a:	2b07      	cmp	r3, #7
  40492c:	f8c8 1004 	str.w	r1, [r8, #4]
  404930:	9425      	str	r4, [sp, #148]	; 0x94
  404932:	9324      	str	r3, [sp, #144]	; 0x90
  404934:	f300 83f8 	bgt.w	405128 <_vfprintf_r+0x114c>
  404938:	f108 0808 	add.w	r8, r8, #8
  40493c:	9b11      	ldr	r3, [sp, #68]	; 0x44
  40493e:	1e5e      	subs	r6, r3, #1
  404940:	2e00      	cmp	r6, #0
  404942:	f77f ad50 	ble.w	4043e6 <_vfprintf_r+0x40a>
  404946:	2e10      	cmp	r6, #16
  404948:	9b24      	ldr	r3, [sp, #144]	; 0x90
  40494a:	4d24      	ldr	r5, [pc, #144]	; (4049dc <_vfprintf_r+0xa00>)
  40494c:	f340 81dd 	ble.w	404d0a <_vfprintf_r+0xd2e>
  404950:	2710      	movs	r7, #16
  404952:	f8dd a020 	ldr.w	sl, [sp, #32]
  404956:	f8dd b028 	ldr.w	fp, [sp, #40]	; 0x28
  40495a:	e005      	b.n	404968 <_vfprintf_r+0x98c>
  40495c:	f108 0808 	add.w	r8, r8, #8
  404960:	3e10      	subs	r6, #16
  404962:	2e10      	cmp	r6, #16
  404964:	f340 81d1 	ble.w	404d0a <_vfprintf_r+0xd2e>
  404968:	3301      	adds	r3, #1
  40496a:	3410      	adds	r4, #16
  40496c:	2b07      	cmp	r3, #7
  40496e:	9425      	str	r4, [sp, #148]	; 0x94
  404970:	9324      	str	r3, [sp, #144]	; 0x90
  404972:	e888 00a0 	stmia.w	r8, {r5, r7}
  404976:	ddf1      	ble.n	40495c <_vfprintf_r+0x980>
  404978:	aa23      	add	r2, sp, #140	; 0x8c
  40497a:	4659      	mov	r1, fp
  40497c:	4650      	mov	r0, sl
  40497e:	f003 f8d7 	bl	407b30 <__sprint_r>
  404982:	2800      	cmp	r0, #0
  404984:	f040 83cd 	bne.w	405122 <_vfprintf_r+0x1146>
  404988:	9c25      	ldr	r4, [sp, #148]	; 0x94
  40498a:	9b24      	ldr	r3, [sp, #144]	; 0x90
  40498c:	f10d 08c0 	add.w	r8, sp, #192	; 0xc0
  404990:	e7e6      	b.n	404960 <_vfprintf_r+0x984>
  404992:	46aa      	mov	sl, r5
  404994:	e78c      	b.n	4048b0 <_vfprintf_r+0x8d4>
  404996:	9b0c      	ldr	r3, [sp, #48]	; 0x30
  404998:	9a07      	ldr	r2, [sp, #28]
  40499a:	eba3 0a02 	sub.w	sl, r3, r2
  40499e:	f1ba 0f00 	cmp.w	sl, #0
  4049a2:	f77f acca 	ble.w	40433a <_vfprintf_r+0x35e>
  4049a6:	f1ba 0f10 	cmp.w	sl, #16
  4049aa:	9b24      	ldr	r3, [sp, #144]	; 0x90
  4049ac:	4d0b      	ldr	r5, [pc, #44]	; (4049dc <_vfprintf_r+0xa00>)
  4049ae:	dd39      	ble.n	404a24 <_vfprintf_r+0xa48>
  4049b0:	4642      	mov	r2, r8
  4049b2:	4621      	mov	r1, r4
  4049b4:	46b0      	mov	r8, r6
  4049b6:	f04f 0b10 	mov.w	fp, #16
  4049ba:	462e      	mov	r6, r5
  4049bc:	9c08      	ldr	r4, [sp, #32]
  4049be:	9d0a      	ldr	r5, [sp, #40]	; 0x28
  4049c0:	e015      	b.n	4049ee <_vfprintf_r+0xa12>
  4049c2:	bf00      	nop
  4049c4:	00408d60 	.word	0x00408d60
  4049c8:	00408d4c 	.word	0x00408d4c
  4049cc:	7fefffff 	.word	0x7fefffff
  4049d0:	00408d40 	.word	0x00408d40
  4049d4:	00408d3c 	.word	0x00408d3c
  4049d8:	00408d7c 	.word	0x00408d7c
  4049dc:	00408d90 	.word	0x00408d90
  4049e0:	f1aa 0a10 	sub.w	sl, sl, #16
  4049e4:	f1ba 0f10 	cmp.w	sl, #16
  4049e8:	f102 0208 	add.w	r2, r2, #8
  4049ec:	dd16      	ble.n	404a1c <_vfprintf_r+0xa40>
  4049ee:	3301      	adds	r3, #1
  4049f0:	3110      	adds	r1, #16
  4049f2:	2b07      	cmp	r3, #7
  4049f4:	9125      	str	r1, [sp, #148]	; 0x94
  4049f6:	9324      	str	r3, [sp, #144]	; 0x90
  4049f8:	e882 0840 	stmia.w	r2, {r6, fp}
  4049fc:	ddf0      	ble.n	4049e0 <_vfprintf_r+0xa04>
  4049fe:	aa23      	add	r2, sp, #140	; 0x8c
  404a00:	4629      	mov	r1, r5
  404a02:	4620      	mov	r0, r4
  404a04:	f003 f894 	bl	407b30 <__sprint_r>
  404a08:	2800      	cmp	r0, #0
  404a0a:	d1c2      	bne.n	404992 <_vfprintf_r+0x9b6>
  404a0c:	f1aa 0a10 	sub.w	sl, sl, #16
  404a10:	f1ba 0f10 	cmp.w	sl, #16
  404a14:	9925      	ldr	r1, [sp, #148]	; 0x94
  404a16:	9b24      	ldr	r3, [sp, #144]	; 0x90
  404a18:	aa30      	add	r2, sp, #192	; 0xc0
  404a1a:	dce8      	bgt.n	4049ee <_vfprintf_r+0xa12>
  404a1c:	4635      	mov	r5, r6
  404a1e:	460c      	mov	r4, r1
  404a20:	4646      	mov	r6, r8
  404a22:	4690      	mov	r8, r2
  404a24:	3301      	adds	r3, #1
  404a26:	4454      	add	r4, sl
  404a28:	2b07      	cmp	r3, #7
  404a2a:	9425      	str	r4, [sp, #148]	; 0x94
  404a2c:	9324      	str	r3, [sp, #144]	; 0x90
  404a2e:	e888 0420 	stmia.w	r8, {r5, sl}
  404a32:	f300 8264 	bgt.w	404efe <_vfprintf_r+0xf22>
  404a36:	f108 0808 	add.w	r8, r8, #8
  404a3a:	e47e      	b.n	40433a <_vfprintf_r+0x35e>
  404a3c:	9b11      	ldr	r3, [sp, #68]	; 0x44
  404a3e:	9e24      	ldr	r6, [sp, #144]	; 0x90
  404a40:	2b01      	cmp	r3, #1
  404a42:	f340 81fd 	ble.w	404e40 <_vfprintf_r+0xe64>
  404a46:	3601      	adds	r6, #1
  404a48:	3401      	adds	r4, #1
  404a4a:	2301      	movs	r3, #1
  404a4c:	2e07      	cmp	r6, #7
  404a4e:	9425      	str	r4, [sp, #148]	; 0x94
  404a50:	9624      	str	r6, [sp, #144]	; 0x90
  404a52:	f8c8 7000 	str.w	r7, [r8]
  404a56:	f8c8 3004 	str.w	r3, [r8, #4]
  404a5a:	f300 820e 	bgt.w	404e7a <_vfprintf_r+0xe9e>
  404a5e:	f108 0808 	add.w	r8, r8, #8
  404a62:	9a14      	ldr	r2, [sp, #80]	; 0x50
  404a64:	9b15      	ldr	r3, [sp, #84]	; 0x54
  404a66:	f8c8 3000 	str.w	r3, [r8]
  404a6a:	3601      	adds	r6, #1
  404a6c:	4414      	add	r4, r2
  404a6e:	2e07      	cmp	r6, #7
  404a70:	9425      	str	r4, [sp, #148]	; 0x94
  404a72:	9624      	str	r6, [sp, #144]	; 0x90
  404a74:	f8c8 2004 	str.w	r2, [r8, #4]
  404a78:	f300 822e 	bgt.w	404ed8 <_vfprintf_r+0xefc>
  404a7c:	f108 0808 	add.w	r8, r8, #8
  404a80:	9b17      	ldr	r3, [sp, #92]	; 0x5c
  404a82:	9a16      	ldr	r2, [sp, #88]	; 0x58
  404a84:	9813      	ldr	r0, [sp, #76]	; 0x4c
  404a86:	9912      	ldr	r1, [sp, #72]	; 0x48
  404a88:	f003 ff22 	bl	4088d0 <__aeabi_dcmpeq>
  404a8c:	9b11      	ldr	r3, [sp, #68]	; 0x44
  404a8e:	2800      	cmp	r0, #0
  404a90:	f040 8106 	bne.w	404ca0 <_vfprintf_r+0xcc4>
  404a94:	3b01      	subs	r3, #1
  404a96:	3601      	adds	r6, #1
  404a98:	3701      	adds	r7, #1
  404a9a:	441c      	add	r4, r3
  404a9c:	2e07      	cmp	r6, #7
  404a9e:	9624      	str	r6, [sp, #144]	; 0x90
  404aa0:	9425      	str	r4, [sp, #148]	; 0x94
  404aa2:	f8c8 7000 	str.w	r7, [r8]
  404aa6:	f8c8 3004 	str.w	r3, [r8, #4]
  404aaa:	f300 81d9 	bgt.w	404e60 <_vfprintf_r+0xe84>
  404aae:	f108 0808 	add.w	r8, r8, #8
  404ab2:	9a19      	ldr	r2, [sp, #100]	; 0x64
  404ab4:	f8c8 2004 	str.w	r2, [r8, #4]
  404ab8:	3601      	adds	r6, #1
  404aba:	4414      	add	r4, r2
  404abc:	ab1f      	add	r3, sp, #124	; 0x7c
  404abe:	2e07      	cmp	r6, #7
  404ac0:	9425      	str	r4, [sp, #148]	; 0x94
  404ac2:	9624      	str	r6, [sp, #144]	; 0x90
  404ac4:	f8c8 3000 	str.w	r3, [r8]
  404ac8:	f77f ac8b 	ble.w	4043e2 <_vfprintf_r+0x406>
  404acc:	aa23      	add	r2, sp, #140	; 0x8c
  404ace:	990a      	ldr	r1, [sp, #40]	; 0x28
  404ad0:	9808      	ldr	r0, [sp, #32]
  404ad2:	f003 f82d 	bl	407b30 <__sprint_r>
  404ad6:	b958      	cbnz	r0, 404af0 <_vfprintf_r+0xb14>
  404ad8:	9c25      	ldr	r4, [sp, #148]	; 0x94
  404ada:	f10d 08c0 	add.w	r8, sp, #192	; 0xc0
  404ade:	e482      	b.n	4043e6 <_vfprintf_r+0x40a>
  404ae0:	aa23      	add	r2, sp, #140	; 0x8c
  404ae2:	990a      	ldr	r1, [sp, #40]	; 0x28
  404ae4:	9808      	ldr	r0, [sp, #32]
  404ae6:	f003 f823 	bl	407b30 <__sprint_r>
  404aea:	2800      	cmp	r0, #0
  404aec:	f43f acc5 	beq.w	40447a <_vfprintf_r+0x49e>
  404af0:	f8dd a028 	ldr.w	sl, [sp, #40]	; 0x28
  404af4:	e6dc      	b.n	4048b0 <_vfprintf_r+0x8d4>
  404af6:	f8dd b018 	ldr.w	fp, [sp, #24]
  404afa:	2b01      	cmp	r3, #1
  404afc:	f000 8121 	beq.w	404d42 <_vfprintf_r+0xd66>
  404b00:	2b02      	cmp	r3, #2
  404b02:	d127      	bne.n	404b54 <_vfprintf_r+0xb78>
  404b04:	f8cd b018 	str.w	fp, [sp, #24]
  404b08:	2400      	movs	r4, #0
  404b0a:	2500      	movs	r5, #0
  404b0c:	e591      	b.n	404632 <_vfprintf_r+0x656>
  404b0e:	aa23      	add	r2, sp, #140	; 0x8c
  404b10:	990a      	ldr	r1, [sp, #40]	; 0x28
  404b12:	9808      	ldr	r0, [sp, #32]
  404b14:	f003 f80c 	bl	407b30 <__sprint_r>
  404b18:	2800      	cmp	r0, #0
  404b1a:	d1e9      	bne.n	404af0 <_vfprintf_r+0xb14>
  404b1c:	9c25      	ldr	r4, [sp, #148]	; 0x94
  404b1e:	f10d 08c0 	add.w	r8, sp, #192	; 0xc0
  404b22:	e44d      	b.n	4043c0 <_vfprintf_r+0x3e4>
  404b24:	aa23      	add	r2, sp, #140	; 0x8c
  404b26:	990a      	ldr	r1, [sp, #40]	; 0x28
  404b28:	9808      	ldr	r0, [sp, #32]
  404b2a:	f003 f801 	bl	407b30 <__sprint_r>
  404b2e:	2800      	cmp	r0, #0
  404b30:	d1de      	bne.n	404af0 <_vfprintf_r+0xb14>
  404b32:	9c25      	ldr	r4, [sp, #148]	; 0x94
  404b34:	f10d 08c0 	add.w	r8, sp, #192	; 0xc0
  404b38:	f7ff bbec 	b.w	404314 <_vfprintf_r+0x338>
  404b3c:	aa23      	add	r2, sp, #140	; 0x8c
  404b3e:	990a      	ldr	r1, [sp, #40]	; 0x28
  404b40:	9808      	ldr	r0, [sp, #32]
  404b42:	f002 fff5 	bl	407b30 <__sprint_r>
  404b46:	2800      	cmp	r0, #0
  404b48:	d1d2      	bne.n	404af0 <_vfprintf_r+0xb14>
  404b4a:	9c25      	ldr	r4, [sp, #148]	; 0x94
  404b4c:	f10d 08c0 	add.w	r8, sp, #192	; 0xc0
  404b50:	f7ff bbf0 	b.w	404334 <_vfprintf_r+0x358>
  404b54:	f8cd b018 	str.w	fp, [sp, #24]
  404b58:	2400      	movs	r4, #0
  404b5a:	2500      	movs	r5, #0
  404b5c:	a930      	add	r1, sp, #192	; 0xc0
  404b5e:	e000      	b.n	404b62 <_vfprintf_r+0xb86>
  404b60:	4639      	mov	r1, r7
  404b62:	08e2      	lsrs	r2, r4, #3
  404b64:	ea42 7245 	orr.w	r2, r2, r5, lsl #29
  404b68:	08e8      	lsrs	r0, r5, #3
  404b6a:	f004 0307 	and.w	r3, r4, #7
  404b6e:	4605      	mov	r5, r0
  404b70:	4614      	mov	r4, r2
  404b72:	3330      	adds	r3, #48	; 0x30
  404b74:	ea54 0205 	orrs.w	r2, r4, r5
  404b78:	f801 3c01 	strb.w	r3, [r1, #-1]
  404b7c:	f101 37ff 	add.w	r7, r1, #4294967295
  404b80:	d1ee      	bne.n	404b60 <_vfprintf_r+0xb84>
  404b82:	9a06      	ldr	r2, [sp, #24]
  404b84:	07d2      	lsls	r2, r2, #31
  404b86:	f57f ad64 	bpl.w	404652 <_vfprintf_r+0x676>
  404b8a:	2b30      	cmp	r3, #48	; 0x30
  404b8c:	f43f ad61 	beq.w	404652 <_vfprintf_r+0x676>
  404b90:	2330      	movs	r3, #48	; 0x30
  404b92:	3902      	subs	r1, #2
  404b94:	f807 3c01 	strb.w	r3, [r7, #-1]
  404b98:	ab30      	add	r3, sp, #192	; 0xc0
  404b9a:	1a5b      	subs	r3, r3, r1
  404b9c:	930d      	str	r3, [sp, #52]	; 0x34
  404b9e:	460f      	mov	r7, r1
  404ba0:	f7ff bb46 	b.w	404230 <_vfprintf_r+0x254>
  404ba4:	2302      	movs	r3, #2
  404ba6:	f7ff bb25 	b.w	4041f4 <_vfprintf_r+0x218>
  404baa:	991d      	ldr	r1, [sp, #116]	; 0x74
  404bac:	2900      	cmp	r1, #0
  404bae:	f340 8274 	ble.w	40509a <_vfprintf_r+0x10be>
  404bb2:	9b10      	ldr	r3, [sp, #64]	; 0x40
  404bb4:	9a11      	ldr	r2, [sp, #68]	; 0x44
  404bb6:	4293      	cmp	r3, r2
  404bb8:	bfa8      	it	ge
  404bba:	4613      	movge	r3, r2
  404bbc:	2b00      	cmp	r3, #0
  404bbe:	461e      	mov	r6, r3
  404bc0:	dd0d      	ble.n	404bde <_vfprintf_r+0xc02>
  404bc2:	9b24      	ldr	r3, [sp, #144]	; 0x90
  404bc4:	f8c8 7000 	str.w	r7, [r8]
  404bc8:	3301      	adds	r3, #1
  404bca:	4434      	add	r4, r6
  404bcc:	2b07      	cmp	r3, #7
  404bce:	9425      	str	r4, [sp, #148]	; 0x94
  404bd0:	f8c8 6004 	str.w	r6, [r8, #4]
  404bd4:	9324      	str	r3, [sp, #144]	; 0x90
  404bd6:	f300 8324 	bgt.w	405222 <_vfprintf_r+0x1246>
  404bda:	f108 0808 	add.w	r8, r8, #8
  404bde:	9b10      	ldr	r3, [sp, #64]	; 0x40
  404be0:	2e00      	cmp	r6, #0
  404be2:	bfa8      	it	ge
  404be4:	1b9b      	subge	r3, r3, r6
  404be6:	2b00      	cmp	r3, #0
  404be8:	461e      	mov	r6, r3
  404bea:	f340 80d0 	ble.w	404d8e <_vfprintf_r+0xdb2>
  404bee:	2e10      	cmp	r6, #16
  404bf0:	9b24      	ldr	r3, [sp, #144]	; 0x90
  404bf2:	4dc0      	ldr	r5, [pc, #768]	; (404ef4 <_vfprintf_r+0xf18>)
  404bf4:	f340 80b7 	ble.w	404d66 <_vfprintf_r+0xd8a>
  404bf8:	4622      	mov	r2, r4
  404bfa:	f04f 0a10 	mov.w	sl, #16
  404bfe:	f8dd b020 	ldr.w	fp, [sp, #32]
  404c02:	9c0a      	ldr	r4, [sp, #40]	; 0x28
  404c04:	e005      	b.n	404c12 <_vfprintf_r+0xc36>
  404c06:	f108 0808 	add.w	r8, r8, #8
  404c0a:	3e10      	subs	r6, #16
  404c0c:	2e10      	cmp	r6, #16
  404c0e:	f340 80a9 	ble.w	404d64 <_vfprintf_r+0xd88>
  404c12:	3301      	adds	r3, #1
  404c14:	3210      	adds	r2, #16
  404c16:	2b07      	cmp	r3, #7
  404c18:	9225      	str	r2, [sp, #148]	; 0x94
  404c1a:	9324      	str	r3, [sp, #144]	; 0x90
  404c1c:	e888 0420 	stmia.w	r8, {r5, sl}
  404c20:	ddf1      	ble.n	404c06 <_vfprintf_r+0xc2a>
  404c22:	aa23      	add	r2, sp, #140	; 0x8c
  404c24:	4621      	mov	r1, r4
  404c26:	4658      	mov	r0, fp
  404c28:	f002 ff82 	bl	407b30 <__sprint_r>
  404c2c:	2800      	cmp	r0, #0
  404c2e:	f040 8324 	bne.w	40527a <_vfprintf_r+0x129e>
  404c32:	9a25      	ldr	r2, [sp, #148]	; 0x94
  404c34:	9b24      	ldr	r3, [sp, #144]	; 0x90
  404c36:	f10d 08c0 	add.w	r8, sp, #192	; 0xc0
  404c3a:	e7e6      	b.n	404c0a <_vfprintf_r+0xc2e>
  404c3c:	2d00      	cmp	r5, #0
  404c3e:	bf08      	it	eq
  404c40:	2c0a      	cmpeq	r4, #10
  404c42:	d37c      	bcc.n	404d3e <_vfprintf_r+0xd62>
  404c44:	af30      	add	r7, sp, #192	; 0xc0
  404c46:	4620      	mov	r0, r4
  404c48:	4629      	mov	r1, r5
  404c4a:	220a      	movs	r2, #10
  404c4c:	2300      	movs	r3, #0
  404c4e:	f003 feaf 	bl	4089b0 <__aeabi_uldivmod>
  404c52:	3230      	adds	r2, #48	; 0x30
  404c54:	f807 2d01 	strb.w	r2, [r7, #-1]!
  404c58:	4620      	mov	r0, r4
  404c5a:	4629      	mov	r1, r5
  404c5c:	2300      	movs	r3, #0
  404c5e:	220a      	movs	r2, #10
  404c60:	f003 fea6 	bl	4089b0 <__aeabi_uldivmod>
  404c64:	4604      	mov	r4, r0
  404c66:	460d      	mov	r5, r1
  404c68:	ea54 0305 	orrs.w	r3, r4, r5
  404c6c:	d1eb      	bne.n	404c46 <_vfprintf_r+0xc6a>
  404c6e:	ab30      	add	r3, sp, #192	; 0xc0
  404c70:	1bdb      	subs	r3, r3, r7
  404c72:	930d      	str	r3, [sp, #52]	; 0x34
  404c74:	f7ff badc 	b.w	404230 <_vfprintf_r+0x254>
  404c78:	9b09      	ldr	r3, [sp, #36]	; 0x24
  404c7a:	930d      	str	r3, [sp, #52]	; 0x34
  404c7c:	af30      	add	r7, sp, #192	; 0xc0
  404c7e:	f7ff bad7 	b.w	404230 <_vfprintf_r+0x254>
  404c82:	aa23      	add	r2, sp, #140	; 0x8c
  404c84:	990a      	ldr	r1, [sp, #40]	; 0x28
  404c86:	9808      	ldr	r0, [sp, #32]
  404c88:	f002 ff52 	bl	407b30 <__sprint_r>
  404c8c:	2800      	cmp	r0, #0
  404c8e:	f47f af2f 	bne.w	404af0 <_vfprintf_r+0xb14>
  404c92:	f89d a06f 	ldrb.w	sl, [sp, #111]	; 0x6f
  404c96:	9c25      	ldr	r4, [sp, #148]	; 0x94
  404c98:	f10d 08c0 	add.w	r8, sp, #192	; 0xc0
  404c9c:	f7ff bb28 	b.w	4042f0 <_vfprintf_r+0x314>
  404ca0:	1e5f      	subs	r7, r3, #1
  404ca2:	2f00      	cmp	r7, #0
  404ca4:	f77f af05 	ble.w	404ab2 <_vfprintf_r+0xad6>
  404ca8:	2f10      	cmp	r7, #16
  404caa:	4d92      	ldr	r5, [pc, #584]	; (404ef4 <_vfprintf_r+0xf18>)
  404cac:	f340 810a 	ble.w	404ec4 <_vfprintf_r+0xee8>
  404cb0:	f04f 0a10 	mov.w	sl, #16
  404cb4:	f8dd b020 	ldr.w	fp, [sp, #32]
  404cb8:	e005      	b.n	404cc6 <_vfprintf_r+0xcea>
  404cba:	f108 0808 	add.w	r8, r8, #8
  404cbe:	3f10      	subs	r7, #16
  404cc0:	2f10      	cmp	r7, #16
  404cc2:	f340 80ff 	ble.w	404ec4 <_vfprintf_r+0xee8>
  404cc6:	3601      	adds	r6, #1
  404cc8:	3410      	adds	r4, #16
  404cca:	2e07      	cmp	r6, #7
  404ccc:	9425      	str	r4, [sp, #148]	; 0x94
  404cce:	9624      	str	r6, [sp, #144]	; 0x90
  404cd0:	e888 0420 	stmia.w	r8, {r5, sl}
  404cd4:	ddf1      	ble.n	404cba <_vfprintf_r+0xcde>
  404cd6:	aa23      	add	r2, sp, #140	; 0x8c
  404cd8:	990a      	ldr	r1, [sp, #40]	; 0x28
  404cda:	4658      	mov	r0, fp
  404cdc:	f002 ff28 	bl	407b30 <__sprint_r>
  404ce0:	2800      	cmp	r0, #0
  404ce2:	f47f af05 	bne.w	404af0 <_vfprintf_r+0xb14>
  404ce6:	9c25      	ldr	r4, [sp, #148]	; 0x94
  404ce8:	9e24      	ldr	r6, [sp, #144]	; 0x90
  404cea:	f10d 08c0 	add.w	r8, sp, #192	; 0xc0
  404cee:	e7e6      	b.n	404cbe <_vfprintf_r+0xce2>
  404cf0:	990e      	ldr	r1, [sp, #56]	; 0x38
  404cf2:	460a      	mov	r2, r1
  404cf4:	3204      	adds	r2, #4
  404cf6:	680c      	ldr	r4, [r1, #0]
  404cf8:	920e      	str	r2, [sp, #56]	; 0x38
  404cfa:	2500      	movs	r5, #0
  404cfc:	f7ff ba7a 	b.w	4041f4 <_vfprintf_r+0x218>
  404d00:	681c      	ldr	r4, [r3, #0]
  404d02:	3304      	adds	r3, #4
  404d04:	930e      	str	r3, [sp, #56]	; 0x38
  404d06:	2500      	movs	r5, #0
  404d08:	e426      	b.n	404558 <_vfprintf_r+0x57c>
  404d0a:	3301      	adds	r3, #1
  404d0c:	4434      	add	r4, r6
  404d0e:	2b07      	cmp	r3, #7
  404d10:	9425      	str	r4, [sp, #148]	; 0x94
  404d12:	9324      	str	r3, [sp, #144]	; 0x90
  404d14:	e888 0060 	stmia.w	r8, {r5, r6}
  404d18:	f77f ab63 	ble.w	4043e2 <_vfprintf_r+0x406>
  404d1c:	e6d6      	b.n	404acc <_vfprintf_r+0xaf0>
  404d1e:	3204      	adds	r2, #4
  404d20:	681c      	ldr	r4, [r3, #0]
  404d22:	920e      	str	r2, [sp, #56]	; 0x38
  404d24:	2301      	movs	r3, #1
  404d26:	2500      	movs	r5, #0
  404d28:	f7ff ba64 	b.w	4041f4 <_vfprintf_r+0x218>
  404d2c:	9a0e      	ldr	r2, [sp, #56]	; 0x38
  404d2e:	6814      	ldr	r4, [r2, #0]
  404d30:	4613      	mov	r3, r2
  404d32:	3304      	adds	r3, #4
  404d34:	17e5      	asrs	r5, r4, #31
  404d36:	930e      	str	r3, [sp, #56]	; 0x38
  404d38:	4622      	mov	r2, r4
  404d3a:	462b      	mov	r3, r5
  404d3c:	e460      	b.n	404600 <_vfprintf_r+0x624>
  404d3e:	f8dd b018 	ldr.w	fp, [sp, #24]
  404d42:	f8cd b018 	str.w	fp, [sp, #24]
  404d46:	af40      	add	r7, sp, #256	; 0x100
  404d48:	3430      	adds	r4, #48	; 0x30
  404d4a:	2301      	movs	r3, #1
  404d4c:	f807 4d41 	strb.w	r4, [r7, #-65]!
  404d50:	930d      	str	r3, [sp, #52]	; 0x34
  404d52:	f7ff ba6d 	b.w	404230 <_vfprintf_r+0x254>
  404d56:	f8da 0058 	ldr.w	r0, [sl, #88]	; 0x58
  404d5a:	f002 f895 	bl	406e88 <__retarget_lock_release_recursive>
  404d5e:	f8ba 300c 	ldrh.w	r3, [sl, #12]
  404d62:	e5af      	b.n	4048c4 <_vfprintf_r+0x8e8>
  404d64:	4614      	mov	r4, r2
  404d66:	3301      	adds	r3, #1
  404d68:	4434      	add	r4, r6
  404d6a:	2b07      	cmp	r3, #7
  404d6c:	9425      	str	r4, [sp, #148]	; 0x94
  404d6e:	9324      	str	r3, [sp, #144]	; 0x90
  404d70:	e888 0060 	stmia.w	r8, {r5, r6}
  404d74:	f340 816d 	ble.w	405052 <_vfprintf_r+0x1076>
  404d78:	aa23      	add	r2, sp, #140	; 0x8c
  404d7a:	990a      	ldr	r1, [sp, #40]	; 0x28
  404d7c:	9808      	ldr	r0, [sp, #32]
  404d7e:	f002 fed7 	bl	407b30 <__sprint_r>
  404d82:	2800      	cmp	r0, #0
  404d84:	f47f aeb4 	bne.w	404af0 <_vfprintf_r+0xb14>
  404d88:	9c25      	ldr	r4, [sp, #148]	; 0x94
  404d8a:	f10d 08c0 	add.w	r8, sp, #192	; 0xc0
  404d8e:	9b1d      	ldr	r3, [sp, #116]	; 0x74
  404d90:	9a11      	ldr	r2, [sp, #68]	; 0x44
  404d92:	4293      	cmp	r3, r2
  404d94:	f280 8158 	bge.w	405048 <_vfprintf_r+0x106c>
  404d98:	9a24      	ldr	r2, [sp, #144]	; 0x90
  404d9a:	9814      	ldr	r0, [sp, #80]	; 0x50
  404d9c:	9915      	ldr	r1, [sp, #84]	; 0x54
  404d9e:	f8c8 1000 	str.w	r1, [r8]
  404da2:	3201      	adds	r2, #1
  404da4:	4404      	add	r4, r0
  404da6:	2a07      	cmp	r2, #7
  404da8:	9425      	str	r4, [sp, #148]	; 0x94
  404daa:	f8c8 0004 	str.w	r0, [r8, #4]
  404dae:	9224      	str	r2, [sp, #144]	; 0x90
  404db0:	f300 8152 	bgt.w	405058 <_vfprintf_r+0x107c>
  404db4:	f108 0808 	add.w	r8, r8, #8
  404db8:	9a11      	ldr	r2, [sp, #68]	; 0x44
  404dba:	9910      	ldr	r1, [sp, #64]	; 0x40
  404dbc:	1ad3      	subs	r3, r2, r3
  404dbe:	1a56      	subs	r6, r2, r1
  404dc0:	429e      	cmp	r6, r3
  404dc2:	bfa8      	it	ge
  404dc4:	461e      	movge	r6, r3
  404dc6:	2e00      	cmp	r6, #0
  404dc8:	dd0e      	ble.n	404de8 <_vfprintf_r+0xe0c>
  404dca:	9a24      	ldr	r2, [sp, #144]	; 0x90
  404dcc:	f8c8 6004 	str.w	r6, [r8, #4]
  404dd0:	3201      	adds	r2, #1
  404dd2:	440f      	add	r7, r1
  404dd4:	4434      	add	r4, r6
  404dd6:	2a07      	cmp	r2, #7
  404dd8:	f8c8 7000 	str.w	r7, [r8]
  404ddc:	9425      	str	r4, [sp, #148]	; 0x94
  404dde:	9224      	str	r2, [sp, #144]	; 0x90
  404de0:	f300 823c 	bgt.w	40525c <_vfprintf_r+0x1280>
  404de4:	f108 0808 	add.w	r8, r8, #8
  404de8:	2e00      	cmp	r6, #0
  404dea:	bfac      	ite	ge
  404dec:	1b9e      	subge	r6, r3, r6
  404dee:	461e      	movlt	r6, r3
  404df0:	2e00      	cmp	r6, #0
  404df2:	f77f aaf8 	ble.w	4043e6 <_vfprintf_r+0x40a>
  404df6:	2e10      	cmp	r6, #16
  404df8:	9b24      	ldr	r3, [sp, #144]	; 0x90
  404dfa:	4d3e      	ldr	r5, [pc, #248]	; (404ef4 <_vfprintf_r+0xf18>)
  404dfc:	dd85      	ble.n	404d0a <_vfprintf_r+0xd2e>
  404dfe:	2710      	movs	r7, #16
  404e00:	f8dd a020 	ldr.w	sl, [sp, #32]
  404e04:	f8dd b028 	ldr.w	fp, [sp, #40]	; 0x28
  404e08:	e005      	b.n	404e16 <_vfprintf_r+0xe3a>
  404e0a:	f108 0808 	add.w	r8, r8, #8
  404e0e:	3e10      	subs	r6, #16
  404e10:	2e10      	cmp	r6, #16
  404e12:	f77f af7a 	ble.w	404d0a <_vfprintf_r+0xd2e>
  404e16:	3301      	adds	r3, #1
  404e18:	3410      	adds	r4, #16
  404e1a:	2b07      	cmp	r3, #7
  404e1c:	9425      	str	r4, [sp, #148]	; 0x94
  404e1e:	9324      	str	r3, [sp, #144]	; 0x90
  404e20:	e888 00a0 	stmia.w	r8, {r5, r7}
  404e24:	ddf1      	ble.n	404e0a <_vfprintf_r+0xe2e>
  404e26:	aa23      	add	r2, sp, #140	; 0x8c
  404e28:	4659      	mov	r1, fp
  404e2a:	4650      	mov	r0, sl
  404e2c:	f002 fe80 	bl	407b30 <__sprint_r>
  404e30:	2800      	cmp	r0, #0
  404e32:	f040 8176 	bne.w	405122 <_vfprintf_r+0x1146>
  404e36:	9c25      	ldr	r4, [sp, #148]	; 0x94
  404e38:	9b24      	ldr	r3, [sp, #144]	; 0x90
  404e3a:	f10d 08c0 	add.w	r8, sp, #192	; 0xc0
  404e3e:	e7e6      	b.n	404e0e <_vfprintf_r+0xe32>
  404e40:	9b06      	ldr	r3, [sp, #24]
  404e42:	07d8      	lsls	r0, r3, #31
  404e44:	f53f adff 	bmi.w	404a46 <_vfprintf_r+0xa6a>
  404e48:	3601      	adds	r6, #1
  404e4a:	3401      	adds	r4, #1
  404e4c:	2301      	movs	r3, #1
  404e4e:	2e07      	cmp	r6, #7
  404e50:	9425      	str	r4, [sp, #148]	; 0x94
  404e52:	9624      	str	r6, [sp, #144]	; 0x90
  404e54:	f8c8 7000 	str.w	r7, [r8]
  404e58:	f8c8 3004 	str.w	r3, [r8, #4]
  404e5c:	f77f ae27 	ble.w	404aae <_vfprintf_r+0xad2>
  404e60:	aa23      	add	r2, sp, #140	; 0x8c
  404e62:	990a      	ldr	r1, [sp, #40]	; 0x28
  404e64:	9808      	ldr	r0, [sp, #32]
  404e66:	f002 fe63 	bl	407b30 <__sprint_r>
  404e6a:	2800      	cmp	r0, #0
  404e6c:	f47f ae40 	bne.w	404af0 <_vfprintf_r+0xb14>
  404e70:	9c25      	ldr	r4, [sp, #148]	; 0x94
  404e72:	9e24      	ldr	r6, [sp, #144]	; 0x90
  404e74:	f10d 08c0 	add.w	r8, sp, #192	; 0xc0
  404e78:	e61b      	b.n	404ab2 <_vfprintf_r+0xad6>
  404e7a:	aa23      	add	r2, sp, #140	; 0x8c
  404e7c:	990a      	ldr	r1, [sp, #40]	; 0x28
  404e7e:	9808      	ldr	r0, [sp, #32]
  404e80:	f002 fe56 	bl	407b30 <__sprint_r>
  404e84:	2800      	cmp	r0, #0
  404e86:	f47f ae33 	bne.w	404af0 <_vfprintf_r+0xb14>
  404e8a:	9c25      	ldr	r4, [sp, #148]	; 0x94
  404e8c:	9e24      	ldr	r6, [sp, #144]	; 0x90
  404e8e:	f10d 08c0 	add.w	r8, sp, #192	; 0xc0
  404e92:	e5e6      	b.n	404a62 <_vfprintf_r+0xa86>
  404e94:	9d0e      	ldr	r5, [sp, #56]	; 0x38
  404e96:	3507      	adds	r5, #7
  404e98:	f025 0507 	bic.w	r5, r5, #7
  404e9c:	e9d5 2300 	ldrd	r2, r3, [r5]
  404ea0:	f105 0108 	add.w	r1, r5, #8
  404ea4:	910e      	str	r1, [sp, #56]	; 0x38
  404ea6:	4614      	mov	r4, r2
  404ea8:	461d      	mov	r5, r3
  404eaa:	f7ff bba9 	b.w	404600 <_vfprintf_r+0x624>
  404eae:	9d0e      	ldr	r5, [sp, #56]	; 0x38
  404eb0:	3507      	adds	r5, #7
  404eb2:	f025 0307 	bic.w	r3, r5, #7
  404eb6:	f103 0208 	add.w	r2, r3, #8
  404eba:	920e      	str	r2, [sp, #56]	; 0x38
  404ebc:	e9d3 4500 	ldrd	r4, r5, [r3]
  404ec0:	f7ff bb4a 	b.w	404558 <_vfprintf_r+0x57c>
  404ec4:	3601      	adds	r6, #1
  404ec6:	443c      	add	r4, r7
  404ec8:	2e07      	cmp	r6, #7
  404eca:	9425      	str	r4, [sp, #148]	; 0x94
  404ecc:	9624      	str	r6, [sp, #144]	; 0x90
  404ece:	e888 00a0 	stmia.w	r8, {r5, r7}
  404ed2:	f77f adec 	ble.w	404aae <_vfprintf_r+0xad2>
  404ed6:	e7c3      	b.n	404e60 <_vfprintf_r+0xe84>
  404ed8:	aa23      	add	r2, sp, #140	; 0x8c
  404eda:	990a      	ldr	r1, [sp, #40]	; 0x28
  404edc:	9808      	ldr	r0, [sp, #32]
  404ede:	f002 fe27 	bl	407b30 <__sprint_r>
  404ee2:	2800      	cmp	r0, #0
  404ee4:	f47f ae04 	bne.w	404af0 <_vfprintf_r+0xb14>
  404ee8:	9c25      	ldr	r4, [sp, #148]	; 0x94
  404eea:	9e24      	ldr	r6, [sp, #144]	; 0x90
  404eec:	f10d 08c0 	add.w	r8, sp, #192	; 0xc0
  404ef0:	e5c6      	b.n	404a80 <_vfprintf_r+0xaa4>
  404ef2:	bf00      	nop
  404ef4:	00408d90 	.word	0x00408d90
  404ef8:	af30      	add	r7, sp, #192	; 0xc0
  404efa:	f7ff b999 	b.w	404230 <_vfprintf_r+0x254>
  404efe:	aa23      	add	r2, sp, #140	; 0x8c
  404f00:	990a      	ldr	r1, [sp, #40]	; 0x28
  404f02:	9808      	ldr	r0, [sp, #32]
  404f04:	f002 fe14 	bl	407b30 <__sprint_r>
  404f08:	2800      	cmp	r0, #0
  404f0a:	f47f adf1 	bne.w	404af0 <_vfprintf_r+0xb14>
  404f0e:	9c25      	ldr	r4, [sp, #148]	; 0x94
  404f10:	f10d 08c0 	add.w	r8, sp, #192	; 0xc0
  404f14:	f7ff ba11 	b.w	40433a <_vfprintf_r+0x35e>
  404f18:	f04f 0a2d 	mov.w	sl, #45	; 0x2d
  404f1c:	4264      	negs	r4, r4
  404f1e:	eb65 0545 	sbc.w	r5, r5, r5, lsl #1
  404f22:	f88d a06f 	strb.w	sl, [sp, #111]	; 0x6f
  404f26:	2301      	movs	r3, #1
  404f28:	f7ff b968 	b.w	4041fc <_vfprintf_r+0x220>
  404f2c:	9c13      	ldr	r4, [sp, #76]	; 0x4c
  404f2e:	4622      	mov	r2, r4
  404f30:	4620      	mov	r0, r4
  404f32:	9c12      	ldr	r4, [sp, #72]	; 0x48
  404f34:	4623      	mov	r3, r4
  404f36:	4621      	mov	r1, r4
  404f38:	f003 fcfc 	bl	408934 <__aeabi_dcmpun>
  404f3c:	2800      	cmp	r0, #0
  404f3e:	f040 828c 	bne.w	40545a <_vfprintf_r+0x147e>
  404f42:	9b09      	ldr	r3, [sp, #36]	; 0x24
  404f44:	3301      	adds	r3, #1
  404f46:	f026 0320 	bic.w	r3, r6, #32
  404f4a:	930d      	str	r3, [sp, #52]	; 0x34
  404f4c:	f000 8091 	beq.w	405072 <_vfprintf_r+0x1096>
  404f50:	2b47      	cmp	r3, #71	; 0x47
  404f52:	d104      	bne.n	404f5e <_vfprintf_r+0xf82>
  404f54:	9b09      	ldr	r3, [sp, #36]	; 0x24
  404f56:	2b00      	cmp	r3, #0
  404f58:	bf08      	it	eq
  404f5a:	2301      	moveq	r3, #1
  404f5c:	9309      	str	r3, [sp, #36]	; 0x24
  404f5e:	f44b 7380 	orr.w	r3, fp, #256	; 0x100
  404f62:	9306      	str	r3, [sp, #24]
  404f64:	9b12      	ldr	r3, [sp, #72]	; 0x48
  404f66:	f1b3 0a00 	subs.w	sl, r3, #0
  404f6a:	9b13      	ldr	r3, [sp, #76]	; 0x4c
  404f6c:	9307      	str	r3, [sp, #28]
  404f6e:	bfbb      	ittet	lt
  404f70:	4653      	movlt	r3, sl
  404f72:	f103 4a00 	addlt.w	sl, r3, #2147483648	; 0x80000000
  404f76:	2300      	movge	r3, #0
  404f78:	232d      	movlt	r3, #45	; 0x2d
  404f7a:	2e66      	cmp	r6, #102	; 0x66
  404f7c:	930f      	str	r3, [sp, #60]	; 0x3c
  404f7e:	f000 817f 	beq.w	405280 <_vfprintf_r+0x12a4>
  404f82:	2e46      	cmp	r6, #70	; 0x46
  404f84:	f000 81d4 	beq.w	405330 <_vfprintf_r+0x1354>
  404f88:	9b0d      	ldr	r3, [sp, #52]	; 0x34
  404f8a:	9a07      	ldr	r2, [sp, #28]
  404f8c:	2b45      	cmp	r3, #69	; 0x45
  404f8e:	bf0c      	ite	eq
  404f90:	9b09      	ldreq	r3, [sp, #36]	; 0x24
  404f92:	9d09      	ldrne	r5, [sp, #36]	; 0x24
  404f94:	a821      	add	r0, sp, #132	; 0x84
  404f96:	a91e      	add	r1, sp, #120	; 0x78
  404f98:	bf08      	it	eq
  404f9a:	1c5d      	addeq	r5, r3, #1
  404f9c:	9004      	str	r0, [sp, #16]
  404f9e:	9103      	str	r1, [sp, #12]
  404fa0:	a81d      	add	r0, sp, #116	; 0x74
  404fa2:	2102      	movs	r1, #2
  404fa4:	9002      	str	r0, [sp, #8]
  404fa6:	4653      	mov	r3, sl
  404fa8:	9501      	str	r5, [sp, #4]
  404faa:	9100      	str	r1, [sp, #0]
  404fac:	9808      	ldr	r0, [sp, #32]
  404fae:	f000 fc0b 	bl	4057c8 <_dtoa_r>
  404fb2:	2e67      	cmp	r6, #103	; 0x67
  404fb4:	4607      	mov	r7, r0
  404fb6:	f040 81af 	bne.w	405318 <_vfprintf_r+0x133c>
  404fba:	f01b 0f01 	tst.w	fp, #1
  404fbe:	f000 8213 	beq.w	4053e8 <_vfprintf_r+0x140c>
  404fc2:	197c      	adds	r4, r7, r5
  404fc4:	9a16      	ldr	r2, [sp, #88]	; 0x58
  404fc6:	9807      	ldr	r0, [sp, #28]
  404fc8:	9b17      	ldr	r3, [sp, #92]	; 0x5c
  404fca:	4651      	mov	r1, sl
  404fcc:	f003 fc80 	bl	4088d0 <__aeabi_dcmpeq>
  404fd0:	2800      	cmp	r0, #0
  404fd2:	f040 8132 	bne.w	40523a <_vfprintf_r+0x125e>
  404fd6:	9b21      	ldr	r3, [sp, #132]	; 0x84
  404fd8:	42a3      	cmp	r3, r4
  404fda:	d206      	bcs.n	404fea <_vfprintf_r+0x100e>
  404fdc:	2130      	movs	r1, #48	; 0x30
  404fde:	1c5a      	adds	r2, r3, #1
  404fe0:	9221      	str	r2, [sp, #132]	; 0x84
  404fe2:	7019      	strb	r1, [r3, #0]
  404fe4:	9b21      	ldr	r3, [sp, #132]	; 0x84
  404fe6:	429c      	cmp	r4, r3
  404fe8:	d8f9      	bhi.n	404fde <_vfprintf_r+0x1002>
  404fea:	1bdb      	subs	r3, r3, r7
  404fec:	9311      	str	r3, [sp, #68]	; 0x44
  404fee:	9b0d      	ldr	r3, [sp, #52]	; 0x34
  404ff0:	2b47      	cmp	r3, #71	; 0x47
  404ff2:	f000 80b9 	beq.w	405168 <_vfprintf_r+0x118c>
  404ff6:	2e65      	cmp	r6, #101	; 0x65
  404ff8:	f340 8276 	ble.w	4054e8 <_vfprintf_r+0x150c>
  404ffc:	9b1d      	ldr	r3, [sp, #116]	; 0x74
  404ffe:	9310      	str	r3, [sp, #64]	; 0x40
  405000:	2e66      	cmp	r6, #102	; 0x66
  405002:	f000 8162 	beq.w	4052ca <_vfprintf_r+0x12ee>
  405006:	9b11      	ldr	r3, [sp, #68]	; 0x44
  405008:	9a10      	ldr	r2, [sp, #64]	; 0x40
  40500a:	4619      	mov	r1, r3
  40500c:	4291      	cmp	r1, r2
  40500e:	f300 814f 	bgt.w	4052b0 <_vfprintf_r+0x12d4>
  405012:	f01b 0f01 	tst.w	fp, #1
  405016:	f040 8209 	bne.w	40542c <_vfprintf_r+0x1450>
  40501a:	ea22 73e2 	bic.w	r3, r2, r2, asr #31
  40501e:	9307      	str	r3, [sp, #28]
  405020:	920d      	str	r2, [sp, #52]	; 0x34
  405022:	2667      	movs	r6, #103	; 0x67
  405024:	9b0f      	ldr	r3, [sp, #60]	; 0x3c
  405026:	2b00      	cmp	r3, #0
  405028:	f040 8096 	bne.w	405158 <_vfprintf_r+0x117c>
  40502c:	9309      	str	r3, [sp, #36]	; 0x24
  40502e:	f89d a06f 	ldrb.w	sl, [sp, #111]	; 0x6f
  405032:	f7ff b905 	b.w	404240 <_vfprintf_r+0x264>
  405036:	f8da 0058 	ldr.w	r0, [sl, #88]	; 0x58
  40503a:	f001 ff25 	bl	406e88 <__retarget_lock_release_recursive>
  40503e:	f04f 33ff 	mov.w	r3, #4294967295
  405042:	930b      	str	r3, [sp, #44]	; 0x2c
  405044:	f7ff ba30 	b.w	4044a8 <_vfprintf_r+0x4cc>
  405048:	9a06      	ldr	r2, [sp, #24]
  40504a:	07d5      	lsls	r5, r2, #31
  40504c:	f57f aeb4 	bpl.w	404db8 <_vfprintf_r+0xddc>
  405050:	e6a2      	b.n	404d98 <_vfprintf_r+0xdbc>
  405052:	f108 0808 	add.w	r8, r8, #8
  405056:	e69a      	b.n	404d8e <_vfprintf_r+0xdb2>
  405058:	aa23      	add	r2, sp, #140	; 0x8c
  40505a:	990a      	ldr	r1, [sp, #40]	; 0x28
  40505c:	9808      	ldr	r0, [sp, #32]
  40505e:	f002 fd67 	bl	407b30 <__sprint_r>
  405062:	2800      	cmp	r0, #0
  405064:	f47f ad44 	bne.w	404af0 <_vfprintf_r+0xb14>
  405068:	9b1d      	ldr	r3, [sp, #116]	; 0x74
  40506a:	9c25      	ldr	r4, [sp, #148]	; 0x94
  40506c:	f10d 08c0 	add.w	r8, sp, #192	; 0xc0
  405070:	e6a2      	b.n	404db8 <_vfprintf_r+0xddc>
  405072:	2306      	movs	r3, #6
  405074:	9309      	str	r3, [sp, #36]	; 0x24
  405076:	e772      	b.n	404f5e <_vfprintf_r+0xf82>
  405078:	f04f 0a2d 	mov.w	sl, #45	; 0x2d
  40507c:	f88d a06f 	strb.w	sl, [sp, #111]	; 0x6f
  405080:	f7ff bbc7 	b.w	404812 <_vfprintf_r+0x836>
  405084:	aa23      	add	r2, sp, #140	; 0x8c
  405086:	990a      	ldr	r1, [sp, #40]	; 0x28
  405088:	9808      	ldr	r0, [sp, #32]
  40508a:	f002 fd51 	bl	407b30 <__sprint_r>
  40508e:	2800      	cmp	r0, #0
  405090:	f47f ad2e 	bne.w	404af0 <_vfprintf_r+0xb14>
  405094:	f10d 08c0 	add.w	r8, sp, #192	; 0xc0
  405098:	e437      	b.n	40490a <_vfprintf_r+0x92e>
  40509a:	9b24      	ldr	r3, [sp, #144]	; 0x90
  40509c:	4ab4      	ldr	r2, [pc, #720]	; (405370 <_vfprintf_r+0x1394>)
  40509e:	f8c8 2000 	str.w	r2, [r8]
  4050a2:	3301      	adds	r3, #1
  4050a4:	3401      	adds	r4, #1
  4050a6:	2201      	movs	r2, #1
  4050a8:	2b07      	cmp	r3, #7
  4050aa:	9425      	str	r4, [sp, #148]	; 0x94
  4050ac:	9324      	str	r3, [sp, #144]	; 0x90
  4050ae:	f8c8 2004 	str.w	r2, [r8, #4]
  4050b2:	f300 8124 	bgt.w	4052fe <_vfprintf_r+0x1322>
  4050b6:	f108 0808 	add.w	r8, r8, #8
  4050ba:	b929      	cbnz	r1, 4050c8 <_vfprintf_r+0x10ec>
  4050bc:	9b11      	ldr	r3, [sp, #68]	; 0x44
  4050be:	b91b      	cbnz	r3, 4050c8 <_vfprintf_r+0x10ec>
  4050c0:	9b06      	ldr	r3, [sp, #24]
  4050c2:	07de      	lsls	r6, r3, #31
  4050c4:	f57f a98f 	bpl.w	4043e6 <_vfprintf_r+0x40a>
  4050c8:	9b24      	ldr	r3, [sp, #144]	; 0x90
  4050ca:	9814      	ldr	r0, [sp, #80]	; 0x50
  4050cc:	9a15      	ldr	r2, [sp, #84]	; 0x54
  4050ce:	f8c8 2000 	str.w	r2, [r8]
  4050d2:	3301      	adds	r3, #1
  4050d4:	4602      	mov	r2, r0
  4050d6:	4422      	add	r2, r4
  4050d8:	2b07      	cmp	r3, #7
  4050da:	9225      	str	r2, [sp, #148]	; 0x94
  4050dc:	f8c8 0004 	str.w	r0, [r8, #4]
  4050e0:	9324      	str	r3, [sp, #144]	; 0x90
  4050e2:	f300 8169 	bgt.w	4053b8 <_vfprintf_r+0x13dc>
  4050e6:	f108 0808 	add.w	r8, r8, #8
  4050ea:	2900      	cmp	r1, #0
  4050ec:	f2c0 8136 	blt.w	40535c <_vfprintf_r+0x1380>
  4050f0:	9911      	ldr	r1, [sp, #68]	; 0x44
  4050f2:	f8c8 7000 	str.w	r7, [r8]
  4050f6:	3301      	adds	r3, #1
  4050f8:	188c      	adds	r4, r1, r2
  4050fa:	2b07      	cmp	r3, #7
  4050fc:	9425      	str	r4, [sp, #148]	; 0x94
  4050fe:	9324      	str	r3, [sp, #144]	; 0x90
  405100:	f8c8 1004 	str.w	r1, [r8, #4]
  405104:	f77f a96d 	ble.w	4043e2 <_vfprintf_r+0x406>
  405108:	e4e0      	b.n	404acc <_vfprintf_r+0xaf0>
  40510a:	9a0e      	ldr	r2, [sp, #56]	; 0x38
  40510c:	990b      	ldr	r1, [sp, #44]	; 0x2c
  40510e:	6813      	ldr	r3, [r2, #0]
  405110:	17cd      	asrs	r5, r1, #31
  405112:	4608      	mov	r0, r1
  405114:	3204      	adds	r2, #4
  405116:	4629      	mov	r1, r5
  405118:	920e      	str	r2, [sp, #56]	; 0x38
  40511a:	e9c3 0100 	strd	r0, r1, [r3]
  40511e:	f7fe bfa9 	b.w	404074 <_vfprintf_r+0x98>
  405122:	46da      	mov	sl, fp
  405124:	f7ff bbc4 	b.w	4048b0 <_vfprintf_r+0x8d4>
  405128:	aa23      	add	r2, sp, #140	; 0x8c
  40512a:	990a      	ldr	r1, [sp, #40]	; 0x28
  40512c:	9808      	ldr	r0, [sp, #32]
  40512e:	f002 fcff 	bl	407b30 <__sprint_r>
  405132:	2800      	cmp	r0, #0
  405134:	f47f acdc 	bne.w	404af0 <_vfprintf_r+0xb14>
  405138:	9c25      	ldr	r4, [sp, #148]	; 0x94
  40513a:	f10d 08c0 	add.w	r8, sp, #192	; 0xc0
  40513e:	f7ff bbfd 	b.w	40493c <_vfprintf_r+0x960>
  405142:	4638      	mov	r0, r7
  405144:	9409      	str	r4, [sp, #36]	; 0x24
  405146:	f7fe fedb 	bl	403f00 <strlen>
  40514a:	950e      	str	r5, [sp, #56]	; 0x38
  40514c:	900d      	str	r0, [sp, #52]	; 0x34
  40514e:	f8cd b018 	str.w	fp, [sp, #24]
  405152:	4603      	mov	r3, r0
  405154:	f7ff ba36 	b.w	4045c4 <_vfprintf_r+0x5e8>
  405158:	f04f 0a2d 	mov.w	sl, #45	; 0x2d
  40515c:	2300      	movs	r3, #0
  40515e:	f88d a06f 	strb.w	sl, [sp, #111]	; 0x6f
  405162:	9309      	str	r3, [sp, #36]	; 0x24
  405164:	f7ff b86f 	b.w	404246 <_vfprintf_r+0x26a>
  405168:	9b1d      	ldr	r3, [sp, #116]	; 0x74
  40516a:	9310      	str	r3, [sp, #64]	; 0x40
  40516c:	461a      	mov	r2, r3
  40516e:	3303      	adds	r3, #3
  405170:	db04      	blt.n	40517c <_vfprintf_r+0x11a0>
  405172:	9b09      	ldr	r3, [sp, #36]	; 0x24
  405174:	4619      	mov	r1, r3
  405176:	4291      	cmp	r1, r2
  405178:	f6bf af45 	bge.w	405006 <_vfprintf_r+0x102a>
  40517c:	3e02      	subs	r6, #2
  40517e:	9b10      	ldr	r3, [sp, #64]	; 0x40
  405180:	f88d 607c 	strb.w	r6, [sp, #124]	; 0x7c
  405184:	3b01      	subs	r3, #1
  405186:	2b00      	cmp	r3, #0
  405188:	931d      	str	r3, [sp, #116]	; 0x74
  40518a:	bfbd      	ittte	lt
  40518c:	9b10      	ldrlt	r3, [sp, #64]	; 0x40
  40518e:	f1c3 0301 	rsblt	r3, r3, #1
  405192:	222d      	movlt	r2, #45	; 0x2d
  405194:	222b      	movge	r2, #43	; 0x2b
  405196:	2b09      	cmp	r3, #9
  405198:	f88d 207d 	strb.w	r2, [sp, #125]	; 0x7d
  40519c:	f340 813e 	ble.w	40541c <_vfprintf_r+0x1440>
  4051a0:	f10d 048b 	add.w	r4, sp, #139	; 0x8b
  4051a4:	4620      	mov	r0, r4
  4051a6:	4d73      	ldr	r5, [pc, #460]	; (405374 <_vfprintf_r+0x1398>)
  4051a8:	e000      	b.n	4051ac <_vfprintf_r+0x11d0>
  4051aa:	4610      	mov	r0, r2
  4051ac:	fb85 1203 	smull	r1, r2, r5, r3
  4051b0:	17d9      	asrs	r1, r3, #31
  4051b2:	ebc1 01a2 	rsb	r1, r1, r2, asr #2
  4051b6:	eb01 0281 	add.w	r2, r1, r1, lsl #2
  4051ba:	eba3 0242 	sub.w	r2, r3, r2, lsl #1
  4051be:	3230      	adds	r2, #48	; 0x30
  4051c0:	2909      	cmp	r1, #9
  4051c2:	f800 2c01 	strb.w	r2, [r0, #-1]
  4051c6:	460b      	mov	r3, r1
  4051c8:	f100 32ff 	add.w	r2, r0, #4294967295
  4051cc:	dced      	bgt.n	4051aa <_vfprintf_r+0x11ce>
  4051ce:	3330      	adds	r3, #48	; 0x30
  4051d0:	3802      	subs	r0, #2
  4051d2:	b2d9      	uxtb	r1, r3
  4051d4:	4284      	cmp	r4, r0
  4051d6:	f802 1c01 	strb.w	r1, [r2, #-1]
  4051da:	f240 8190 	bls.w	4054fe <_vfprintf_r+0x1522>
  4051de:	f10d 007e 	add.w	r0, sp, #126	; 0x7e
  4051e2:	4613      	mov	r3, r2
  4051e4:	e001      	b.n	4051ea <_vfprintf_r+0x120e>
  4051e6:	f813 1b01 	ldrb.w	r1, [r3], #1
  4051ea:	f800 1b01 	strb.w	r1, [r0], #1
  4051ee:	42a3      	cmp	r3, r4
  4051f0:	d1f9      	bne.n	4051e6 <_vfprintf_r+0x120a>
  4051f2:	3301      	adds	r3, #1
  4051f4:	1a9b      	subs	r3, r3, r2
  4051f6:	f10d 027e 	add.w	r2, sp, #126	; 0x7e
  4051fa:	4413      	add	r3, r2
  4051fc:	aa1f      	add	r2, sp, #124	; 0x7c
  4051fe:	1a9b      	subs	r3, r3, r2
  405200:	9a11      	ldr	r2, [sp, #68]	; 0x44
  405202:	9319      	str	r3, [sp, #100]	; 0x64
  405204:	2a01      	cmp	r2, #1
  405206:	4413      	add	r3, r2
  405208:	930d      	str	r3, [sp, #52]	; 0x34
  40520a:	f340 8145 	ble.w	405498 <_vfprintf_r+0x14bc>
  40520e:	9b0d      	ldr	r3, [sp, #52]	; 0x34
  405210:	9a14      	ldr	r2, [sp, #80]	; 0x50
  405212:	4413      	add	r3, r2
  405214:	930d      	str	r3, [sp, #52]	; 0x34
  405216:	ea23 73e3 	bic.w	r3, r3, r3, asr #31
  40521a:	9307      	str	r3, [sp, #28]
  40521c:	2300      	movs	r3, #0
  40521e:	9310      	str	r3, [sp, #64]	; 0x40
  405220:	e700      	b.n	405024 <_vfprintf_r+0x1048>
  405222:	aa23      	add	r2, sp, #140	; 0x8c
  405224:	990a      	ldr	r1, [sp, #40]	; 0x28
  405226:	9808      	ldr	r0, [sp, #32]
  405228:	f002 fc82 	bl	407b30 <__sprint_r>
  40522c:	2800      	cmp	r0, #0
  40522e:	f47f ac5f 	bne.w	404af0 <_vfprintf_r+0xb14>
  405232:	9c25      	ldr	r4, [sp, #148]	; 0x94
  405234:	f10d 08c0 	add.w	r8, sp, #192	; 0xc0
  405238:	e4d1      	b.n	404bde <_vfprintf_r+0xc02>
  40523a:	4623      	mov	r3, r4
  40523c:	e6d5      	b.n	404fea <_vfprintf_r+0x100e>
  40523e:	9b09      	ldr	r3, [sp, #36]	; 0x24
  405240:	9710      	str	r7, [sp, #64]	; 0x40
  405242:	2b06      	cmp	r3, #6
  405244:	bf28      	it	cs
  405246:	2306      	movcs	r3, #6
  405248:	9709      	str	r7, [sp, #36]	; 0x24
  40524a:	46ba      	mov	sl, r7
  40524c:	9307      	str	r3, [sp, #28]
  40524e:	950e      	str	r5, [sp, #56]	; 0x38
  405250:	f8cd b018 	str.w	fp, [sp, #24]
  405254:	930d      	str	r3, [sp, #52]	; 0x34
  405256:	4f48      	ldr	r7, [pc, #288]	; (405378 <_vfprintf_r+0x139c>)
  405258:	f7fe bff2 	b.w	404240 <_vfprintf_r+0x264>
  40525c:	aa23      	add	r2, sp, #140	; 0x8c
  40525e:	990a      	ldr	r1, [sp, #40]	; 0x28
  405260:	9808      	ldr	r0, [sp, #32]
  405262:	f002 fc65 	bl	407b30 <__sprint_r>
  405266:	2800      	cmp	r0, #0
  405268:	f47f ac42 	bne.w	404af0 <_vfprintf_r+0xb14>
  40526c:	9b1d      	ldr	r3, [sp, #116]	; 0x74
  40526e:	9a11      	ldr	r2, [sp, #68]	; 0x44
  405270:	9c25      	ldr	r4, [sp, #148]	; 0x94
  405272:	1ad3      	subs	r3, r2, r3
  405274:	f10d 08c0 	add.w	r8, sp, #192	; 0xc0
  405278:	e5b6      	b.n	404de8 <_vfprintf_r+0xe0c>
  40527a:	46a2      	mov	sl, r4
  40527c:	f7ff bb18 	b.w	4048b0 <_vfprintf_r+0x8d4>
  405280:	a821      	add	r0, sp, #132	; 0x84
  405282:	a91e      	add	r1, sp, #120	; 0x78
  405284:	9d09      	ldr	r5, [sp, #36]	; 0x24
  405286:	9004      	str	r0, [sp, #16]
  405288:	9103      	str	r1, [sp, #12]
  40528a:	a81d      	add	r0, sp, #116	; 0x74
  40528c:	2103      	movs	r1, #3
  40528e:	9002      	str	r0, [sp, #8]
  405290:	9a07      	ldr	r2, [sp, #28]
  405292:	9501      	str	r5, [sp, #4]
  405294:	4653      	mov	r3, sl
  405296:	9100      	str	r1, [sp, #0]
  405298:	9808      	ldr	r0, [sp, #32]
  40529a:	f000 fa95 	bl	4057c8 <_dtoa_r>
  40529e:	4607      	mov	r7, r0
  4052a0:	1944      	adds	r4, r0, r5
  4052a2:	783b      	ldrb	r3, [r7, #0]
  4052a4:	2b30      	cmp	r3, #48	; 0x30
  4052a6:	f000 80ca 	beq.w	40543e <_vfprintf_r+0x1462>
  4052aa:	9d1d      	ldr	r5, [sp, #116]	; 0x74
  4052ac:	442c      	add	r4, r5
  4052ae:	e689      	b.n	404fc4 <_vfprintf_r+0xfe8>
  4052b0:	9a14      	ldr	r2, [sp, #80]	; 0x50
  4052b2:	9b11      	ldr	r3, [sp, #68]	; 0x44
  4052b4:	4413      	add	r3, r2
  4052b6:	9a10      	ldr	r2, [sp, #64]	; 0x40
  4052b8:	930d      	str	r3, [sp, #52]	; 0x34
  4052ba:	2a00      	cmp	r2, #0
  4052bc:	f340 80e4 	ble.w	405488 <_vfprintf_r+0x14ac>
  4052c0:	ea23 73e3 	bic.w	r3, r3, r3, asr #31
  4052c4:	9307      	str	r3, [sp, #28]
  4052c6:	2667      	movs	r6, #103	; 0x67
  4052c8:	e6ac      	b.n	405024 <_vfprintf_r+0x1048>
  4052ca:	2b00      	cmp	r3, #0
  4052cc:	f340 80fb 	ble.w	4054c6 <_vfprintf_r+0x14ea>
  4052d0:	9a09      	ldr	r2, [sp, #36]	; 0x24
  4052d2:	2a00      	cmp	r2, #0
  4052d4:	f040 80ce 	bne.w	405474 <_vfprintf_r+0x1498>
  4052d8:	f01b 0f01 	tst.w	fp, #1
  4052dc:	f040 80ca 	bne.w	405474 <_vfprintf_r+0x1498>
  4052e0:	9307      	str	r3, [sp, #28]
  4052e2:	930d      	str	r3, [sp, #52]	; 0x34
  4052e4:	e69e      	b.n	405024 <_vfprintf_r+0x1048>
  4052e6:	9b09      	ldr	r3, [sp, #36]	; 0x24
  4052e8:	9307      	str	r3, [sp, #28]
  4052ea:	930d      	str	r3, [sp, #52]	; 0x34
  4052ec:	9009      	str	r0, [sp, #36]	; 0x24
  4052ee:	950e      	str	r5, [sp, #56]	; 0x38
  4052f0:	f8cd b018 	str.w	fp, [sp, #24]
  4052f4:	9010      	str	r0, [sp, #64]	; 0x40
  4052f6:	f89d a06f 	ldrb.w	sl, [sp, #111]	; 0x6f
  4052fa:	f7fe bfa1 	b.w	404240 <_vfprintf_r+0x264>
  4052fe:	aa23      	add	r2, sp, #140	; 0x8c
  405300:	990a      	ldr	r1, [sp, #40]	; 0x28
  405302:	9808      	ldr	r0, [sp, #32]
  405304:	f002 fc14 	bl	407b30 <__sprint_r>
  405308:	2800      	cmp	r0, #0
  40530a:	f47f abf1 	bne.w	404af0 <_vfprintf_r+0xb14>
  40530e:	991d      	ldr	r1, [sp, #116]	; 0x74
  405310:	9c25      	ldr	r4, [sp, #148]	; 0x94
  405312:	f10d 08c0 	add.w	r8, sp, #192	; 0xc0
  405316:	e6d0      	b.n	4050ba <_vfprintf_r+0x10de>
  405318:	2e47      	cmp	r6, #71	; 0x47
  40531a:	f47f ae52 	bne.w	404fc2 <_vfprintf_r+0xfe6>
  40531e:	f01b 0f01 	tst.w	fp, #1
  405322:	f000 80da 	beq.w	4054da <_vfprintf_r+0x14fe>
  405326:	2e46      	cmp	r6, #70	; 0x46
  405328:	eb07 0405 	add.w	r4, r7, r5
  40532c:	d0b9      	beq.n	4052a2 <_vfprintf_r+0x12c6>
  40532e:	e649      	b.n	404fc4 <_vfprintf_r+0xfe8>
  405330:	a821      	add	r0, sp, #132	; 0x84
  405332:	a91e      	add	r1, sp, #120	; 0x78
  405334:	9c09      	ldr	r4, [sp, #36]	; 0x24
  405336:	9004      	str	r0, [sp, #16]
  405338:	9103      	str	r1, [sp, #12]
  40533a:	a81d      	add	r0, sp, #116	; 0x74
  40533c:	2103      	movs	r1, #3
  40533e:	9002      	str	r0, [sp, #8]
  405340:	9a07      	ldr	r2, [sp, #28]
  405342:	9401      	str	r4, [sp, #4]
  405344:	4653      	mov	r3, sl
  405346:	9100      	str	r1, [sp, #0]
  405348:	9808      	ldr	r0, [sp, #32]
  40534a:	f000 fa3d 	bl	4057c8 <_dtoa_r>
  40534e:	4625      	mov	r5, r4
  405350:	4607      	mov	r7, r0
  405352:	e7e8      	b.n	405326 <_vfprintf_r+0x134a>
  405354:	2300      	movs	r3, #0
  405356:	9309      	str	r3, [sp, #36]	; 0x24
  405358:	f7fe bec1 	b.w	4040de <_vfprintf_r+0x102>
  40535c:	424e      	negs	r6, r1
  40535e:	3110      	adds	r1, #16
  405360:	4d06      	ldr	r5, [pc, #24]	; (40537c <_vfprintf_r+0x13a0>)
  405362:	da43      	bge.n	4053ec <_vfprintf_r+0x1410>
  405364:	2410      	movs	r4, #16
  405366:	f8dd a020 	ldr.w	sl, [sp, #32]
  40536a:	f8dd b028 	ldr.w	fp, [sp, #40]	; 0x28
  40536e:	e00c      	b.n	40538a <_vfprintf_r+0x13ae>
  405370:	00408d7c 	.word	0x00408d7c
  405374:	66666667 	.word	0x66666667
  405378:	00408d74 	.word	0x00408d74
  40537c:	00408d90 	.word	0x00408d90
  405380:	f108 0808 	add.w	r8, r8, #8
  405384:	3e10      	subs	r6, #16
  405386:	2e10      	cmp	r6, #16
  405388:	dd30      	ble.n	4053ec <_vfprintf_r+0x1410>
  40538a:	3301      	adds	r3, #1
  40538c:	3210      	adds	r2, #16
  40538e:	2b07      	cmp	r3, #7
  405390:	9225      	str	r2, [sp, #148]	; 0x94
  405392:	9324      	str	r3, [sp, #144]	; 0x90
  405394:	f8c8 5000 	str.w	r5, [r8]
  405398:	f8c8 4004 	str.w	r4, [r8, #4]
  40539c:	ddf0      	ble.n	405380 <_vfprintf_r+0x13a4>
  40539e:	aa23      	add	r2, sp, #140	; 0x8c
  4053a0:	4659      	mov	r1, fp
  4053a2:	4650      	mov	r0, sl
  4053a4:	f002 fbc4 	bl	407b30 <__sprint_r>
  4053a8:	2800      	cmp	r0, #0
  4053aa:	f47f aeba 	bne.w	405122 <_vfprintf_r+0x1146>
  4053ae:	9a25      	ldr	r2, [sp, #148]	; 0x94
  4053b0:	9b24      	ldr	r3, [sp, #144]	; 0x90
  4053b2:	f10d 08c0 	add.w	r8, sp, #192	; 0xc0
  4053b6:	e7e5      	b.n	405384 <_vfprintf_r+0x13a8>
  4053b8:	aa23      	add	r2, sp, #140	; 0x8c
  4053ba:	990a      	ldr	r1, [sp, #40]	; 0x28
  4053bc:	9808      	ldr	r0, [sp, #32]
  4053be:	f002 fbb7 	bl	407b30 <__sprint_r>
  4053c2:	2800      	cmp	r0, #0
  4053c4:	f47f ab94 	bne.w	404af0 <_vfprintf_r+0xb14>
  4053c8:	991d      	ldr	r1, [sp, #116]	; 0x74
  4053ca:	9a25      	ldr	r2, [sp, #148]	; 0x94
  4053cc:	9b24      	ldr	r3, [sp, #144]	; 0x90
  4053ce:	f10d 08c0 	add.w	r8, sp, #192	; 0xc0
  4053d2:	e68a      	b.n	4050ea <_vfprintf_r+0x110e>
  4053d4:	9808      	ldr	r0, [sp, #32]
  4053d6:	aa23      	add	r2, sp, #140	; 0x8c
  4053d8:	4651      	mov	r1, sl
  4053da:	f002 fba9 	bl	407b30 <__sprint_r>
  4053de:	2800      	cmp	r0, #0
  4053e0:	f43f aa64 	beq.w	4048ac <_vfprintf_r+0x8d0>
  4053e4:	f7ff ba64 	b.w	4048b0 <_vfprintf_r+0x8d4>
  4053e8:	9b21      	ldr	r3, [sp, #132]	; 0x84
  4053ea:	e5fe      	b.n	404fea <_vfprintf_r+0x100e>
  4053ec:	3301      	adds	r3, #1
  4053ee:	4432      	add	r2, r6
  4053f0:	2b07      	cmp	r3, #7
  4053f2:	e888 0060 	stmia.w	r8, {r5, r6}
  4053f6:	9225      	str	r2, [sp, #148]	; 0x94
  4053f8:	9324      	str	r3, [sp, #144]	; 0x90
  4053fa:	f108 0808 	add.w	r8, r8, #8
  4053fe:	f77f ae77 	ble.w	4050f0 <_vfprintf_r+0x1114>
  405402:	aa23      	add	r2, sp, #140	; 0x8c
  405404:	990a      	ldr	r1, [sp, #40]	; 0x28
  405406:	9808      	ldr	r0, [sp, #32]
  405408:	f002 fb92 	bl	407b30 <__sprint_r>
  40540c:	2800      	cmp	r0, #0
  40540e:	f47f ab6f 	bne.w	404af0 <_vfprintf_r+0xb14>
  405412:	9a25      	ldr	r2, [sp, #148]	; 0x94
  405414:	9b24      	ldr	r3, [sp, #144]	; 0x90
  405416:	f10d 08c0 	add.w	r8, sp, #192	; 0xc0
  40541a:	e669      	b.n	4050f0 <_vfprintf_r+0x1114>
  40541c:	3330      	adds	r3, #48	; 0x30
  40541e:	2230      	movs	r2, #48	; 0x30
  405420:	f88d 307f 	strb.w	r3, [sp, #127]	; 0x7f
  405424:	f88d 207e 	strb.w	r2, [sp, #126]	; 0x7e
  405428:	ab20      	add	r3, sp, #128	; 0x80
  40542a:	e6e7      	b.n	4051fc <_vfprintf_r+0x1220>
  40542c:	9b10      	ldr	r3, [sp, #64]	; 0x40
  40542e:	9a14      	ldr	r2, [sp, #80]	; 0x50
  405430:	4413      	add	r3, r2
  405432:	930d      	str	r3, [sp, #52]	; 0x34
  405434:	ea23 73e3 	bic.w	r3, r3, r3, asr #31
  405438:	9307      	str	r3, [sp, #28]
  40543a:	2667      	movs	r6, #103	; 0x67
  40543c:	e5f2      	b.n	405024 <_vfprintf_r+0x1048>
  40543e:	9a16      	ldr	r2, [sp, #88]	; 0x58
  405440:	9807      	ldr	r0, [sp, #28]
  405442:	9b17      	ldr	r3, [sp, #92]	; 0x5c
  405444:	4651      	mov	r1, sl
  405446:	f003 fa43 	bl	4088d0 <__aeabi_dcmpeq>
  40544a:	2800      	cmp	r0, #0
  40544c:	f47f af2d 	bne.w	4052aa <_vfprintf_r+0x12ce>
  405450:	f1c5 0501 	rsb	r5, r5, #1
  405454:	951d      	str	r5, [sp, #116]	; 0x74
  405456:	442c      	add	r4, r5
  405458:	e5b4      	b.n	404fc4 <_vfprintf_r+0xfe8>
  40545a:	9b12      	ldr	r3, [sp, #72]	; 0x48
  40545c:	4f33      	ldr	r7, [pc, #204]	; (40552c <_vfprintf_r+0x1550>)
  40545e:	2b00      	cmp	r3, #0
  405460:	bfb6      	itet	lt
  405462:	f04f 0a2d 	movlt.w	sl, #45	; 0x2d
  405466:	f89d a06f 	ldrbge.w	sl, [sp, #111]	; 0x6f
  40546a:	f88d a06f 	strblt.w	sl, [sp, #111]	; 0x6f
  40546e:	4b30      	ldr	r3, [pc, #192]	; (405530 <_vfprintf_r+0x1554>)
  405470:	f7ff b9d1 	b.w	404816 <_vfprintf_r+0x83a>
  405474:	9b10      	ldr	r3, [sp, #64]	; 0x40
  405476:	9a14      	ldr	r2, [sp, #80]	; 0x50
  405478:	4413      	add	r3, r2
  40547a:	9a09      	ldr	r2, [sp, #36]	; 0x24
  40547c:	441a      	add	r2, r3
  40547e:	ea22 73e2 	bic.w	r3, r2, r2, asr #31
  405482:	920d      	str	r2, [sp, #52]	; 0x34
  405484:	9307      	str	r3, [sp, #28]
  405486:	e5cd      	b.n	405024 <_vfprintf_r+0x1048>
  405488:	9b10      	ldr	r3, [sp, #64]	; 0x40
  40548a:	9a0d      	ldr	r2, [sp, #52]	; 0x34
  40548c:	f1c3 0301 	rsb	r3, r3, #1
  405490:	441a      	add	r2, r3
  405492:	4613      	mov	r3, r2
  405494:	920d      	str	r2, [sp, #52]	; 0x34
  405496:	e713      	b.n	4052c0 <_vfprintf_r+0x12e4>
  405498:	f01b 0301 	ands.w	r3, fp, #1
  40549c:	9310      	str	r3, [sp, #64]	; 0x40
  40549e:	f47f aeb6 	bne.w	40520e <_vfprintf_r+0x1232>
  4054a2:	9b0d      	ldr	r3, [sp, #52]	; 0x34
  4054a4:	ea23 73e3 	bic.w	r3, r3, r3, asr #31
  4054a8:	9307      	str	r3, [sp, #28]
  4054aa:	e5bb      	b.n	405024 <_vfprintf_r+0x1048>
  4054ac:	9c0e      	ldr	r4, [sp, #56]	; 0x38
  4054ae:	f899 6001 	ldrb.w	r6, [r9, #1]
  4054b2:	6823      	ldr	r3, [r4, #0]
  4054b4:	ea43 73e3 	orr.w	r3, r3, r3, asr #31
  4054b8:	9309      	str	r3, [sp, #36]	; 0x24
  4054ba:	4623      	mov	r3, r4
  4054bc:	3304      	adds	r3, #4
  4054be:	4681      	mov	r9, r0
  4054c0:	930e      	str	r3, [sp, #56]	; 0x38
  4054c2:	f7fe be0a 	b.w	4040da <_vfprintf_r+0xfe>
  4054c6:	9b09      	ldr	r3, [sp, #36]	; 0x24
  4054c8:	b913      	cbnz	r3, 4054d0 <_vfprintf_r+0x14f4>
  4054ca:	f01b 0f01 	tst.w	fp, #1
  4054ce:	d002      	beq.n	4054d6 <_vfprintf_r+0x14fa>
  4054d0:	9b14      	ldr	r3, [sp, #80]	; 0x50
  4054d2:	3301      	adds	r3, #1
  4054d4:	e7d1      	b.n	40547a <_vfprintf_r+0x149e>
  4054d6:	2301      	movs	r3, #1
  4054d8:	e702      	b.n	4052e0 <_vfprintf_r+0x1304>
  4054da:	9b21      	ldr	r3, [sp, #132]	; 0x84
  4054dc:	1bdb      	subs	r3, r3, r7
  4054de:	9311      	str	r3, [sp, #68]	; 0x44
  4054e0:	9b0d      	ldr	r3, [sp, #52]	; 0x34
  4054e2:	2b47      	cmp	r3, #71	; 0x47
  4054e4:	f43f ae40 	beq.w	405168 <_vfprintf_r+0x118c>
  4054e8:	9b1d      	ldr	r3, [sp, #116]	; 0x74
  4054ea:	9310      	str	r3, [sp, #64]	; 0x40
  4054ec:	e647      	b.n	40517e <_vfprintf_r+0x11a2>
  4054ee:	f88d 106f 	strb.w	r1, [sp, #111]	; 0x6f
  4054f2:	f7ff b81d 	b.w	404530 <_vfprintf_r+0x554>
  4054f6:	f88d 106f 	strb.w	r1, [sp, #111]	; 0x6f
  4054fa:	f7ff b918 	b.w	40472e <_vfprintf_r+0x752>
  4054fe:	f10d 037e 	add.w	r3, sp, #126	; 0x7e
  405502:	e67b      	b.n	4051fc <_vfprintf_r+0x1220>
  405504:	f88d 106f 	strb.w	r1, [sp, #111]	; 0x6f
  405508:	f7ff b866 	b.w	4045d8 <_vfprintf_r+0x5fc>
  40550c:	f88d 106f 	strb.w	r1, [sp, #111]	; 0x6f
  405510:	f7ff b9ac 	b.w	40486c <_vfprintf_r+0x890>
  405514:	f88d 106f 	strb.w	r1, [sp, #111]	; 0x6f
  405518:	f7ff b934 	b.w	404784 <_vfprintf_r+0x7a8>
  40551c:	f88d 106f 	strb.w	r1, [sp, #111]	; 0x6f
  405520:	f7ff b8b0 	b.w	404684 <_vfprintf_r+0x6a8>
  405524:	f88d 106f 	strb.w	r1, [sp, #111]	; 0x6f
  405528:	f7ff b945 	b.w	4047b6 <_vfprintf_r+0x7da>
  40552c:	00408d48 	.word	0x00408d48
  405530:	00408d44 	.word	0x00408d44

00405534 <__sbprintf>:
  405534:	e92d 41f0 	stmdb	sp!, {r4, r5, r6, r7, r8, lr}
  405538:	460c      	mov	r4, r1
  40553a:	f5ad 6d8d 	sub.w	sp, sp, #1128	; 0x468
  40553e:	8989      	ldrh	r1, [r1, #12]
  405540:	6e66      	ldr	r6, [r4, #100]	; 0x64
  405542:	89e5      	ldrh	r5, [r4, #14]
  405544:	9619      	str	r6, [sp, #100]	; 0x64
  405546:	f021 0102 	bic.w	r1, r1, #2
  40554a:	4606      	mov	r6, r0
  40554c:	69e0      	ldr	r0, [r4, #28]
  40554e:	f8ad 100c 	strh.w	r1, [sp, #12]
  405552:	4617      	mov	r7, r2
  405554:	f44f 6180 	mov.w	r1, #1024	; 0x400
  405558:	6a62      	ldr	r2, [r4, #36]	; 0x24
  40555a:	f8ad 500e 	strh.w	r5, [sp, #14]
  40555e:	4698      	mov	r8, r3
  405560:	ad1a      	add	r5, sp, #104	; 0x68
  405562:	2300      	movs	r3, #0
  405564:	9007      	str	r0, [sp, #28]
  405566:	a816      	add	r0, sp, #88	; 0x58
  405568:	9209      	str	r2, [sp, #36]	; 0x24
  40556a:	9306      	str	r3, [sp, #24]
  40556c:	9500      	str	r5, [sp, #0]
  40556e:	9504      	str	r5, [sp, #16]
  405570:	9102      	str	r1, [sp, #8]
  405572:	9105      	str	r1, [sp, #20]
  405574:	f001 fc82 	bl	406e7c <__retarget_lock_init_recursive>
  405578:	4643      	mov	r3, r8
  40557a:	463a      	mov	r2, r7
  40557c:	4669      	mov	r1, sp
  40557e:	4630      	mov	r0, r6
  405580:	f7fe fd2c 	bl	403fdc <_vfprintf_r>
  405584:	1e05      	subs	r5, r0, #0
  405586:	db07      	blt.n	405598 <__sbprintf+0x64>
  405588:	4630      	mov	r0, r6
  40558a:	4669      	mov	r1, sp
  40558c:	f001 f8e6 	bl	40675c <_fflush_r>
  405590:	2800      	cmp	r0, #0
  405592:	bf18      	it	ne
  405594:	f04f 35ff 	movne.w	r5, #4294967295
  405598:	f8bd 300c 	ldrh.w	r3, [sp, #12]
  40559c:	065b      	lsls	r3, r3, #25
  40559e:	d503      	bpl.n	4055a8 <__sbprintf+0x74>
  4055a0:	89a3      	ldrh	r3, [r4, #12]
  4055a2:	f043 0340 	orr.w	r3, r3, #64	; 0x40
  4055a6:	81a3      	strh	r3, [r4, #12]
  4055a8:	9816      	ldr	r0, [sp, #88]	; 0x58
  4055aa:	f001 fc69 	bl	406e80 <__retarget_lock_close_recursive>
  4055ae:	4628      	mov	r0, r5
  4055b0:	f50d 6d8d 	add.w	sp, sp, #1128	; 0x468
  4055b4:	e8bd 81f0 	ldmia.w	sp!, {r4, r5, r6, r7, r8, pc}

004055b8 <__swsetup_r>:
  4055b8:	b538      	push	{r3, r4, r5, lr}
  4055ba:	4b30      	ldr	r3, [pc, #192]	; (40567c <__swsetup_r+0xc4>)
  4055bc:	681b      	ldr	r3, [r3, #0]
  4055be:	4605      	mov	r5, r0
  4055c0:	460c      	mov	r4, r1
  4055c2:	b113      	cbz	r3, 4055ca <__swsetup_r+0x12>
  4055c4:	6b9a      	ldr	r2, [r3, #56]	; 0x38
  4055c6:	2a00      	cmp	r2, #0
  4055c8:	d038      	beq.n	40563c <__swsetup_r+0x84>
  4055ca:	f9b4 200c 	ldrsh.w	r2, [r4, #12]
  4055ce:	b293      	uxth	r3, r2
  4055d0:	0718      	lsls	r0, r3, #28
  4055d2:	d50c      	bpl.n	4055ee <__swsetup_r+0x36>
  4055d4:	6920      	ldr	r0, [r4, #16]
  4055d6:	b1a8      	cbz	r0, 405604 <__swsetup_r+0x4c>
  4055d8:	f013 0201 	ands.w	r2, r3, #1
  4055dc:	d01e      	beq.n	40561c <__swsetup_r+0x64>
  4055de:	6963      	ldr	r3, [r4, #20]
  4055e0:	2200      	movs	r2, #0
  4055e2:	425b      	negs	r3, r3
  4055e4:	61a3      	str	r3, [r4, #24]
  4055e6:	60a2      	str	r2, [r4, #8]
  4055e8:	b1f0      	cbz	r0, 405628 <__swsetup_r+0x70>
  4055ea:	2000      	movs	r0, #0
  4055ec:	bd38      	pop	{r3, r4, r5, pc}
  4055ee:	06d9      	lsls	r1, r3, #27
  4055f0:	d53c      	bpl.n	40566c <__swsetup_r+0xb4>
  4055f2:	0758      	lsls	r0, r3, #29
  4055f4:	d426      	bmi.n	405644 <__swsetup_r+0x8c>
  4055f6:	6920      	ldr	r0, [r4, #16]
  4055f8:	f042 0308 	orr.w	r3, r2, #8
  4055fc:	81a3      	strh	r3, [r4, #12]
  4055fe:	b29b      	uxth	r3, r3
  405600:	2800      	cmp	r0, #0
  405602:	d1e9      	bne.n	4055d8 <__swsetup_r+0x20>
  405604:	f403 7220 	and.w	r2, r3, #640	; 0x280
  405608:	f5b2 7f00 	cmp.w	r2, #512	; 0x200
  40560c:	d0e4      	beq.n	4055d8 <__swsetup_r+0x20>
  40560e:	4628      	mov	r0, r5
  405610:	4621      	mov	r1, r4
  405612:	f001 fc69 	bl	406ee8 <__smakebuf_r>
  405616:	89a3      	ldrh	r3, [r4, #12]
  405618:	6920      	ldr	r0, [r4, #16]
  40561a:	e7dd      	b.n	4055d8 <__swsetup_r+0x20>
  40561c:	0799      	lsls	r1, r3, #30
  40561e:	bf58      	it	pl
  405620:	6962      	ldrpl	r2, [r4, #20]
  405622:	60a2      	str	r2, [r4, #8]
  405624:	2800      	cmp	r0, #0
  405626:	d1e0      	bne.n	4055ea <__swsetup_r+0x32>
  405628:	f9b4 300c 	ldrsh.w	r3, [r4, #12]
  40562c:	061a      	lsls	r2, r3, #24
  40562e:	d5dd      	bpl.n	4055ec <__swsetup_r+0x34>
  405630:	f043 0340 	orr.w	r3, r3, #64	; 0x40
  405634:	81a3      	strh	r3, [r4, #12]
  405636:	f04f 30ff 	mov.w	r0, #4294967295
  40563a:	bd38      	pop	{r3, r4, r5, pc}
  40563c:	4618      	mov	r0, r3
  40563e:	f001 f8e5 	bl	40680c <__sinit>
  405642:	e7c2      	b.n	4055ca <__swsetup_r+0x12>
  405644:	6b21      	ldr	r1, [r4, #48]	; 0x30
  405646:	b151      	cbz	r1, 40565e <__swsetup_r+0xa6>
  405648:	f104 0340 	add.w	r3, r4, #64	; 0x40
  40564c:	4299      	cmp	r1, r3
  40564e:	d004      	beq.n	40565a <__swsetup_r+0xa2>
  405650:	4628      	mov	r0, r5
  405652:	f001 f97d 	bl	406950 <_free_r>
  405656:	f9b4 200c 	ldrsh.w	r2, [r4, #12]
  40565a:	2300      	movs	r3, #0
  40565c:	6323      	str	r3, [r4, #48]	; 0x30
  40565e:	2300      	movs	r3, #0
  405660:	6920      	ldr	r0, [r4, #16]
  405662:	6063      	str	r3, [r4, #4]
  405664:	f022 0224 	bic.w	r2, r2, #36	; 0x24
  405668:	6020      	str	r0, [r4, #0]
  40566a:	e7c5      	b.n	4055f8 <__swsetup_r+0x40>
  40566c:	f042 0240 	orr.w	r2, r2, #64	; 0x40
  405670:	2309      	movs	r3, #9
  405672:	602b      	str	r3, [r5, #0]
  405674:	f04f 30ff 	mov.w	r0, #4294967295
  405678:	81a2      	strh	r2, [r4, #12]
  40567a:	bd38      	pop	{r3, r4, r5, pc}
  40567c:	20400014 	.word	0x20400014

00405680 <register_fini>:
  405680:	4b02      	ldr	r3, [pc, #8]	; (40568c <register_fini+0xc>)
  405682:	b113      	cbz	r3, 40568a <register_fini+0xa>
  405684:	4802      	ldr	r0, [pc, #8]	; (405690 <register_fini+0x10>)
  405686:	f000 b805 	b.w	405694 <atexit>
  40568a:	4770      	bx	lr
  40568c:	00000000 	.word	0x00000000
  405690:	0040687d 	.word	0x0040687d

00405694 <atexit>:
  405694:	2300      	movs	r3, #0
  405696:	4601      	mov	r1, r0
  405698:	461a      	mov	r2, r3
  40569a:	4618      	mov	r0, r3
  40569c:	f002 ba68 	b.w	407b70 <__register_exitproc>

004056a0 <quorem>:
  4056a0:	6902      	ldr	r2, [r0, #16]
  4056a2:	690b      	ldr	r3, [r1, #16]
  4056a4:	4293      	cmp	r3, r2
  4056a6:	f300 808d 	bgt.w	4057c4 <quorem+0x124>
  4056aa:	e92d 4ff0 	stmdb	sp!, {r4, r5, r6, r7, r8, r9, sl, fp, lr}
  4056ae:	f103 38ff 	add.w	r8, r3, #4294967295
  4056b2:	f101 0714 	add.w	r7, r1, #20
  4056b6:	f100 0b14 	add.w	fp, r0, #20
  4056ba:	f857 2028 	ldr.w	r2, [r7, r8, lsl #2]
  4056be:	f85b 3028 	ldr.w	r3, [fp, r8, lsl #2]
  4056c2:	ea4f 0488 	mov.w	r4, r8, lsl #2
  4056c6:	b083      	sub	sp, #12
  4056c8:	3201      	adds	r2, #1
  4056ca:	fbb3 f9f2 	udiv	r9, r3, r2
  4056ce:	eb0b 0304 	add.w	r3, fp, r4
  4056d2:	9400      	str	r4, [sp, #0]
  4056d4:	eb07 0a04 	add.w	sl, r7, r4
  4056d8:	9301      	str	r3, [sp, #4]
  4056da:	f1b9 0f00 	cmp.w	r9, #0
  4056de:	d039      	beq.n	405754 <quorem+0xb4>
  4056e0:	2500      	movs	r5, #0
  4056e2:	462e      	mov	r6, r5
  4056e4:	46bc      	mov	ip, r7
  4056e6:	46de      	mov	lr, fp
  4056e8:	f85c 4b04 	ldr.w	r4, [ip], #4
  4056ec:	f8de 3000 	ldr.w	r3, [lr]
  4056f0:	b2a2      	uxth	r2, r4
  4056f2:	fb09 5502 	mla	r5, r9, r2, r5
  4056f6:	0c22      	lsrs	r2, r4, #16
  4056f8:	0c2c      	lsrs	r4, r5, #16
  4056fa:	fb09 4202 	mla	r2, r9, r2, r4
  4056fe:	b2ad      	uxth	r5, r5
  405700:	1b75      	subs	r5, r6, r5
  405702:	b296      	uxth	r6, r2
  405704:	ebc6 4613 	rsb	r6, r6, r3, lsr #16
  405708:	fa15 f383 	uxtah	r3, r5, r3
  40570c:	eb06 4623 	add.w	r6, r6, r3, asr #16
  405710:	b29b      	uxth	r3, r3
  405712:	ea43 4306 	orr.w	r3, r3, r6, lsl #16
  405716:	45e2      	cmp	sl, ip
  405718:	ea4f 4512 	mov.w	r5, r2, lsr #16
  40571c:	f84e 3b04 	str.w	r3, [lr], #4
  405720:	ea4f 4626 	mov.w	r6, r6, asr #16
  405724:	d2e0      	bcs.n	4056e8 <quorem+0x48>
  405726:	9b00      	ldr	r3, [sp, #0]
  405728:	f85b 3003 	ldr.w	r3, [fp, r3]
  40572c:	b993      	cbnz	r3, 405754 <quorem+0xb4>
  40572e:	9c01      	ldr	r4, [sp, #4]
  405730:	1f23      	subs	r3, r4, #4
  405732:	459b      	cmp	fp, r3
  405734:	d20c      	bcs.n	405750 <quorem+0xb0>
  405736:	f854 3c04 	ldr.w	r3, [r4, #-4]
  40573a:	b94b      	cbnz	r3, 405750 <quorem+0xb0>
  40573c:	f1a4 0308 	sub.w	r3, r4, #8
  405740:	e002      	b.n	405748 <quorem+0xa8>
  405742:	681a      	ldr	r2, [r3, #0]
  405744:	3b04      	subs	r3, #4
  405746:	b91a      	cbnz	r2, 405750 <quorem+0xb0>
  405748:	459b      	cmp	fp, r3
  40574a:	f108 38ff 	add.w	r8, r8, #4294967295
  40574e:	d3f8      	bcc.n	405742 <quorem+0xa2>
  405750:	f8c0 8010 	str.w	r8, [r0, #16]
  405754:	4604      	mov	r4, r0
  405756:	f001 fec5 	bl	4074e4 <__mcmp>
  40575a:	2800      	cmp	r0, #0
  40575c:	db2e      	blt.n	4057bc <quorem+0x11c>
  40575e:	f109 0901 	add.w	r9, r9, #1
  405762:	465d      	mov	r5, fp
  405764:	2300      	movs	r3, #0
  405766:	f857 1b04 	ldr.w	r1, [r7], #4
  40576a:	6828      	ldr	r0, [r5, #0]
  40576c:	b28a      	uxth	r2, r1
  40576e:	1a9a      	subs	r2, r3, r2
  405770:	0c0b      	lsrs	r3, r1, #16
  405772:	fa12 f280 	uxtah	r2, r2, r0
  405776:	ebc3 4310 	rsb	r3, r3, r0, lsr #16
  40577a:	eb03 4322 	add.w	r3, r3, r2, asr #16
  40577e:	b292      	uxth	r2, r2
  405780:	ea42 4203 	orr.w	r2, r2, r3, lsl #16
  405784:	45ba      	cmp	sl, r7
  405786:	f845 2b04 	str.w	r2, [r5], #4
  40578a:	ea4f 4323 	mov.w	r3, r3, asr #16
  40578e:	d2ea      	bcs.n	405766 <quorem+0xc6>
  405790:	f85b 2028 	ldr.w	r2, [fp, r8, lsl #2]
  405794:	eb0b 0388 	add.w	r3, fp, r8, lsl #2
  405798:	b982      	cbnz	r2, 4057bc <quorem+0x11c>
  40579a:	1f1a      	subs	r2, r3, #4
  40579c:	4593      	cmp	fp, r2
  40579e:	d20b      	bcs.n	4057b8 <quorem+0x118>
  4057a0:	f853 2c04 	ldr.w	r2, [r3, #-4]
  4057a4:	b942      	cbnz	r2, 4057b8 <quorem+0x118>
  4057a6:	3b08      	subs	r3, #8
  4057a8:	e002      	b.n	4057b0 <quorem+0x110>
  4057aa:	681a      	ldr	r2, [r3, #0]
  4057ac:	3b04      	subs	r3, #4
  4057ae:	b91a      	cbnz	r2, 4057b8 <quorem+0x118>
  4057b0:	459b      	cmp	fp, r3
  4057b2:	f108 38ff 	add.w	r8, r8, #4294967295
  4057b6:	d3f8      	bcc.n	4057aa <quorem+0x10a>
  4057b8:	f8c4 8010 	str.w	r8, [r4, #16]
  4057bc:	4648      	mov	r0, r9
  4057be:	b003      	add	sp, #12
  4057c0:	e8bd 8ff0 	ldmia.w	sp!, {r4, r5, r6, r7, r8, r9, sl, fp, pc}
  4057c4:	2000      	movs	r0, #0
  4057c6:	4770      	bx	lr

004057c8 <_dtoa_r>:
  4057c8:	e92d 4ff0 	stmdb	sp!, {r4, r5, r6, r7, r8, r9, sl, fp, lr}
  4057cc:	6c01      	ldr	r1, [r0, #64]	; 0x40
  4057ce:	b09b      	sub	sp, #108	; 0x6c
  4057d0:	4604      	mov	r4, r0
  4057d2:	9e27      	ldr	r6, [sp, #156]	; 0x9c
  4057d4:	4692      	mov	sl, r2
  4057d6:	469b      	mov	fp, r3
  4057d8:	b141      	cbz	r1, 4057ec <_dtoa_r+0x24>
  4057da:	6c42      	ldr	r2, [r0, #68]	; 0x44
  4057dc:	604a      	str	r2, [r1, #4]
  4057de:	2301      	movs	r3, #1
  4057e0:	4093      	lsls	r3, r2
  4057e2:	608b      	str	r3, [r1, #8]
  4057e4:	f001 fca6 	bl	407134 <_Bfree>
  4057e8:	2300      	movs	r3, #0
  4057ea:	6423      	str	r3, [r4, #64]	; 0x40
  4057ec:	f1bb 0f00 	cmp.w	fp, #0
  4057f0:	465d      	mov	r5, fp
  4057f2:	db35      	blt.n	405860 <_dtoa_r+0x98>
  4057f4:	2300      	movs	r3, #0
  4057f6:	6033      	str	r3, [r6, #0]
  4057f8:	4b9d      	ldr	r3, [pc, #628]	; (405a70 <_dtoa_r+0x2a8>)
  4057fa:	43ab      	bics	r3, r5
  4057fc:	d015      	beq.n	40582a <_dtoa_r+0x62>
  4057fe:	4650      	mov	r0, sl
  405800:	4659      	mov	r1, fp
  405802:	2200      	movs	r2, #0
  405804:	2300      	movs	r3, #0
  405806:	f003 f863 	bl	4088d0 <__aeabi_dcmpeq>
  40580a:	4680      	mov	r8, r0
  40580c:	2800      	cmp	r0, #0
  40580e:	d02d      	beq.n	40586c <_dtoa_r+0xa4>
  405810:	9a26      	ldr	r2, [sp, #152]	; 0x98
  405812:	2301      	movs	r3, #1
  405814:	6013      	str	r3, [r2, #0]
  405816:	9b28      	ldr	r3, [sp, #160]	; 0xa0
  405818:	2b00      	cmp	r3, #0
  40581a:	f000 80bd 	beq.w	405998 <_dtoa_r+0x1d0>
  40581e:	4895      	ldr	r0, [pc, #596]	; (405a74 <_dtoa_r+0x2ac>)
  405820:	6018      	str	r0, [r3, #0]
  405822:	3801      	subs	r0, #1
  405824:	b01b      	add	sp, #108	; 0x6c
  405826:	e8bd 8ff0 	ldmia.w	sp!, {r4, r5, r6, r7, r8, r9, sl, fp, pc}
  40582a:	9a26      	ldr	r2, [sp, #152]	; 0x98
  40582c:	f242 730f 	movw	r3, #9999	; 0x270f
  405830:	6013      	str	r3, [r2, #0]
  405832:	f1ba 0f00 	cmp.w	sl, #0
  405836:	d10d      	bne.n	405854 <_dtoa_r+0x8c>
  405838:	f3c5 0513 	ubfx	r5, r5, #0, #20
  40583c:	b955      	cbnz	r5, 405854 <_dtoa_r+0x8c>
  40583e:	9b28      	ldr	r3, [sp, #160]	; 0xa0
  405840:	488d      	ldr	r0, [pc, #564]	; (405a78 <_dtoa_r+0x2b0>)
  405842:	2b00      	cmp	r3, #0
  405844:	d0ee      	beq.n	405824 <_dtoa_r+0x5c>
  405846:	f100 0308 	add.w	r3, r0, #8
  40584a:	9a28      	ldr	r2, [sp, #160]	; 0xa0
  40584c:	6013      	str	r3, [r2, #0]
  40584e:	b01b      	add	sp, #108	; 0x6c
  405850:	e8bd 8ff0 	ldmia.w	sp!, {r4, r5, r6, r7, r8, r9, sl, fp, pc}
  405854:	9b28      	ldr	r3, [sp, #160]	; 0xa0
  405856:	4889      	ldr	r0, [pc, #548]	; (405a7c <_dtoa_r+0x2b4>)
  405858:	2b00      	cmp	r3, #0
  40585a:	d0e3      	beq.n	405824 <_dtoa_r+0x5c>
  40585c:	1cc3      	adds	r3, r0, #3
  40585e:	e7f4      	b.n	40584a <_dtoa_r+0x82>
  405860:	2301      	movs	r3, #1
  405862:	f02b 4500 	bic.w	r5, fp, #2147483648	; 0x80000000
  405866:	6033      	str	r3, [r6, #0]
  405868:	46ab      	mov	fp, r5
  40586a:	e7c5      	b.n	4057f8 <_dtoa_r+0x30>
  40586c:	aa18      	add	r2, sp, #96	; 0x60
  40586e:	ab19      	add	r3, sp, #100	; 0x64
  405870:	9201      	str	r2, [sp, #4]
  405872:	9300      	str	r3, [sp, #0]
  405874:	4652      	mov	r2, sl
  405876:	465b      	mov	r3, fp
  405878:	4620      	mov	r0, r4
  40587a:	f001 fed3 	bl	407624 <__d2b>
  40587e:	0d2b      	lsrs	r3, r5, #20
  405880:	4681      	mov	r9, r0
  405882:	d071      	beq.n	405968 <_dtoa_r+0x1a0>
  405884:	f3cb 0213 	ubfx	r2, fp, #0, #20
  405888:	f042 517f 	orr.w	r1, r2, #1069547520	; 0x3fc00000
  40588c:	9f18      	ldr	r7, [sp, #96]	; 0x60
  40588e:	f8cd 8050 	str.w	r8, [sp, #80]	; 0x50
  405892:	4650      	mov	r0, sl
  405894:	f2a3 36ff 	subw	r6, r3, #1023	; 0x3ff
  405898:	f441 1140 	orr.w	r1, r1, #3145728	; 0x300000
  40589c:	2200      	movs	r2, #0
  40589e:	4b78      	ldr	r3, [pc, #480]	; (405a80 <_dtoa_r+0x2b8>)
  4058a0:	f002 fbfa 	bl	408098 <__aeabi_dsub>
  4058a4:	a36c      	add	r3, pc, #432	; (adr r3, 405a58 <_dtoa_r+0x290>)
  4058a6:	e9d3 2300 	ldrd	r2, r3, [r3]
  4058aa:	f002 fda9 	bl	408400 <__aeabi_dmul>
  4058ae:	a36c      	add	r3, pc, #432	; (adr r3, 405a60 <_dtoa_r+0x298>)
  4058b0:	e9d3 2300 	ldrd	r2, r3, [r3]
  4058b4:	f002 fbf2 	bl	40809c <__adddf3>
  4058b8:	e9cd 0102 	strd	r0, r1, [sp, #8]
  4058bc:	4630      	mov	r0, r6
  4058be:	f002 fd39 	bl	408334 <__aeabi_i2d>
  4058c2:	a369      	add	r3, pc, #420	; (adr r3, 405a68 <_dtoa_r+0x2a0>)
  4058c4:	e9d3 2300 	ldrd	r2, r3, [r3]
  4058c8:	f002 fd9a 	bl	408400 <__aeabi_dmul>
  4058cc:	4602      	mov	r2, r0
  4058ce:	460b      	mov	r3, r1
  4058d0:	e9dd 0102 	ldrd	r0, r1, [sp, #8]
  4058d4:	f002 fbe2 	bl	40809c <__adddf3>
  4058d8:	e9cd 0104 	strd	r0, r1, [sp, #16]
  4058dc:	f003 f840 	bl	408960 <__aeabi_d2iz>
  4058e0:	2200      	movs	r2, #0
  4058e2:	9002      	str	r0, [sp, #8]
  4058e4:	2300      	movs	r3, #0
  4058e6:	e9dd 0104 	ldrd	r0, r1, [sp, #16]
  4058ea:	f002 fffb 	bl	4088e4 <__aeabi_dcmplt>
  4058ee:	2800      	cmp	r0, #0
  4058f0:	f040 8173 	bne.w	405bda <_dtoa_r+0x412>
  4058f4:	9d02      	ldr	r5, [sp, #8]
  4058f6:	2d16      	cmp	r5, #22
  4058f8:	f200 815d 	bhi.w	405bb6 <_dtoa_r+0x3ee>
  4058fc:	4b61      	ldr	r3, [pc, #388]	; (405a84 <_dtoa_r+0x2bc>)
  4058fe:	eb03 03c5 	add.w	r3, r3, r5, lsl #3
  405902:	e9d3 0100 	ldrd	r0, r1, [r3]
  405906:	4652      	mov	r2, sl
  405908:	465b      	mov	r3, fp
  40590a:	f003 f809 	bl	408920 <__aeabi_dcmpgt>
  40590e:	2800      	cmp	r0, #0
  405910:	f000 81c5 	beq.w	405c9e <_dtoa_r+0x4d6>
  405914:	1e6b      	subs	r3, r5, #1
  405916:	9302      	str	r3, [sp, #8]
  405918:	2300      	movs	r3, #0
  40591a:	930e      	str	r3, [sp, #56]	; 0x38
  40591c:	1bbf      	subs	r7, r7, r6
  40591e:	1e7b      	subs	r3, r7, #1
  405920:	9306      	str	r3, [sp, #24]
  405922:	f100 8154 	bmi.w	405bce <_dtoa_r+0x406>
  405926:	2300      	movs	r3, #0
  405928:	9308      	str	r3, [sp, #32]
  40592a:	9b02      	ldr	r3, [sp, #8]
  40592c:	2b00      	cmp	r3, #0
  40592e:	f2c0 8145 	blt.w	405bbc <_dtoa_r+0x3f4>
  405932:	9a06      	ldr	r2, [sp, #24]
  405934:	930d      	str	r3, [sp, #52]	; 0x34
  405936:	4611      	mov	r1, r2
  405938:	4419      	add	r1, r3
  40593a:	2300      	movs	r3, #0
  40593c:	9106      	str	r1, [sp, #24]
  40593e:	930c      	str	r3, [sp, #48]	; 0x30
  405940:	9b24      	ldr	r3, [sp, #144]	; 0x90
  405942:	2b09      	cmp	r3, #9
  405944:	d82a      	bhi.n	40599c <_dtoa_r+0x1d4>
  405946:	2b05      	cmp	r3, #5
  405948:	f340 865b 	ble.w	406602 <_dtoa_r+0xe3a>
  40594c:	3b04      	subs	r3, #4
  40594e:	9324      	str	r3, [sp, #144]	; 0x90
  405950:	2500      	movs	r5, #0
  405952:	9b24      	ldr	r3, [sp, #144]	; 0x90
  405954:	3b02      	subs	r3, #2
  405956:	2b03      	cmp	r3, #3
  405958:	f200 8642 	bhi.w	4065e0 <_dtoa_r+0xe18>
  40595c:	e8df f013 	tbh	[pc, r3, lsl #1]
  405960:	02c903d4 	.word	0x02c903d4
  405964:	046103df 	.word	0x046103df
  405968:	9f18      	ldr	r7, [sp, #96]	; 0x60
  40596a:	9e19      	ldr	r6, [sp, #100]	; 0x64
  40596c:	443e      	add	r6, r7
  40596e:	f206 4332 	addw	r3, r6, #1074	; 0x432
  405972:	2b20      	cmp	r3, #32
  405974:	f340 818e 	ble.w	405c94 <_dtoa_r+0x4cc>
  405978:	f1c3 0340 	rsb	r3, r3, #64	; 0x40
  40597c:	f206 4012 	addw	r0, r6, #1042	; 0x412
  405980:	409d      	lsls	r5, r3
  405982:	fa2a f000 	lsr.w	r0, sl, r0
  405986:	4328      	orrs	r0, r5
  405988:	f002 fcc4 	bl	408314 <__aeabi_ui2d>
  40598c:	2301      	movs	r3, #1
  40598e:	3e01      	subs	r6, #1
  405990:	f1a1 71f8 	sub.w	r1, r1, #32505856	; 0x1f00000
  405994:	9314      	str	r3, [sp, #80]	; 0x50
  405996:	e781      	b.n	40589c <_dtoa_r+0xd4>
  405998:	483b      	ldr	r0, [pc, #236]	; (405a88 <_dtoa_r+0x2c0>)
  40599a:	e743      	b.n	405824 <_dtoa_r+0x5c>
  40599c:	2100      	movs	r1, #0
  40599e:	6461      	str	r1, [r4, #68]	; 0x44
  4059a0:	4620      	mov	r0, r4
  4059a2:	9125      	str	r1, [sp, #148]	; 0x94
  4059a4:	f001 fba0 	bl	4070e8 <_Balloc>
  4059a8:	f04f 33ff 	mov.w	r3, #4294967295
  4059ac:	930a      	str	r3, [sp, #40]	; 0x28
  4059ae:	9a25      	ldr	r2, [sp, #148]	; 0x94
  4059b0:	930f      	str	r3, [sp, #60]	; 0x3c
  4059b2:	2301      	movs	r3, #1
  4059b4:	9004      	str	r0, [sp, #16]
  4059b6:	6420      	str	r0, [r4, #64]	; 0x40
  4059b8:	9224      	str	r2, [sp, #144]	; 0x90
  4059ba:	930b      	str	r3, [sp, #44]	; 0x2c
  4059bc:	9b19      	ldr	r3, [sp, #100]	; 0x64
  4059be:	2b00      	cmp	r3, #0
  4059c0:	f2c0 80d9 	blt.w	405b76 <_dtoa_r+0x3ae>
  4059c4:	9a02      	ldr	r2, [sp, #8]
  4059c6:	2a0e      	cmp	r2, #14
  4059c8:	f300 80d5 	bgt.w	405b76 <_dtoa_r+0x3ae>
  4059cc:	4b2d      	ldr	r3, [pc, #180]	; (405a84 <_dtoa_r+0x2bc>)
  4059ce:	eb03 03c2 	add.w	r3, r3, r2, lsl #3
  4059d2:	e9d3 2300 	ldrd	r2, r3, [r3]
  4059d6:	e9cd 2308 	strd	r2, r3, [sp, #32]
  4059da:	9b25      	ldr	r3, [sp, #148]	; 0x94
  4059dc:	2b00      	cmp	r3, #0
  4059de:	f2c0 83ba 	blt.w	406156 <_dtoa_r+0x98e>
  4059e2:	e9dd 5608 	ldrd	r5, r6, [sp, #32]
  4059e6:	4650      	mov	r0, sl
  4059e8:	462a      	mov	r2, r5
  4059ea:	4633      	mov	r3, r6
  4059ec:	4659      	mov	r1, fp
  4059ee:	f002 fe31 	bl	408654 <__aeabi_ddiv>
  4059f2:	f002 ffb5 	bl	408960 <__aeabi_d2iz>
  4059f6:	4680      	mov	r8, r0
  4059f8:	f002 fc9c 	bl	408334 <__aeabi_i2d>
  4059fc:	462a      	mov	r2, r5
  4059fe:	4633      	mov	r3, r6
  405a00:	f002 fcfe 	bl	408400 <__aeabi_dmul>
  405a04:	460b      	mov	r3, r1
  405a06:	4602      	mov	r2, r0
  405a08:	4659      	mov	r1, fp
  405a0a:	4650      	mov	r0, sl
  405a0c:	f002 fb44 	bl	408098 <__aeabi_dsub>
  405a10:	9d04      	ldr	r5, [sp, #16]
  405a12:	f108 0330 	add.w	r3, r8, #48	; 0x30
  405a16:	702b      	strb	r3, [r5, #0]
  405a18:	9b0a      	ldr	r3, [sp, #40]	; 0x28
  405a1a:	2b01      	cmp	r3, #1
  405a1c:	4606      	mov	r6, r0
  405a1e:	460f      	mov	r7, r1
  405a20:	f105 0501 	add.w	r5, r5, #1
  405a24:	d068      	beq.n	405af8 <_dtoa_r+0x330>
  405a26:	2200      	movs	r2, #0
  405a28:	4b18      	ldr	r3, [pc, #96]	; (405a8c <_dtoa_r+0x2c4>)
  405a2a:	f002 fce9 	bl	408400 <__aeabi_dmul>
  405a2e:	2200      	movs	r2, #0
  405a30:	2300      	movs	r3, #0
  405a32:	4606      	mov	r6, r0
  405a34:	460f      	mov	r7, r1
  405a36:	f002 ff4b 	bl	4088d0 <__aeabi_dcmpeq>
  405a3a:	2800      	cmp	r0, #0
  405a3c:	f040 8088 	bne.w	405b50 <_dtoa_r+0x388>
  405a40:	f8cd 902c 	str.w	r9, [sp, #44]	; 0x2c
  405a44:	f04f 0a00 	mov.w	sl, #0
  405a48:	f8df b040 	ldr.w	fp, [pc, #64]	; 405a8c <_dtoa_r+0x2c4>
  405a4c:	940c      	str	r4, [sp, #48]	; 0x30
  405a4e:	e9dd 8908 	ldrd	r8, r9, [sp, #32]
  405a52:	e028      	b.n	405aa6 <_dtoa_r+0x2de>
  405a54:	f3af 8000 	nop.w
  405a58:	636f4361 	.word	0x636f4361
  405a5c:	3fd287a7 	.word	0x3fd287a7
  405a60:	8b60c8b3 	.word	0x8b60c8b3
  405a64:	3fc68a28 	.word	0x3fc68a28
  405a68:	509f79fb 	.word	0x509f79fb
  405a6c:	3fd34413 	.word	0x3fd34413
  405a70:	7ff00000 	.word	0x7ff00000
  405a74:	00408d7d 	.word	0x00408d7d
  405a78:	00408da0 	.word	0x00408da0
  405a7c:	00408dac 	.word	0x00408dac
  405a80:	3ff80000 	.word	0x3ff80000
  405a84:	00408dd8 	.word	0x00408dd8
  405a88:	00408d7c 	.word	0x00408d7c
  405a8c:	40240000 	.word	0x40240000
  405a90:	f002 fcb6 	bl	408400 <__aeabi_dmul>
  405a94:	2200      	movs	r2, #0
  405a96:	2300      	movs	r3, #0
  405a98:	4606      	mov	r6, r0
  405a9a:	460f      	mov	r7, r1
  405a9c:	f002 ff18 	bl	4088d0 <__aeabi_dcmpeq>
  405aa0:	2800      	cmp	r0, #0
  405aa2:	f040 83c1 	bne.w	406228 <_dtoa_r+0xa60>
  405aa6:	4642      	mov	r2, r8
  405aa8:	464b      	mov	r3, r9
  405aaa:	4630      	mov	r0, r6
  405aac:	4639      	mov	r1, r7
  405aae:	f002 fdd1 	bl	408654 <__aeabi_ddiv>
  405ab2:	f002 ff55 	bl	408960 <__aeabi_d2iz>
  405ab6:	4604      	mov	r4, r0
  405ab8:	f002 fc3c 	bl	408334 <__aeabi_i2d>
  405abc:	4642      	mov	r2, r8
  405abe:	464b      	mov	r3, r9
  405ac0:	f002 fc9e 	bl	408400 <__aeabi_dmul>
  405ac4:	4602      	mov	r2, r0
  405ac6:	460b      	mov	r3, r1
  405ac8:	4630      	mov	r0, r6
  405aca:	4639      	mov	r1, r7
  405acc:	f002 fae4 	bl	408098 <__aeabi_dsub>
  405ad0:	f104 0e30 	add.w	lr, r4, #48	; 0x30
  405ad4:	9e04      	ldr	r6, [sp, #16]
  405ad6:	f805 eb01 	strb.w	lr, [r5], #1
  405ada:	eba5 0e06 	sub.w	lr, r5, r6
  405ade:	9e0a      	ldr	r6, [sp, #40]	; 0x28
  405ae0:	45b6      	cmp	lr, r6
  405ae2:	e9cd 0106 	strd	r0, r1, [sp, #24]
  405ae6:	4652      	mov	r2, sl
  405ae8:	465b      	mov	r3, fp
  405aea:	d1d1      	bne.n	405a90 <_dtoa_r+0x2c8>
  405aec:	46a0      	mov	r8, r4
  405aee:	f8dd 902c 	ldr.w	r9, [sp, #44]	; 0x2c
  405af2:	9c0c      	ldr	r4, [sp, #48]	; 0x30
  405af4:	4606      	mov	r6, r0
  405af6:	460f      	mov	r7, r1
  405af8:	4632      	mov	r2, r6
  405afa:	463b      	mov	r3, r7
  405afc:	4630      	mov	r0, r6
  405afe:	4639      	mov	r1, r7
  405b00:	f002 facc 	bl	40809c <__adddf3>
  405b04:	4606      	mov	r6, r0
  405b06:	460f      	mov	r7, r1
  405b08:	4602      	mov	r2, r0
  405b0a:	460b      	mov	r3, r1
  405b0c:	e9dd 0108 	ldrd	r0, r1, [sp, #32]
  405b10:	f002 fee8 	bl	4088e4 <__aeabi_dcmplt>
  405b14:	b948      	cbnz	r0, 405b2a <_dtoa_r+0x362>
  405b16:	4632      	mov	r2, r6
  405b18:	463b      	mov	r3, r7
  405b1a:	e9dd 0108 	ldrd	r0, r1, [sp, #32]
  405b1e:	f002 fed7 	bl	4088d0 <__aeabi_dcmpeq>
  405b22:	b1a8      	cbz	r0, 405b50 <_dtoa_r+0x388>
  405b24:	f018 0f01 	tst.w	r8, #1
  405b28:	d012      	beq.n	405b50 <_dtoa_r+0x388>
  405b2a:	f815 8c01 	ldrb.w	r8, [r5, #-1]
  405b2e:	9a04      	ldr	r2, [sp, #16]
  405b30:	1e6b      	subs	r3, r5, #1
  405b32:	e004      	b.n	405b3e <_dtoa_r+0x376>
  405b34:	429a      	cmp	r2, r3
  405b36:	f000 8401 	beq.w	40633c <_dtoa_r+0xb74>
  405b3a:	f813 8d01 	ldrb.w	r8, [r3, #-1]!
  405b3e:	f1b8 0f39 	cmp.w	r8, #57	; 0x39
  405b42:	f103 0501 	add.w	r5, r3, #1
  405b46:	d0f5      	beq.n	405b34 <_dtoa_r+0x36c>
  405b48:	f108 0801 	add.w	r8, r8, #1
  405b4c:	f883 8000 	strb.w	r8, [r3]
  405b50:	4649      	mov	r1, r9
  405b52:	4620      	mov	r0, r4
  405b54:	f001 faee 	bl	407134 <_Bfree>
  405b58:	2200      	movs	r2, #0
  405b5a:	9b02      	ldr	r3, [sp, #8]
  405b5c:	702a      	strb	r2, [r5, #0]
  405b5e:	9a26      	ldr	r2, [sp, #152]	; 0x98
  405b60:	3301      	adds	r3, #1
  405b62:	6013      	str	r3, [r2, #0]
  405b64:	9b28      	ldr	r3, [sp, #160]	; 0xa0
  405b66:	2b00      	cmp	r3, #0
  405b68:	f000 839e 	beq.w	4062a8 <_dtoa_r+0xae0>
  405b6c:	9804      	ldr	r0, [sp, #16]
  405b6e:	601d      	str	r5, [r3, #0]
  405b70:	b01b      	add	sp, #108	; 0x6c
  405b72:	e8bd 8ff0 	ldmia.w	sp!, {r4, r5, r6, r7, r8, r9, sl, fp, pc}
  405b76:	9a0b      	ldr	r2, [sp, #44]	; 0x2c
  405b78:	2a00      	cmp	r2, #0
  405b7a:	d03e      	beq.n	405bfa <_dtoa_r+0x432>
  405b7c:	9a24      	ldr	r2, [sp, #144]	; 0x90
  405b7e:	2a01      	cmp	r2, #1
  405b80:	f340 8311 	ble.w	4061a6 <_dtoa_r+0x9de>
  405b84:	9b0a      	ldr	r3, [sp, #40]	; 0x28
  405b86:	9a0c      	ldr	r2, [sp, #48]	; 0x30
  405b88:	1e5f      	subs	r7, r3, #1
  405b8a:	42ba      	cmp	r2, r7
  405b8c:	f2c0 838f 	blt.w	4062ae <_dtoa_r+0xae6>
  405b90:	1bd7      	subs	r7, r2, r7
  405b92:	9b0a      	ldr	r3, [sp, #40]	; 0x28
  405b94:	2b00      	cmp	r3, #0
  405b96:	f2c0 848b 	blt.w	4064b0 <_dtoa_r+0xce8>
  405b9a:	9d08      	ldr	r5, [sp, #32]
  405b9c:	9b0a      	ldr	r3, [sp, #40]	; 0x28
  405b9e:	9a08      	ldr	r2, [sp, #32]
  405ba0:	441a      	add	r2, r3
  405ba2:	9208      	str	r2, [sp, #32]
  405ba4:	9a06      	ldr	r2, [sp, #24]
  405ba6:	2101      	movs	r1, #1
  405ba8:	441a      	add	r2, r3
  405baa:	4620      	mov	r0, r4
  405bac:	9206      	str	r2, [sp, #24]
  405bae:	f001 fb5b 	bl	407268 <__i2b>
  405bb2:	4606      	mov	r6, r0
  405bb4:	e024      	b.n	405c00 <_dtoa_r+0x438>
  405bb6:	2301      	movs	r3, #1
  405bb8:	930e      	str	r3, [sp, #56]	; 0x38
  405bba:	e6af      	b.n	40591c <_dtoa_r+0x154>
  405bbc:	9a08      	ldr	r2, [sp, #32]
  405bbe:	9b02      	ldr	r3, [sp, #8]
  405bc0:	1ad2      	subs	r2, r2, r3
  405bc2:	425b      	negs	r3, r3
  405bc4:	930c      	str	r3, [sp, #48]	; 0x30
  405bc6:	2300      	movs	r3, #0
  405bc8:	9208      	str	r2, [sp, #32]
  405bca:	930d      	str	r3, [sp, #52]	; 0x34
  405bcc:	e6b8      	b.n	405940 <_dtoa_r+0x178>
  405bce:	f1c7 0301 	rsb	r3, r7, #1
  405bd2:	9308      	str	r3, [sp, #32]
  405bd4:	2300      	movs	r3, #0
  405bd6:	9306      	str	r3, [sp, #24]
  405bd8:	e6a7      	b.n	40592a <_dtoa_r+0x162>
  405bda:	9d02      	ldr	r5, [sp, #8]
  405bdc:	4628      	mov	r0, r5
  405bde:	f002 fba9 	bl	408334 <__aeabi_i2d>
  405be2:	4602      	mov	r2, r0
  405be4:	460b      	mov	r3, r1
  405be6:	e9dd 0104 	ldrd	r0, r1, [sp, #16]
  405bea:	f002 fe71 	bl	4088d0 <__aeabi_dcmpeq>
  405bee:	2800      	cmp	r0, #0
  405bf0:	f47f ae80 	bne.w	4058f4 <_dtoa_r+0x12c>
  405bf4:	1e6b      	subs	r3, r5, #1
  405bf6:	9302      	str	r3, [sp, #8]
  405bf8:	e67c      	b.n	4058f4 <_dtoa_r+0x12c>
  405bfa:	9f0c      	ldr	r7, [sp, #48]	; 0x30
  405bfc:	9d08      	ldr	r5, [sp, #32]
  405bfe:	9e0b      	ldr	r6, [sp, #44]	; 0x2c
  405c00:	2d00      	cmp	r5, #0
  405c02:	dd0c      	ble.n	405c1e <_dtoa_r+0x456>
  405c04:	9906      	ldr	r1, [sp, #24]
  405c06:	2900      	cmp	r1, #0
  405c08:	460b      	mov	r3, r1
  405c0a:	dd08      	ble.n	405c1e <_dtoa_r+0x456>
  405c0c:	42a9      	cmp	r1, r5
  405c0e:	9a08      	ldr	r2, [sp, #32]
  405c10:	bfa8      	it	ge
  405c12:	462b      	movge	r3, r5
  405c14:	1ad2      	subs	r2, r2, r3
  405c16:	1aed      	subs	r5, r5, r3
  405c18:	1acb      	subs	r3, r1, r3
  405c1a:	9208      	str	r2, [sp, #32]
  405c1c:	9306      	str	r3, [sp, #24]
  405c1e:	9b0c      	ldr	r3, [sp, #48]	; 0x30
  405c20:	b1d3      	cbz	r3, 405c58 <_dtoa_r+0x490>
  405c22:	9b0b      	ldr	r3, [sp, #44]	; 0x2c
  405c24:	2b00      	cmp	r3, #0
  405c26:	f000 82b7 	beq.w	406198 <_dtoa_r+0x9d0>
  405c2a:	2f00      	cmp	r7, #0
  405c2c:	dd10      	ble.n	405c50 <_dtoa_r+0x488>
  405c2e:	4631      	mov	r1, r6
  405c30:	463a      	mov	r2, r7
  405c32:	4620      	mov	r0, r4
  405c34:	f001 fbb4 	bl	4073a0 <__pow5mult>
  405c38:	464a      	mov	r2, r9
  405c3a:	4601      	mov	r1, r0
  405c3c:	4606      	mov	r6, r0
  405c3e:	4620      	mov	r0, r4
  405c40:	f001 fb1c 	bl	40727c <__multiply>
  405c44:	4649      	mov	r1, r9
  405c46:	4680      	mov	r8, r0
  405c48:	4620      	mov	r0, r4
  405c4a:	f001 fa73 	bl	407134 <_Bfree>
  405c4e:	46c1      	mov	r9, r8
  405c50:	9b0c      	ldr	r3, [sp, #48]	; 0x30
  405c52:	1bda      	subs	r2, r3, r7
  405c54:	f040 82a1 	bne.w	40619a <_dtoa_r+0x9d2>
  405c58:	2101      	movs	r1, #1
  405c5a:	4620      	mov	r0, r4
  405c5c:	f001 fb04 	bl	407268 <__i2b>
  405c60:	9b0d      	ldr	r3, [sp, #52]	; 0x34
  405c62:	2b00      	cmp	r3, #0
  405c64:	4680      	mov	r8, r0
  405c66:	dd1c      	ble.n	405ca2 <_dtoa_r+0x4da>
  405c68:	4601      	mov	r1, r0
  405c6a:	461a      	mov	r2, r3
  405c6c:	4620      	mov	r0, r4
  405c6e:	f001 fb97 	bl	4073a0 <__pow5mult>
  405c72:	9b24      	ldr	r3, [sp, #144]	; 0x90
  405c74:	2b01      	cmp	r3, #1
  405c76:	4680      	mov	r8, r0
  405c78:	f340 8254 	ble.w	406124 <_dtoa_r+0x95c>
  405c7c:	2300      	movs	r3, #0
  405c7e:	930c      	str	r3, [sp, #48]	; 0x30
  405c80:	f8d8 3010 	ldr.w	r3, [r8, #16]
  405c84:	eb08 0383 	add.w	r3, r8, r3, lsl #2
  405c88:	6918      	ldr	r0, [r3, #16]
  405c8a:	f001 fa9d 	bl	4071c8 <__hi0bits>
  405c8e:	f1c0 0020 	rsb	r0, r0, #32
  405c92:	e010      	b.n	405cb6 <_dtoa_r+0x4ee>
  405c94:	f1c3 0520 	rsb	r5, r3, #32
  405c98:	fa0a f005 	lsl.w	r0, sl, r5
  405c9c:	e674      	b.n	405988 <_dtoa_r+0x1c0>
  405c9e:	900e      	str	r0, [sp, #56]	; 0x38
  405ca0:	e63c      	b.n	40591c <_dtoa_r+0x154>
  405ca2:	9b24      	ldr	r3, [sp, #144]	; 0x90
  405ca4:	2b01      	cmp	r3, #1
  405ca6:	f340 8287 	ble.w	4061b8 <_dtoa_r+0x9f0>
  405caa:	2300      	movs	r3, #0
  405cac:	930c      	str	r3, [sp, #48]	; 0x30
  405cae:	9b0d      	ldr	r3, [sp, #52]	; 0x34
  405cb0:	2001      	movs	r0, #1
  405cb2:	2b00      	cmp	r3, #0
  405cb4:	d1e4      	bne.n	405c80 <_dtoa_r+0x4b8>
  405cb6:	9a06      	ldr	r2, [sp, #24]
  405cb8:	4410      	add	r0, r2
  405cba:	f010 001f 	ands.w	r0, r0, #31
  405cbe:	f000 80a1 	beq.w	405e04 <_dtoa_r+0x63c>
  405cc2:	f1c0 0320 	rsb	r3, r0, #32
  405cc6:	2b04      	cmp	r3, #4
  405cc8:	f340 849e 	ble.w	406608 <_dtoa_r+0xe40>
  405ccc:	9b08      	ldr	r3, [sp, #32]
  405cce:	f1c0 001c 	rsb	r0, r0, #28
  405cd2:	4403      	add	r3, r0
  405cd4:	9308      	str	r3, [sp, #32]
  405cd6:	4613      	mov	r3, r2
  405cd8:	4403      	add	r3, r0
  405cda:	4405      	add	r5, r0
  405cdc:	9306      	str	r3, [sp, #24]
  405cde:	9b08      	ldr	r3, [sp, #32]
  405ce0:	2b00      	cmp	r3, #0
  405ce2:	dd05      	ble.n	405cf0 <_dtoa_r+0x528>
  405ce4:	4649      	mov	r1, r9
  405ce6:	461a      	mov	r2, r3
  405ce8:	4620      	mov	r0, r4
  405cea:	f001 fba9 	bl	407440 <__lshift>
  405cee:	4681      	mov	r9, r0
  405cf0:	9b06      	ldr	r3, [sp, #24]
  405cf2:	2b00      	cmp	r3, #0
  405cf4:	dd05      	ble.n	405d02 <_dtoa_r+0x53a>
  405cf6:	4641      	mov	r1, r8
  405cf8:	461a      	mov	r2, r3
  405cfa:	4620      	mov	r0, r4
  405cfc:	f001 fba0 	bl	407440 <__lshift>
  405d00:	4680      	mov	r8, r0
  405d02:	9b0e      	ldr	r3, [sp, #56]	; 0x38
  405d04:	2b00      	cmp	r3, #0
  405d06:	f040 8086 	bne.w	405e16 <_dtoa_r+0x64e>
  405d0a:	9b0a      	ldr	r3, [sp, #40]	; 0x28
  405d0c:	2b00      	cmp	r3, #0
  405d0e:	f340 8266 	ble.w	4061de <_dtoa_r+0xa16>
  405d12:	9b0b      	ldr	r3, [sp, #44]	; 0x2c
  405d14:	2b00      	cmp	r3, #0
  405d16:	f000 8098 	beq.w	405e4a <_dtoa_r+0x682>
  405d1a:	2d00      	cmp	r5, #0
  405d1c:	dd05      	ble.n	405d2a <_dtoa_r+0x562>
  405d1e:	4631      	mov	r1, r6
  405d20:	462a      	mov	r2, r5
  405d22:	4620      	mov	r0, r4
  405d24:	f001 fb8c 	bl	407440 <__lshift>
  405d28:	4606      	mov	r6, r0
  405d2a:	9b0c      	ldr	r3, [sp, #48]	; 0x30
  405d2c:	2b00      	cmp	r3, #0
  405d2e:	f040 8337 	bne.w	4063a0 <_dtoa_r+0xbd8>
  405d32:	9606      	str	r6, [sp, #24]
  405d34:	9b0a      	ldr	r3, [sp, #40]	; 0x28
  405d36:	9a04      	ldr	r2, [sp, #16]
  405d38:	f8dd b018 	ldr.w	fp, [sp, #24]
  405d3c:	3b01      	subs	r3, #1
  405d3e:	18d3      	adds	r3, r2, r3
  405d40:	930b      	str	r3, [sp, #44]	; 0x2c
  405d42:	f00a 0301 	and.w	r3, sl, #1
  405d46:	930c      	str	r3, [sp, #48]	; 0x30
  405d48:	4617      	mov	r7, r2
  405d4a:	46c2      	mov	sl, r8
  405d4c:	4651      	mov	r1, sl
  405d4e:	4648      	mov	r0, r9
  405d50:	f7ff fca6 	bl	4056a0 <quorem>
  405d54:	4631      	mov	r1, r6
  405d56:	4605      	mov	r5, r0
  405d58:	4648      	mov	r0, r9
  405d5a:	f001 fbc3 	bl	4074e4 <__mcmp>
  405d5e:	465a      	mov	r2, fp
  405d60:	900a      	str	r0, [sp, #40]	; 0x28
  405d62:	4651      	mov	r1, sl
  405d64:	4620      	mov	r0, r4
  405d66:	f001 fbd9 	bl	40751c <__mdiff>
  405d6a:	68c2      	ldr	r2, [r0, #12]
  405d6c:	4680      	mov	r8, r0
  405d6e:	f105 0330 	add.w	r3, r5, #48	; 0x30
  405d72:	2a00      	cmp	r2, #0
  405d74:	f040 822b 	bne.w	4061ce <_dtoa_r+0xa06>
  405d78:	4601      	mov	r1, r0
  405d7a:	4648      	mov	r0, r9
  405d7c:	9308      	str	r3, [sp, #32]
  405d7e:	f001 fbb1 	bl	4074e4 <__mcmp>
  405d82:	4641      	mov	r1, r8
  405d84:	9006      	str	r0, [sp, #24]
  405d86:	4620      	mov	r0, r4
  405d88:	f001 f9d4 	bl	407134 <_Bfree>
  405d8c:	9a06      	ldr	r2, [sp, #24]
  405d8e:	9b08      	ldr	r3, [sp, #32]
  405d90:	b932      	cbnz	r2, 405da0 <_dtoa_r+0x5d8>
  405d92:	9924      	ldr	r1, [sp, #144]	; 0x90
  405d94:	b921      	cbnz	r1, 405da0 <_dtoa_r+0x5d8>
  405d96:	9a0c      	ldr	r2, [sp, #48]	; 0x30
  405d98:	2a00      	cmp	r2, #0
  405d9a:	f000 83ef 	beq.w	40657c <_dtoa_r+0xdb4>
  405d9e:	9a24      	ldr	r2, [sp, #144]	; 0x90
  405da0:	990a      	ldr	r1, [sp, #40]	; 0x28
  405da2:	2900      	cmp	r1, #0
  405da4:	f2c0 829f 	blt.w	4062e6 <_dtoa_r+0xb1e>
  405da8:	d105      	bne.n	405db6 <_dtoa_r+0x5ee>
  405daa:	9924      	ldr	r1, [sp, #144]	; 0x90
  405dac:	b919      	cbnz	r1, 405db6 <_dtoa_r+0x5ee>
  405dae:	990c      	ldr	r1, [sp, #48]	; 0x30
  405db0:	2900      	cmp	r1, #0
  405db2:	f000 8298 	beq.w	4062e6 <_dtoa_r+0xb1e>
  405db6:	2a00      	cmp	r2, #0
  405db8:	f300 8306 	bgt.w	4063c8 <_dtoa_r+0xc00>
  405dbc:	9a0b      	ldr	r2, [sp, #44]	; 0x2c
  405dbe:	703b      	strb	r3, [r7, #0]
  405dc0:	f107 0801 	add.w	r8, r7, #1
  405dc4:	4297      	cmp	r7, r2
  405dc6:	4645      	mov	r5, r8
  405dc8:	f000 830c 	beq.w	4063e4 <_dtoa_r+0xc1c>
  405dcc:	4649      	mov	r1, r9
  405dce:	2300      	movs	r3, #0
  405dd0:	220a      	movs	r2, #10
  405dd2:	4620      	mov	r0, r4
  405dd4:	f001 f9b8 	bl	407148 <__multadd>
  405dd8:	455e      	cmp	r6, fp
  405dda:	4681      	mov	r9, r0
  405ddc:	4631      	mov	r1, r6
  405dde:	f04f 0300 	mov.w	r3, #0
  405de2:	f04f 020a 	mov.w	r2, #10
  405de6:	4620      	mov	r0, r4
  405de8:	f000 81eb 	beq.w	4061c2 <_dtoa_r+0x9fa>
  405dec:	f001 f9ac 	bl	407148 <__multadd>
  405df0:	4659      	mov	r1, fp
  405df2:	4606      	mov	r6, r0
  405df4:	2300      	movs	r3, #0
  405df6:	220a      	movs	r2, #10
  405df8:	4620      	mov	r0, r4
  405dfa:	f001 f9a5 	bl	407148 <__multadd>
  405dfe:	4647      	mov	r7, r8
  405e00:	4683      	mov	fp, r0
  405e02:	e7a3      	b.n	405d4c <_dtoa_r+0x584>
  405e04:	201c      	movs	r0, #28
  405e06:	9b08      	ldr	r3, [sp, #32]
  405e08:	4403      	add	r3, r0
  405e0a:	9308      	str	r3, [sp, #32]
  405e0c:	9b06      	ldr	r3, [sp, #24]
  405e0e:	4403      	add	r3, r0
  405e10:	4405      	add	r5, r0
  405e12:	9306      	str	r3, [sp, #24]
  405e14:	e763      	b.n	405cde <_dtoa_r+0x516>
  405e16:	4641      	mov	r1, r8
  405e18:	4648      	mov	r0, r9
  405e1a:	f001 fb63 	bl	4074e4 <__mcmp>
  405e1e:	2800      	cmp	r0, #0
  405e20:	f6bf af73 	bge.w	405d0a <_dtoa_r+0x542>
  405e24:	9f02      	ldr	r7, [sp, #8]
  405e26:	4649      	mov	r1, r9
  405e28:	2300      	movs	r3, #0
  405e2a:	220a      	movs	r2, #10
  405e2c:	4620      	mov	r0, r4
  405e2e:	3f01      	subs	r7, #1
  405e30:	9702      	str	r7, [sp, #8]
  405e32:	f001 f989 	bl	407148 <__multadd>
  405e36:	9b0b      	ldr	r3, [sp, #44]	; 0x2c
  405e38:	4681      	mov	r9, r0
  405e3a:	2b00      	cmp	r3, #0
  405e3c:	f040 83b6 	bne.w	4065ac <_dtoa_r+0xde4>
  405e40:	9b0f      	ldr	r3, [sp, #60]	; 0x3c
  405e42:	2b00      	cmp	r3, #0
  405e44:	f340 83bf 	ble.w	4065c6 <_dtoa_r+0xdfe>
  405e48:	930a      	str	r3, [sp, #40]	; 0x28
  405e4a:	f8dd b010 	ldr.w	fp, [sp, #16]
  405e4e:	9f0a      	ldr	r7, [sp, #40]	; 0x28
  405e50:	465d      	mov	r5, fp
  405e52:	e002      	b.n	405e5a <_dtoa_r+0x692>
  405e54:	f001 f978 	bl	407148 <__multadd>
  405e58:	4681      	mov	r9, r0
  405e5a:	4641      	mov	r1, r8
  405e5c:	4648      	mov	r0, r9
  405e5e:	f7ff fc1f 	bl	4056a0 <quorem>
  405e62:	f100 0a30 	add.w	sl, r0, #48	; 0x30
  405e66:	f805 ab01 	strb.w	sl, [r5], #1
  405e6a:	eba5 030b 	sub.w	r3, r5, fp
  405e6e:	42bb      	cmp	r3, r7
  405e70:	f04f 020a 	mov.w	r2, #10
  405e74:	f04f 0300 	mov.w	r3, #0
  405e78:	4649      	mov	r1, r9
  405e7a:	4620      	mov	r0, r4
  405e7c:	dbea      	blt.n	405e54 <_dtoa_r+0x68c>
  405e7e:	9b04      	ldr	r3, [sp, #16]
  405e80:	9a0a      	ldr	r2, [sp, #40]	; 0x28
  405e82:	2a01      	cmp	r2, #1
  405e84:	bfac      	ite	ge
  405e86:	189b      	addge	r3, r3, r2
  405e88:	3301      	addlt	r3, #1
  405e8a:	461d      	mov	r5, r3
  405e8c:	f04f 0b00 	mov.w	fp, #0
  405e90:	4649      	mov	r1, r9
  405e92:	2201      	movs	r2, #1
  405e94:	4620      	mov	r0, r4
  405e96:	f001 fad3 	bl	407440 <__lshift>
  405e9a:	4641      	mov	r1, r8
  405e9c:	4681      	mov	r9, r0
  405e9e:	f001 fb21 	bl	4074e4 <__mcmp>
  405ea2:	2800      	cmp	r0, #0
  405ea4:	f340 823d 	ble.w	406322 <_dtoa_r+0xb5a>
  405ea8:	f815 2c01 	ldrb.w	r2, [r5, #-1]
  405eac:	9904      	ldr	r1, [sp, #16]
  405eae:	1e6b      	subs	r3, r5, #1
  405eb0:	e004      	b.n	405ebc <_dtoa_r+0x6f4>
  405eb2:	428b      	cmp	r3, r1
  405eb4:	f000 81ae 	beq.w	406214 <_dtoa_r+0xa4c>
  405eb8:	f813 2d01 	ldrb.w	r2, [r3, #-1]!
  405ebc:	2a39      	cmp	r2, #57	; 0x39
  405ebe:	f103 0501 	add.w	r5, r3, #1
  405ec2:	d0f6      	beq.n	405eb2 <_dtoa_r+0x6ea>
  405ec4:	3201      	adds	r2, #1
  405ec6:	701a      	strb	r2, [r3, #0]
  405ec8:	4641      	mov	r1, r8
  405eca:	4620      	mov	r0, r4
  405ecc:	f001 f932 	bl	407134 <_Bfree>
  405ed0:	2e00      	cmp	r6, #0
  405ed2:	f43f ae3d 	beq.w	405b50 <_dtoa_r+0x388>
  405ed6:	f1bb 0f00 	cmp.w	fp, #0
  405eda:	d005      	beq.n	405ee8 <_dtoa_r+0x720>
  405edc:	45b3      	cmp	fp, r6
  405ede:	d003      	beq.n	405ee8 <_dtoa_r+0x720>
  405ee0:	4659      	mov	r1, fp
  405ee2:	4620      	mov	r0, r4
  405ee4:	f001 f926 	bl	407134 <_Bfree>
  405ee8:	4631      	mov	r1, r6
  405eea:	4620      	mov	r0, r4
  405eec:	f001 f922 	bl	407134 <_Bfree>
  405ef0:	e62e      	b.n	405b50 <_dtoa_r+0x388>
  405ef2:	2300      	movs	r3, #0
  405ef4:	930b      	str	r3, [sp, #44]	; 0x2c
  405ef6:	9b02      	ldr	r3, [sp, #8]
  405ef8:	9a25      	ldr	r2, [sp, #148]	; 0x94
  405efa:	4413      	add	r3, r2
  405efc:	930f      	str	r3, [sp, #60]	; 0x3c
  405efe:	3301      	adds	r3, #1
  405f00:	2b01      	cmp	r3, #1
  405f02:	461f      	mov	r7, r3
  405f04:	461e      	mov	r6, r3
  405f06:	930a      	str	r3, [sp, #40]	; 0x28
  405f08:	bfb8      	it	lt
  405f0a:	2701      	movlt	r7, #1
  405f0c:	2100      	movs	r1, #0
  405f0e:	2f17      	cmp	r7, #23
  405f10:	6461      	str	r1, [r4, #68]	; 0x44
  405f12:	d90a      	bls.n	405f2a <_dtoa_r+0x762>
  405f14:	2201      	movs	r2, #1
  405f16:	2304      	movs	r3, #4
  405f18:	005b      	lsls	r3, r3, #1
  405f1a:	f103 0014 	add.w	r0, r3, #20
  405f1e:	4287      	cmp	r7, r0
  405f20:	4611      	mov	r1, r2
  405f22:	f102 0201 	add.w	r2, r2, #1
  405f26:	d2f7      	bcs.n	405f18 <_dtoa_r+0x750>
  405f28:	6461      	str	r1, [r4, #68]	; 0x44
  405f2a:	4620      	mov	r0, r4
  405f2c:	f001 f8dc 	bl	4070e8 <_Balloc>
  405f30:	2e0e      	cmp	r6, #14
  405f32:	9004      	str	r0, [sp, #16]
  405f34:	6420      	str	r0, [r4, #64]	; 0x40
  405f36:	f63f ad41 	bhi.w	4059bc <_dtoa_r+0x1f4>
  405f3a:	2d00      	cmp	r5, #0
  405f3c:	f43f ad3e 	beq.w	4059bc <_dtoa_r+0x1f4>
  405f40:	9902      	ldr	r1, [sp, #8]
  405f42:	2900      	cmp	r1, #0
  405f44:	e9cd ab10 	strd	sl, fp, [sp, #64]	; 0x40
  405f48:	f340 8202 	ble.w	406350 <_dtoa_r+0xb88>
  405f4c:	4bb8      	ldr	r3, [pc, #736]	; (406230 <_dtoa_r+0xa68>)
  405f4e:	f001 020f 	and.w	r2, r1, #15
  405f52:	110d      	asrs	r5, r1, #4
  405f54:	eb03 03c2 	add.w	r3, r3, r2, lsl #3
  405f58:	06e9      	lsls	r1, r5, #27
  405f5a:	e9d3 6700 	ldrd	r6, r7, [r3]
  405f5e:	f140 81ae 	bpl.w	4062be <_dtoa_r+0xaf6>
  405f62:	4bb4      	ldr	r3, [pc, #720]	; (406234 <_dtoa_r+0xa6c>)
  405f64:	4650      	mov	r0, sl
  405f66:	4659      	mov	r1, fp
  405f68:	e9d3 2308 	ldrd	r2, r3, [r3, #32]
  405f6c:	f002 fb72 	bl	408654 <__aeabi_ddiv>
  405f70:	e9cd 0112 	strd	r0, r1, [sp, #72]	; 0x48
  405f74:	f005 050f 	and.w	r5, r5, #15
  405f78:	f04f 0a03 	mov.w	sl, #3
  405f7c:	b18d      	cbz	r5, 405fa2 <_dtoa_r+0x7da>
  405f7e:	f8df 82b4 	ldr.w	r8, [pc, #692]	; 406234 <_dtoa_r+0xa6c>
  405f82:	07ea      	lsls	r2, r5, #31
  405f84:	d509      	bpl.n	405f9a <_dtoa_r+0x7d2>
  405f86:	4630      	mov	r0, r6
  405f88:	4639      	mov	r1, r7
  405f8a:	e9d8 2300 	ldrd	r2, r3, [r8]
  405f8e:	f002 fa37 	bl	408400 <__aeabi_dmul>
  405f92:	f10a 0a01 	add.w	sl, sl, #1
  405f96:	4606      	mov	r6, r0
  405f98:	460f      	mov	r7, r1
  405f9a:	106d      	asrs	r5, r5, #1
  405f9c:	f108 0808 	add.w	r8, r8, #8
  405fa0:	d1ef      	bne.n	405f82 <_dtoa_r+0x7ba>
  405fa2:	463b      	mov	r3, r7
  405fa4:	4632      	mov	r2, r6
  405fa6:	e9dd 0112 	ldrd	r0, r1, [sp, #72]	; 0x48
  405faa:	f002 fb53 	bl	408654 <__aeabi_ddiv>
  405fae:	4607      	mov	r7, r0
  405fb0:	4688      	mov	r8, r1
  405fb2:	9b0e      	ldr	r3, [sp, #56]	; 0x38
  405fb4:	b143      	cbz	r3, 405fc8 <_dtoa_r+0x800>
  405fb6:	2200      	movs	r2, #0
  405fb8:	4b9f      	ldr	r3, [pc, #636]	; (406238 <_dtoa_r+0xa70>)
  405fba:	4638      	mov	r0, r7
  405fbc:	4641      	mov	r1, r8
  405fbe:	f002 fc91 	bl	4088e4 <__aeabi_dcmplt>
  405fc2:	2800      	cmp	r0, #0
  405fc4:	f040 8286 	bne.w	4064d4 <_dtoa_r+0xd0c>
  405fc8:	4650      	mov	r0, sl
  405fca:	f002 f9b3 	bl	408334 <__aeabi_i2d>
  405fce:	463a      	mov	r2, r7
  405fd0:	4643      	mov	r3, r8
  405fd2:	f002 fa15 	bl	408400 <__aeabi_dmul>
  405fd6:	4b99      	ldr	r3, [pc, #612]	; (40623c <_dtoa_r+0xa74>)
  405fd8:	2200      	movs	r2, #0
  405fda:	f002 f85f 	bl	40809c <__adddf3>
  405fde:	9b0a      	ldr	r3, [sp, #40]	; 0x28
  405fe0:	4605      	mov	r5, r0
  405fe2:	f1a1 7650 	sub.w	r6, r1, #54525952	; 0x3400000
  405fe6:	2b00      	cmp	r3, #0
  405fe8:	f000 813e 	beq.w	406268 <_dtoa_r+0xaa0>
  405fec:	9b02      	ldr	r3, [sp, #8]
  405fee:	9315      	str	r3, [sp, #84]	; 0x54
  405ff0:	9b0a      	ldr	r3, [sp, #40]	; 0x28
  405ff2:	9312      	str	r3, [sp, #72]	; 0x48
  405ff4:	9b0b      	ldr	r3, [sp, #44]	; 0x2c
  405ff6:	2b00      	cmp	r3, #0
  405ff8:	f000 81fa 	beq.w	4063f0 <_dtoa_r+0xc28>
  405ffc:	9a12      	ldr	r2, [sp, #72]	; 0x48
  405ffe:	4b8c      	ldr	r3, [pc, #560]	; (406230 <_dtoa_r+0xa68>)
  406000:	498f      	ldr	r1, [pc, #572]	; (406240 <_dtoa_r+0xa78>)
  406002:	eb03 03c2 	add.w	r3, r3, r2, lsl #3
  406006:	e953 2302 	ldrd	r2, r3, [r3, #-8]
  40600a:	2000      	movs	r0, #0
  40600c:	f002 fb22 	bl	408654 <__aeabi_ddiv>
  406010:	462a      	mov	r2, r5
  406012:	4633      	mov	r3, r6
  406014:	f002 f840 	bl	408098 <__aeabi_dsub>
  406018:	4682      	mov	sl, r0
  40601a:	468b      	mov	fp, r1
  40601c:	4638      	mov	r0, r7
  40601e:	4641      	mov	r1, r8
  406020:	f002 fc9e 	bl	408960 <__aeabi_d2iz>
  406024:	4605      	mov	r5, r0
  406026:	f002 f985 	bl	408334 <__aeabi_i2d>
  40602a:	4602      	mov	r2, r0
  40602c:	460b      	mov	r3, r1
  40602e:	4638      	mov	r0, r7
  406030:	4641      	mov	r1, r8
  406032:	f002 f831 	bl	408098 <__aeabi_dsub>
  406036:	3530      	adds	r5, #48	; 0x30
  406038:	fa5f f885 	uxtb.w	r8, r5
  40603c:	9d04      	ldr	r5, [sp, #16]
  40603e:	4606      	mov	r6, r0
  406040:	460f      	mov	r7, r1
  406042:	f885 8000 	strb.w	r8, [r5]
  406046:	4602      	mov	r2, r0
  406048:	460b      	mov	r3, r1
  40604a:	4650      	mov	r0, sl
  40604c:	4659      	mov	r1, fp
  40604e:	3501      	adds	r5, #1
  406050:	f002 fc66 	bl	408920 <__aeabi_dcmpgt>
  406054:	2800      	cmp	r0, #0
  406056:	d154      	bne.n	406102 <_dtoa_r+0x93a>
  406058:	4632      	mov	r2, r6
  40605a:	463b      	mov	r3, r7
  40605c:	2000      	movs	r0, #0
  40605e:	4976      	ldr	r1, [pc, #472]	; (406238 <_dtoa_r+0xa70>)
  406060:	f002 f81a 	bl	408098 <__aeabi_dsub>
  406064:	4602      	mov	r2, r0
  406066:	460b      	mov	r3, r1
  406068:	4650      	mov	r0, sl
  40606a:	4659      	mov	r1, fp
  40606c:	f002 fc58 	bl	408920 <__aeabi_dcmpgt>
  406070:	2800      	cmp	r0, #0
  406072:	f040 8270 	bne.w	406556 <_dtoa_r+0xd8e>
  406076:	9a12      	ldr	r2, [sp, #72]	; 0x48
  406078:	2a01      	cmp	r2, #1
  40607a:	f000 8111 	beq.w	4062a0 <_dtoa_r+0xad8>
  40607e:	9b12      	ldr	r3, [sp, #72]	; 0x48
  406080:	9a04      	ldr	r2, [sp, #16]
  406082:	f8cd 9048 	str.w	r9, [sp, #72]	; 0x48
  406086:	4413      	add	r3, r2
  406088:	4699      	mov	r9, r3
  40608a:	e00d      	b.n	4060a8 <_dtoa_r+0x8e0>
  40608c:	2000      	movs	r0, #0
  40608e:	496a      	ldr	r1, [pc, #424]	; (406238 <_dtoa_r+0xa70>)
  406090:	f002 f802 	bl	408098 <__aeabi_dsub>
  406094:	4652      	mov	r2, sl
  406096:	465b      	mov	r3, fp
  406098:	f002 fc24 	bl	4088e4 <__aeabi_dcmplt>
  40609c:	2800      	cmp	r0, #0
  40609e:	f040 8258 	bne.w	406552 <_dtoa_r+0xd8a>
  4060a2:	454d      	cmp	r5, r9
  4060a4:	f000 80fa 	beq.w	40629c <_dtoa_r+0xad4>
  4060a8:	4650      	mov	r0, sl
  4060aa:	4659      	mov	r1, fp
  4060ac:	2200      	movs	r2, #0
  4060ae:	4b65      	ldr	r3, [pc, #404]	; (406244 <_dtoa_r+0xa7c>)
  4060b0:	f002 f9a6 	bl	408400 <__aeabi_dmul>
  4060b4:	2200      	movs	r2, #0
  4060b6:	4b63      	ldr	r3, [pc, #396]	; (406244 <_dtoa_r+0xa7c>)
  4060b8:	4682      	mov	sl, r0
  4060ba:	468b      	mov	fp, r1
  4060bc:	4630      	mov	r0, r6
  4060be:	4639      	mov	r1, r7
  4060c0:	f002 f99e 	bl	408400 <__aeabi_dmul>
  4060c4:	460f      	mov	r7, r1
  4060c6:	4606      	mov	r6, r0
  4060c8:	f002 fc4a 	bl	408960 <__aeabi_d2iz>
  4060cc:	4680      	mov	r8, r0
  4060ce:	f002 f931 	bl	408334 <__aeabi_i2d>
  4060d2:	4602      	mov	r2, r0
  4060d4:	460b      	mov	r3, r1
  4060d6:	4630      	mov	r0, r6
  4060d8:	4639      	mov	r1, r7
  4060da:	f001 ffdd 	bl	408098 <__aeabi_dsub>
  4060de:	f108 0830 	add.w	r8, r8, #48	; 0x30
  4060e2:	fa5f f888 	uxtb.w	r8, r8
  4060e6:	4652      	mov	r2, sl
  4060e8:	465b      	mov	r3, fp
  4060ea:	f805 8b01 	strb.w	r8, [r5], #1
  4060ee:	4606      	mov	r6, r0
  4060f0:	460f      	mov	r7, r1
  4060f2:	f002 fbf7 	bl	4088e4 <__aeabi_dcmplt>
  4060f6:	4632      	mov	r2, r6
  4060f8:	463b      	mov	r3, r7
  4060fa:	2800      	cmp	r0, #0
  4060fc:	d0c6      	beq.n	40608c <_dtoa_r+0x8c4>
  4060fe:	f8dd 9048 	ldr.w	r9, [sp, #72]	; 0x48
  406102:	9b15      	ldr	r3, [sp, #84]	; 0x54
  406104:	9302      	str	r3, [sp, #8]
  406106:	e523      	b.n	405b50 <_dtoa_r+0x388>
  406108:	2300      	movs	r3, #0
  40610a:	930b      	str	r3, [sp, #44]	; 0x2c
  40610c:	9b25      	ldr	r3, [sp, #148]	; 0x94
  40610e:	2b00      	cmp	r3, #0
  406110:	f340 80dc 	ble.w	4062cc <_dtoa_r+0xb04>
  406114:	461f      	mov	r7, r3
  406116:	461e      	mov	r6, r3
  406118:	930f      	str	r3, [sp, #60]	; 0x3c
  40611a:	930a      	str	r3, [sp, #40]	; 0x28
  40611c:	e6f6      	b.n	405f0c <_dtoa_r+0x744>
  40611e:	2301      	movs	r3, #1
  406120:	930b      	str	r3, [sp, #44]	; 0x2c
  406122:	e7f3      	b.n	40610c <_dtoa_r+0x944>
  406124:	f1ba 0f00 	cmp.w	sl, #0
  406128:	f47f ada8 	bne.w	405c7c <_dtoa_r+0x4b4>
  40612c:	f3cb 0313 	ubfx	r3, fp, #0, #20
  406130:	2b00      	cmp	r3, #0
  406132:	f47f adba 	bne.w	405caa <_dtoa_r+0x4e2>
  406136:	f02b 4700 	bic.w	r7, fp, #2147483648	; 0x80000000
  40613a:	0d3f      	lsrs	r7, r7, #20
  40613c:	053f      	lsls	r7, r7, #20
  40613e:	2f00      	cmp	r7, #0
  406140:	f000 820d 	beq.w	40655e <_dtoa_r+0xd96>
  406144:	9b08      	ldr	r3, [sp, #32]
  406146:	3301      	adds	r3, #1
  406148:	9308      	str	r3, [sp, #32]
  40614a:	9b06      	ldr	r3, [sp, #24]
  40614c:	3301      	adds	r3, #1
  40614e:	9306      	str	r3, [sp, #24]
  406150:	2301      	movs	r3, #1
  406152:	930c      	str	r3, [sp, #48]	; 0x30
  406154:	e5ab      	b.n	405cae <_dtoa_r+0x4e6>
  406156:	9b0a      	ldr	r3, [sp, #40]	; 0x28
  406158:	2b00      	cmp	r3, #0
  40615a:	f73f ac42 	bgt.w	4059e2 <_dtoa_r+0x21a>
  40615e:	f040 8221 	bne.w	4065a4 <_dtoa_r+0xddc>
  406162:	2200      	movs	r2, #0
  406164:	4b38      	ldr	r3, [pc, #224]	; (406248 <_dtoa_r+0xa80>)
  406166:	e9dd 0108 	ldrd	r0, r1, [sp, #32]
  40616a:	f002 f949 	bl	408400 <__aeabi_dmul>
  40616e:	4652      	mov	r2, sl
  406170:	465b      	mov	r3, fp
  406172:	f002 fbcb 	bl	40890c <__aeabi_dcmpge>
  406176:	f8dd 8028 	ldr.w	r8, [sp, #40]	; 0x28
  40617a:	4646      	mov	r6, r8
  40617c:	2800      	cmp	r0, #0
  40617e:	d041      	beq.n	406204 <_dtoa_r+0xa3c>
  406180:	9b25      	ldr	r3, [sp, #148]	; 0x94
  406182:	9d04      	ldr	r5, [sp, #16]
  406184:	43db      	mvns	r3, r3
  406186:	9302      	str	r3, [sp, #8]
  406188:	4641      	mov	r1, r8
  40618a:	4620      	mov	r0, r4
  40618c:	f000 ffd2 	bl	407134 <_Bfree>
  406190:	2e00      	cmp	r6, #0
  406192:	f43f acdd 	beq.w	405b50 <_dtoa_r+0x388>
  406196:	e6a7      	b.n	405ee8 <_dtoa_r+0x720>
  406198:	9a0c      	ldr	r2, [sp, #48]	; 0x30
  40619a:	4649      	mov	r1, r9
  40619c:	4620      	mov	r0, r4
  40619e:	f001 f8ff 	bl	4073a0 <__pow5mult>
  4061a2:	4681      	mov	r9, r0
  4061a4:	e558      	b.n	405c58 <_dtoa_r+0x490>
  4061a6:	9a14      	ldr	r2, [sp, #80]	; 0x50
  4061a8:	2a00      	cmp	r2, #0
  4061aa:	f000 8187 	beq.w	4064bc <_dtoa_r+0xcf4>
  4061ae:	f203 4333 	addw	r3, r3, #1075	; 0x433
  4061b2:	9f0c      	ldr	r7, [sp, #48]	; 0x30
  4061b4:	9d08      	ldr	r5, [sp, #32]
  4061b6:	e4f2      	b.n	405b9e <_dtoa_r+0x3d6>
  4061b8:	f1ba 0f00 	cmp.w	sl, #0
  4061bc:	f47f ad75 	bne.w	405caa <_dtoa_r+0x4e2>
  4061c0:	e7b4      	b.n	40612c <_dtoa_r+0x964>
  4061c2:	f000 ffc1 	bl	407148 <__multadd>
  4061c6:	4647      	mov	r7, r8
  4061c8:	4606      	mov	r6, r0
  4061ca:	4683      	mov	fp, r0
  4061cc:	e5be      	b.n	405d4c <_dtoa_r+0x584>
  4061ce:	4601      	mov	r1, r0
  4061d0:	4620      	mov	r0, r4
  4061d2:	9306      	str	r3, [sp, #24]
  4061d4:	f000 ffae 	bl	407134 <_Bfree>
  4061d8:	2201      	movs	r2, #1
  4061da:	9b06      	ldr	r3, [sp, #24]
  4061dc:	e5e0      	b.n	405da0 <_dtoa_r+0x5d8>
  4061de:	9b24      	ldr	r3, [sp, #144]	; 0x90
  4061e0:	2b02      	cmp	r3, #2
  4061e2:	f77f ad96 	ble.w	405d12 <_dtoa_r+0x54a>
  4061e6:	9b0a      	ldr	r3, [sp, #40]	; 0x28
  4061e8:	2b00      	cmp	r3, #0
  4061ea:	d1c9      	bne.n	406180 <_dtoa_r+0x9b8>
  4061ec:	4641      	mov	r1, r8
  4061ee:	2205      	movs	r2, #5
  4061f0:	4620      	mov	r0, r4
  4061f2:	f000 ffa9 	bl	407148 <__multadd>
  4061f6:	4601      	mov	r1, r0
  4061f8:	4680      	mov	r8, r0
  4061fa:	4648      	mov	r0, r9
  4061fc:	f001 f972 	bl	4074e4 <__mcmp>
  406200:	2800      	cmp	r0, #0
  406202:	ddbd      	ble.n	406180 <_dtoa_r+0x9b8>
  406204:	9a02      	ldr	r2, [sp, #8]
  406206:	9904      	ldr	r1, [sp, #16]
  406208:	2331      	movs	r3, #49	; 0x31
  40620a:	3201      	adds	r2, #1
  40620c:	9202      	str	r2, [sp, #8]
  40620e:	700b      	strb	r3, [r1, #0]
  406210:	1c4d      	adds	r5, r1, #1
  406212:	e7b9      	b.n	406188 <_dtoa_r+0x9c0>
  406214:	9a02      	ldr	r2, [sp, #8]
  406216:	3201      	adds	r2, #1
  406218:	9202      	str	r2, [sp, #8]
  40621a:	9a04      	ldr	r2, [sp, #16]
  40621c:	2331      	movs	r3, #49	; 0x31
  40621e:	7013      	strb	r3, [r2, #0]
  406220:	e652      	b.n	405ec8 <_dtoa_r+0x700>
  406222:	2301      	movs	r3, #1
  406224:	930b      	str	r3, [sp, #44]	; 0x2c
  406226:	e666      	b.n	405ef6 <_dtoa_r+0x72e>
  406228:	f8dd 902c 	ldr.w	r9, [sp, #44]	; 0x2c
  40622c:	9c0c      	ldr	r4, [sp, #48]	; 0x30
  40622e:	e48f      	b.n	405b50 <_dtoa_r+0x388>
  406230:	00408dd8 	.word	0x00408dd8
  406234:	00408db0 	.word	0x00408db0
  406238:	3ff00000 	.word	0x3ff00000
  40623c:	401c0000 	.word	0x401c0000
  406240:	3fe00000 	.word	0x3fe00000
  406244:	40240000 	.word	0x40240000
  406248:	40140000 	.word	0x40140000
  40624c:	4650      	mov	r0, sl
  40624e:	f002 f871 	bl	408334 <__aeabi_i2d>
  406252:	463a      	mov	r2, r7
  406254:	4643      	mov	r3, r8
  406256:	f002 f8d3 	bl	408400 <__aeabi_dmul>
  40625a:	2200      	movs	r2, #0
  40625c:	4bc1      	ldr	r3, [pc, #772]	; (406564 <_dtoa_r+0xd9c>)
  40625e:	f001 ff1d 	bl	40809c <__adddf3>
  406262:	4605      	mov	r5, r0
  406264:	f1a1 7650 	sub.w	r6, r1, #54525952	; 0x3400000
  406268:	4641      	mov	r1, r8
  40626a:	2200      	movs	r2, #0
  40626c:	4bbe      	ldr	r3, [pc, #760]	; (406568 <_dtoa_r+0xda0>)
  40626e:	4638      	mov	r0, r7
  406270:	f001 ff12 	bl	408098 <__aeabi_dsub>
  406274:	462a      	mov	r2, r5
  406276:	4633      	mov	r3, r6
  406278:	4682      	mov	sl, r0
  40627a:	468b      	mov	fp, r1
  40627c:	f002 fb50 	bl	408920 <__aeabi_dcmpgt>
  406280:	4680      	mov	r8, r0
  406282:	2800      	cmp	r0, #0
  406284:	f040 8110 	bne.w	4064a8 <_dtoa_r+0xce0>
  406288:	462a      	mov	r2, r5
  40628a:	f106 4300 	add.w	r3, r6, #2147483648	; 0x80000000
  40628e:	4650      	mov	r0, sl
  406290:	4659      	mov	r1, fp
  406292:	f002 fb27 	bl	4088e4 <__aeabi_dcmplt>
  406296:	b118      	cbz	r0, 4062a0 <_dtoa_r+0xad8>
  406298:	4646      	mov	r6, r8
  40629a:	e771      	b.n	406180 <_dtoa_r+0x9b8>
  40629c:	f8dd 9048 	ldr.w	r9, [sp, #72]	; 0x48
  4062a0:	e9dd ab10 	ldrd	sl, fp, [sp, #64]	; 0x40
  4062a4:	f7ff bb8a 	b.w	4059bc <_dtoa_r+0x1f4>
  4062a8:	9804      	ldr	r0, [sp, #16]
  4062aa:	f7ff babb 	b.w	405824 <_dtoa_r+0x5c>
  4062ae:	9b0c      	ldr	r3, [sp, #48]	; 0x30
  4062b0:	9a0d      	ldr	r2, [sp, #52]	; 0x34
  4062b2:	970c      	str	r7, [sp, #48]	; 0x30
  4062b4:	1afb      	subs	r3, r7, r3
  4062b6:	441a      	add	r2, r3
  4062b8:	920d      	str	r2, [sp, #52]	; 0x34
  4062ba:	2700      	movs	r7, #0
  4062bc:	e469      	b.n	405b92 <_dtoa_r+0x3ca>
  4062be:	e9dd 2310 	ldrd	r2, r3, [sp, #64]	; 0x40
  4062c2:	f04f 0a02 	mov.w	sl, #2
  4062c6:	e9cd 2312 	strd	r2, r3, [sp, #72]	; 0x48
  4062ca:	e657      	b.n	405f7c <_dtoa_r+0x7b4>
  4062cc:	2100      	movs	r1, #0
  4062ce:	2301      	movs	r3, #1
  4062d0:	6461      	str	r1, [r4, #68]	; 0x44
  4062d2:	4620      	mov	r0, r4
  4062d4:	9325      	str	r3, [sp, #148]	; 0x94
  4062d6:	f000 ff07 	bl	4070e8 <_Balloc>
  4062da:	9b25      	ldr	r3, [sp, #148]	; 0x94
  4062dc:	9004      	str	r0, [sp, #16]
  4062de:	6420      	str	r0, [r4, #64]	; 0x40
  4062e0:	930a      	str	r3, [sp, #40]	; 0x28
  4062e2:	930f      	str	r3, [sp, #60]	; 0x3c
  4062e4:	e629      	b.n	405f3a <_dtoa_r+0x772>
  4062e6:	2a00      	cmp	r2, #0
  4062e8:	46d0      	mov	r8, sl
  4062ea:	f8cd b018 	str.w	fp, [sp, #24]
  4062ee:	469a      	mov	sl, r3
  4062f0:	dd11      	ble.n	406316 <_dtoa_r+0xb4e>
  4062f2:	4649      	mov	r1, r9
  4062f4:	2201      	movs	r2, #1
  4062f6:	4620      	mov	r0, r4
  4062f8:	f001 f8a2 	bl	407440 <__lshift>
  4062fc:	4641      	mov	r1, r8
  4062fe:	4681      	mov	r9, r0
  406300:	f001 f8f0 	bl	4074e4 <__mcmp>
  406304:	2800      	cmp	r0, #0
  406306:	f340 8146 	ble.w	406596 <_dtoa_r+0xdce>
  40630a:	f1ba 0f39 	cmp.w	sl, #57	; 0x39
  40630e:	f000 8106 	beq.w	40651e <_dtoa_r+0xd56>
  406312:	f105 0a31 	add.w	sl, r5, #49	; 0x31
  406316:	46b3      	mov	fp, r6
  406318:	f887 a000 	strb.w	sl, [r7]
  40631c:	1c7d      	adds	r5, r7, #1
  40631e:	9e06      	ldr	r6, [sp, #24]
  406320:	e5d2      	b.n	405ec8 <_dtoa_r+0x700>
  406322:	d104      	bne.n	40632e <_dtoa_r+0xb66>
  406324:	f01a 0f01 	tst.w	sl, #1
  406328:	d001      	beq.n	40632e <_dtoa_r+0xb66>
  40632a:	e5bd      	b.n	405ea8 <_dtoa_r+0x6e0>
  40632c:	4615      	mov	r5, r2
  40632e:	f815 3c01 	ldrb.w	r3, [r5, #-1]
  406332:	2b30      	cmp	r3, #48	; 0x30
  406334:	f105 32ff 	add.w	r2, r5, #4294967295
  406338:	d0f8      	beq.n	40632c <_dtoa_r+0xb64>
  40633a:	e5c5      	b.n	405ec8 <_dtoa_r+0x700>
  40633c:	9904      	ldr	r1, [sp, #16]
  40633e:	2230      	movs	r2, #48	; 0x30
  406340:	700a      	strb	r2, [r1, #0]
  406342:	9a02      	ldr	r2, [sp, #8]
  406344:	f815 8c01 	ldrb.w	r8, [r5, #-1]
  406348:	3201      	adds	r2, #1
  40634a:	9202      	str	r2, [sp, #8]
  40634c:	f7ff bbfc 	b.w	405b48 <_dtoa_r+0x380>
  406350:	f000 80bb 	beq.w	4064ca <_dtoa_r+0xd02>
  406354:	9b02      	ldr	r3, [sp, #8]
  406356:	425d      	negs	r5, r3
  406358:	4b84      	ldr	r3, [pc, #528]	; (40656c <_dtoa_r+0xda4>)
  40635a:	f005 020f 	and.w	r2, r5, #15
  40635e:	eb03 03c2 	add.w	r3, r3, r2, lsl #3
  406362:	e9d3 2300 	ldrd	r2, r3, [r3]
  406366:	e9dd 0110 	ldrd	r0, r1, [sp, #64]	; 0x40
  40636a:	f002 f849 	bl	408400 <__aeabi_dmul>
  40636e:	112d      	asrs	r5, r5, #4
  406370:	4607      	mov	r7, r0
  406372:	4688      	mov	r8, r1
  406374:	f000 812c 	beq.w	4065d0 <_dtoa_r+0xe08>
  406378:	4e7d      	ldr	r6, [pc, #500]	; (406570 <_dtoa_r+0xda8>)
  40637a:	f04f 0a02 	mov.w	sl, #2
  40637e:	07eb      	lsls	r3, r5, #31
  406380:	d509      	bpl.n	406396 <_dtoa_r+0xbce>
  406382:	4638      	mov	r0, r7
  406384:	4641      	mov	r1, r8
  406386:	e9d6 2300 	ldrd	r2, r3, [r6]
  40638a:	f002 f839 	bl	408400 <__aeabi_dmul>
  40638e:	f10a 0a01 	add.w	sl, sl, #1
  406392:	4607      	mov	r7, r0
  406394:	4688      	mov	r8, r1
  406396:	106d      	asrs	r5, r5, #1
  406398:	f106 0608 	add.w	r6, r6, #8
  40639c:	d1ef      	bne.n	40637e <_dtoa_r+0xbb6>
  40639e:	e608      	b.n	405fb2 <_dtoa_r+0x7ea>
  4063a0:	6871      	ldr	r1, [r6, #4]
  4063a2:	4620      	mov	r0, r4
  4063a4:	f000 fea0 	bl	4070e8 <_Balloc>
  4063a8:	6933      	ldr	r3, [r6, #16]
  4063aa:	3302      	adds	r3, #2
  4063ac:	009a      	lsls	r2, r3, #2
  4063ae:	4605      	mov	r5, r0
  4063b0:	f106 010c 	add.w	r1, r6, #12
  4063b4:	300c      	adds	r0, #12
  4063b6:	f7fd fb4f 	bl	403a58 <memcpy>
  4063ba:	4629      	mov	r1, r5
  4063bc:	2201      	movs	r2, #1
  4063be:	4620      	mov	r0, r4
  4063c0:	f001 f83e 	bl	407440 <__lshift>
  4063c4:	9006      	str	r0, [sp, #24]
  4063c6:	e4b5      	b.n	405d34 <_dtoa_r+0x56c>
  4063c8:	2b39      	cmp	r3, #57	; 0x39
  4063ca:	f8cd b018 	str.w	fp, [sp, #24]
  4063ce:	46d0      	mov	r8, sl
  4063d0:	f000 80a5 	beq.w	40651e <_dtoa_r+0xd56>
  4063d4:	f103 0a01 	add.w	sl, r3, #1
  4063d8:	46b3      	mov	fp, r6
  4063da:	f887 a000 	strb.w	sl, [r7]
  4063de:	1c7d      	adds	r5, r7, #1
  4063e0:	9e06      	ldr	r6, [sp, #24]
  4063e2:	e571      	b.n	405ec8 <_dtoa_r+0x700>
  4063e4:	465a      	mov	r2, fp
  4063e6:	46d0      	mov	r8, sl
  4063e8:	46b3      	mov	fp, r6
  4063ea:	469a      	mov	sl, r3
  4063ec:	4616      	mov	r6, r2
  4063ee:	e54f      	b.n	405e90 <_dtoa_r+0x6c8>
  4063f0:	9b12      	ldr	r3, [sp, #72]	; 0x48
  4063f2:	495e      	ldr	r1, [pc, #376]	; (40656c <_dtoa_r+0xda4>)
  4063f4:	eb01 01c3 	add.w	r1, r1, r3, lsl #3
  4063f8:	462a      	mov	r2, r5
  4063fa:	4633      	mov	r3, r6
  4063fc:	e951 0102 	ldrd	r0, r1, [r1, #-8]
  406400:	f001 fffe 	bl	408400 <__aeabi_dmul>
  406404:	e9cd 0116 	strd	r0, r1, [sp, #88]	; 0x58
  406408:	4638      	mov	r0, r7
  40640a:	4641      	mov	r1, r8
  40640c:	f002 faa8 	bl	408960 <__aeabi_d2iz>
  406410:	4605      	mov	r5, r0
  406412:	f001 ff8f 	bl	408334 <__aeabi_i2d>
  406416:	460b      	mov	r3, r1
  406418:	4602      	mov	r2, r0
  40641a:	4641      	mov	r1, r8
  40641c:	4638      	mov	r0, r7
  40641e:	f001 fe3b 	bl	408098 <__aeabi_dsub>
  406422:	9b12      	ldr	r3, [sp, #72]	; 0x48
  406424:	460f      	mov	r7, r1
  406426:	9904      	ldr	r1, [sp, #16]
  406428:	3530      	adds	r5, #48	; 0x30
  40642a:	2b01      	cmp	r3, #1
  40642c:	700d      	strb	r5, [r1, #0]
  40642e:	4606      	mov	r6, r0
  406430:	f101 0501 	add.w	r5, r1, #1
  406434:	d026      	beq.n	406484 <_dtoa_r+0xcbc>
  406436:	9b12      	ldr	r3, [sp, #72]	; 0x48
  406438:	9a04      	ldr	r2, [sp, #16]
  40643a:	f8df b13c 	ldr.w	fp, [pc, #316]	; 406578 <_dtoa_r+0xdb0>
  40643e:	f8cd 9048 	str.w	r9, [sp, #72]	; 0x48
  406442:	4413      	add	r3, r2
  406444:	f04f 0a00 	mov.w	sl, #0
  406448:	4699      	mov	r9, r3
  40644a:	4652      	mov	r2, sl
  40644c:	465b      	mov	r3, fp
  40644e:	4630      	mov	r0, r6
  406450:	4639      	mov	r1, r7
  406452:	f001 ffd5 	bl	408400 <__aeabi_dmul>
  406456:	460f      	mov	r7, r1
  406458:	4606      	mov	r6, r0
  40645a:	f002 fa81 	bl	408960 <__aeabi_d2iz>
  40645e:	4680      	mov	r8, r0
  406460:	f001 ff68 	bl	408334 <__aeabi_i2d>
  406464:	f108 0830 	add.w	r8, r8, #48	; 0x30
  406468:	4602      	mov	r2, r0
  40646a:	460b      	mov	r3, r1
  40646c:	4630      	mov	r0, r6
  40646e:	4639      	mov	r1, r7
  406470:	f001 fe12 	bl	408098 <__aeabi_dsub>
  406474:	f805 8b01 	strb.w	r8, [r5], #1
  406478:	454d      	cmp	r5, r9
  40647a:	4606      	mov	r6, r0
  40647c:	460f      	mov	r7, r1
  40647e:	d1e4      	bne.n	40644a <_dtoa_r+0xc82>
  406480:	f8dd 9048 	ldr.w	r9, [sp, #72]	; 0x48
  406484:	4b3b      	ldr	r3, [pc, #236]	; (406574 <_dtoa_r+0xdac>)
  406486:	2200      	movs	r2, #0
  406488:	e9dd 0116 	ldrd	r0, r1, [sp, #88]	; 0x58
  40648c:	f001 fe06 	bl	40809c <__adddf3>
  406490:	4632      	mov	r2, r6
  406492:	463b      	mov	r3, r7
  406494:	f002 fa26 	bl	4088e4 <__aeabi_dcmplt>
  406498:	2800      	cmp	r0, #0
  40649a:	d046      	beq.n	40652a <_dtoa_r+0xd62>
  40649c:	9b15      	ldr	r3, [sp, #84]	; 0x54
  40649e:	9302      	str	r3, [sp, #8]
  4064a0:	f815 8c01 	ldrb.w	r8, [r5, #-1]
  4064a4:	f7ff bb43 	b.w	405b2e <_dtoa_r+0x366>
  4064a8:	f04f 0800 	mov.w	r8, #0
  4064ac:	4646      	mov	r6, r8
  4064ae:	e6a9      	b.n	406204 <_dtoa_r+0xa3c>
  4064b0:	9b08      	ldr	r3, [sp, #32]
  4064b2:	9a0a      	ldr	r2, [sp, #40]	; 0x28
  4064b4:	1a9d      	subs	r5, r3, r2
  4064b6:	2300      	movs	r3, #0
  4064b8:	f7ff bb71 	b.w	405b9e <_dtoa_r+0x3d6>
  4064bc:	9b18      	ldr	r3, [sp, #96]	; 0x60
  4064be:	9f0c      	ldr	r7, [sp, #48]	; 0x30
  4064c0:	9d08      	ldr	r5, [sp, #32]
  4064c2:	f1c3 0336 	rsb	r3, r3, #54	; 0x36
  4064c6:	f7ff bb6a 	b.w	405b9e <_dtoa_r+0x3d6>
  4064ca:	e9dd 7810 	ldrd	r7, r8, [sp, #64]	; 0x40
  4064ce:	f04f 0a02 	mov.w	sl, #2
  4064d2:	e56e      	b.n	405fb2 <_dtoa_r+0x7ea>
  4064d4:	9b0a      	ldr	r3, [sp, #40]	; 0x28
  4064d6:	2b00      	cmp	r3, #0
  4064d8:	f43f aeb8 	beq.w	40624c <_dtoa_r+0xa84>
  4064dc:	9b0f      	ldr	r3, [sp, #60]	; 0x3c
  4064de:	2b00      	cmp	r3, #0
  4064e0:	f77f aede 	ble.w	4062a0 <_dtoa_r+0xad8>
  4064e4:	2200      	movs	r2, #0
  4064e6:	4b24      	ldr	r3, [pc, #144]	; (406578 <_dtoa_r+0xdb0>)
  4064e8:	4638      	mov	r0, r7
  4064ea:	4641      	mov	r1, r8
  4064ec:	f001 ff88 	bl	408400 <__aeabi_dmul>
  4064f0:	4607      	mov	r7, r0
  4064f2:	4688      	mov	r8, r1
  4064f4:	f10a 0001 	add.w	r0, sl, #1
  4064f8:	f001 ff1c 	bl	408334 <__aeabi_i2d>
  4064fc:	463a      	mov	r2, r7
  4064fe:	4643      	mov	r3, r8
  406500:	f001 ff7e 	bl	408400 <__aeabi_dmul>
  406504:	2200      	movs	r2, #0
  406506:	4b17      	ldr	r3, [pc, #92]	; (406564 <_dtoa_r+0xd9c>)
  406508:	f001 fdc8 	bl	40809c <__adddf3>
  40650c:	9a02      	ldr	r2, [sp, #8]
  40650e:	9b0f      	ldr	r3, [sp, #60]	; 0x3c
  406510:	9312      	str	r3, [sp, #72]	; 0x48
  406512:	3a01      	subs	r2, #1
  406514:	4605      	mov	r5, r0
  406516:	f1a1 7650 	sub.w	r6, r1, #54525952	; 0x3400000
  40651a:	9215      	str	r2, [sp, #84]	; 0x54
  40651c:	e56a      	b.n	405ff4 <_dtoa_r+0x82c>
  40651e:	2239      	movs	r2, #57	; 0x39
  406520:	46b3      	mov	fp, r6
  406522:	703a      	strb	r2, [r7, #0]
  406524:	9e06      	ldr	r6, [sp, #24]
  406526:	1c7d      	adds	r5, r7, #1
  406528:	e4c0      	b.n	405eac <_dtoa_r+0x6e4>
  40652a:	e9dd 2316 	ldrd	r2, r3, [sp, #88]	; 0x58
  40652e:	2000      	movs	r0, #0
  406530:	4910      	ldr	r1, [pc, #64]	; (406574 <_dtoa_r+0xdac>)
  406532:	f001 fdb1 	bl	408098 <__aeabi_dsub>
  406536:	4632      	mov	r2, r6
  406538:	463b      	mov	r3, r7
  40653a:	f002 f9f1 	bl	408920 <__aeabi_dcmpgt>
  40653e:	b908      	cbnz	r0, 406544 <_dtoa_r+0xd7c>
  406540:	e6ae      	b.n	4062a0 <_dtoa_r+0xad8>
  406542:	4615      	mov	r5, r2
  406544:	f815 3c01 	ldrb.w	r3, [r5, #-1]
  406548:	2b30      	cmp	r3, #48	; 0x30
  40654a:	f105 32ff 	add.w	r2, r5, #4294967295
  40654e:	d0f8      	beq.n	406542 <_dtoa_r+0xd7a>
  406550:	e5d7      	b.n	406102 <_dtoa_r+0x93a>
  406552:	f8dd 9048 	ldr.w	r9, [sp, #72]	; 0x48
  406556:	9b15      	ldr	r3, [sp, #84]	; 0x54
  406558:	9302      	str	r3, [sp, #8]
  40655a:	f7ff bae8 	b.w	405b2e <_dtoa_r+0x366>
  40655e:	970c      	str	r7, [sp, #48]	; 0x30
  406560:	f7ff bba5 	b.w	405cae <_dtoa_r+0x4e6>
  406564:	401c0000 	.word	0x401c0000
  406568:	40140000 	.word	0x40140000
  40656c:	00408dd8 	.word	0x00408dd8
  406570:	00408db0 	.word	0x00408db0
  406574:	3fe00000 	.word	0x3fe00000
  406578:	40240000 	.word	0x40240000
  40657c:	2b39      	cmp	r3, #57	; 0x39
  40657e:	f8cd b018 	str.w	fp, [sp, #24]
  406582:	46d0      	mov	r8, sl
  406584:	f8dd b028 	ldr.w	fp, [sp, #40]	; 0x28
  406588:	469a      	mov	sl, r3
  40658a:	d0c8      	beq.n	40651e <_dtoa_r+0xd56>
  40658c:	f1bb 0f00 	cmp.w	fp, #0
  406590:	f73f aebf 	bgt.w	406312 <_dtoa_r+0xb4a>
  406594:	e6bf      	b.n	406316 <_dtoa_r+0xb4e>
  406596:	f47f aebe 	bne.w	406316 <_dtoa_r+0xb4e>
  40659a:	f01a 0f01 	tst.w	sl, #1
  40659e:	f43f aeba 	beq.w	406316 <_dtoa_r+0xb4e>
  4065a2:	e6b2      	b.n	40630a <_dtoa_r+0xb42>
  4065a4:	f04f 0800 	mov.w	r8, #0
  4065a8:	4646      	mov	r6, r8
  4065aa:	e5e9      	b.n	406180 <_dtoa_r+0x9b8>
  4065ac:	4631      	mov	r1, r6
  4065ae:	2300      	movs	r3, #0
  4065b0:	220a      	movs	r2, #10
  4065b2:	4620      	mov	r0, r4
  4065b4:	f000 fdc8 	bl	407148 <__multadd>
  4065b8:	9b0f      	ldr	r3, [sp, #60]	; 0x3c
  4065ba:	2b00      	cmp	r3, #0
  4065bc:	4606      	mov	r6, r0
  4065be:	dd0a      	ble.n	4065d6 <_dtoa_r+0xe0e>
  4065c0:	930a      	str	r3, [sp, #40]	; 0x28
  4065c2:	f7ff bbaa 	b.w	405d1a <_dtoa_r+0x552>
  4065c6:	9b24      	ldr	r3, [sp, #144]	; 0x90
  4065c8:	2b02      	cmp	r3, #2
  4065ca:	dc23      	bgt.n	406614 <_dtoa_r+0xe4c>
  4065cc:	9b0f      	ldr	r3, [sp, #60]	; 0x3c
  4065ce:	e43b      	b.n	405e48 <_dtoa_r+0x680>
  4065d0:	f04f 0a02 	mov.w	sl, #2
  4065d4:	e4ed      	b.n	405fb2 <_dtoa_r+0x7ea>
  4065d6:	9b24      	ldr	r3, [sp, #144]	; 0x90
  4065d8:	2b02      	cmp	r3, #2
  4065da:	dc1b      	bgt.n	406614 <_dtoa_r+0xe4c>
  4065dc:	9b0f      	ldr	r3, [sp, #60]	; 0x3c
  4065de:	e7ef      	b.n	4065c0 <_dtoa_r+0xdf8>
  4065e0:	2500      	movs	r5, #0
  4065e2:	6465      	str	r5, [r4, #68]	; 0x44
  4065e4:	4629      	mov	r1, r5
  4065e6:	4620      	mov	r0, r4
  4065e8:	f000 fd7e 	bl	4070e8 <_Balloc>
  4065ec:	f04f 33ff 	mov.w	r3, #4294967295
  4065f0:	930a      	str	r3, [sp, #40]	; 0x28
  4065f2:	930f      	str	r3, [sp, #60]	; 0x3c
  4065f4:	2301      	movs	r3, #1
  4065f6:	9004      	str	r0, [sp, #16]
  4065f8:	9525      	str	r5, [sp, #148]	; 0x94
  4065fa:	6420      	str	r0, [r4, #64]	; 0x40
  4065fc:	930b      	str	r3, [sp, #44]	; 0x2c
  4065fe:	f7ff b9dd 	b.w	4059bc <_dtoa_r+0x1f4>
  406602:	2501      	movs	r5, #1
  406604:	f7ff b9a5 	b.w	405952 <_dtoa_r+0x18a>
  406608:	f43f ab69 	beq.w	405cde <_dtoa_r+0x516>
  40660c:	f1c0 003c 	rsb	r0, r0, #60	; 0x3c
  406610:	f7ff bbf9 	b.w	405e06 <_dtoa_r+0x63e>
  406614:	9b0f      	ldr	r3, [sp, #60]	; 0x3c
  406616:	930a      	str	r3, [sp, #40]	; 0x28
  406618:	e5e5      	b.n	4061e6 <_dtoa_r+0xa1e>
  40661a:	bf00      	nop

0040661c <__sflush_r>:
  40661c:	f9b1 300c 	ldrsh.w	r3, [r1, #12]
  406620:	b29a      	uxth	r2, r3
  406622:	e92d 41f0 	stmdb	sp!, {r4, r5, r6, r7, r8, lr}
  406626:	460d      	mov	r5, r1
  406628:	0711      	lsls	r1, r2, #28
  40662a:	4680      	mov	r8, r0
  40662c:	d43a      	bmi.n	4066a4 <__sflush_r+0x88>
  40662e:	686a      	ldr	r2, [r5, #4]
  406630:	f443 6300 	orr.w	r3, r3, #2048	; 0x800
  406634:	2a00      	cmp	r2, #0
  406636:	81ab      	strh	r3, [r5, #12]
  406638:	dd6f      	ble.n	40671a <__sflush_r+0xfe>
  40663a:	6aac      	ldr	r4, [r5, #40]	; 0x28
  40663c:	2c00      	cmp	r4, #0
  40663e:	d049      	beq.n	4066d4 <__sflush_r+0xb8>
  406640:	2200      	movs	r2, #0
  406642:	b29b      	uxth	r3, r3
  406644:	f8d8 6000 	ldr.w	r6, [r8]
  406648:	f8c8 2000 	str.w	r2, [r8]
  40664c:	f413 5280 	ands.w	r2, r3, #4096	; 0x1000
  406650:	d067      	beq.n	406722 <__sflush_r+0x106>
  406652:	6d2a      	ldr	r2, [r5, #80]	; 0x50
  406654:	075f      	lsls	r7, r3, #29
  406656:	d505      	bpl.n	406664 <__sflush_r+0x48>
  406658:	6869      	ldr	r1, [r5, #4]
  40665a:	6b2b      	ldr	r3, [r5, #48]	; 0x30
  40665c:	1a52      	subs	r2, r2, r1
  40665e:	b10b      	cbz	r3, 406664 <__sflush_r+0x48>
  406660:	6beb      	ldr	r3, [r5, #60]	; 0x3c
  406662:	1ad2      	subs	r2, r2, r3
  406664:	2300      	movs	r3, #0
  406666:	69e9      	ldr	r1, [r5, #28]
  406668:	4640      	mov	r0, r8
  40666a:	47a0      	blx	r4
  40666c:	1c44      	adds	r4, r0, #1
  40666e:	d03c      	beq.n	4066ea <__sflush_r+0xce>
  406670:	f9b5 300c 	ldrsh.w	r3, [r5, #12]
  406674:	692a      	ldr	r2, [r5, #16]
  406676:	602a      	str	r2, [r5, #0]
  406678:	f423 6300 	bic.w	r3, r3, #2048	; 0x800
  40667c:	2200      	movs	r2, #0
  40667e:	81ab      	strh	r3, [r5, #12]
  406680:	04db      	lsls	r3, r3, #19
  406682:	606a      	str	r2, [r5, #4]
  406684:	d447      	bmi.n	406716 <__sflush_r+0xfa>
  406686:	6b29      	ldr	r1, [r5, #48]	; 0x30
  406688:	f8c8 6000 	str.w	r6, [r8]
  40668c:	b311      	cbz	r1, 4066d4 <__sflush_r+0xb8>
  40668e:	f105 0340 	add.w	r3, r5, #64	; 0x40
  406692:	4299      	cmp	r1, r3
  406694:	d002      	beq.n	40669c <__sflush_r+0x80>
  406696:	4640      	mov	r0, r8
  406698:	f000 f95a 	bl	406950 <_free_r>
  40669c:	2000      	movs	r0, #0
  40669e:	6328      	str	r0, [r5, #48]	; 0x30
  4066a0:	e8bd 81f0 	ldmia.w	sp!, {r4, r5, r6, r7, r8, pc}
  4066a4:	692e      	ldr	r6, [r5, #16]
  4066a6:	b1ae      	cbz	r6, 4066d4 <__sflush_r+0xb8>
  4066a8:	682c      	ldr	r4, [r5, #0]
  4066aa:	602e      	str	r6, [r5, #0]
  4066ac:	0791      	lsls	r1, r2, #30
  4066ae:	bf0c      	ite	eq
  4066b0:	696b      	ldreq	r3, [r5, #20]
  4066b2:	2300      	movne	r3, #0
  4066b4:	1ba4      	subs	r4, r4, r6
  4066b6:	60ab      	str	r3, [r5, #8]
  4066b8:	e00a      	b.n	4066d0 <__sflush_r+0xb4>
  4066ba:	4623      	mov	r3, r4
  4066bc:	4632      	mov	r2, r6
  4066be:	6a6f      	ldr	r7, [r5, #36]	; 0x24
  4066c0:	69e9      	ldr	r1, [r5, #28]
  4066c2:	4640      	mov	r0, r8
  4066c4:	47b8      	blx	r7
  4066c6:	2800      	cmp	r0, #0
  4066c8:	eba4 0400 	sub.w	r4, r4, r0
  4066cc:	4406      	add	r6, r0
  4066ce:	dd04      	ble.n	4066da <__sflush_r+0xbe>
  4066d0:	2c00      	cmp	r4, #0
  4066d2:	dcf2      	bgt.n	4066ba <__sflush_r+0x9e>
  4066d4:	2000      	movs	r0, #0
  4066d6:	e8bd 81f0 	ldmia.w	sp!, {r4, r5, r6, r7, r8, pc}
  4066da:	89ab      	ldrh	r3, [r5, #12]
  4066dc:	f043 0340 	orr.w	r3, r3, #64	; 0x40
  4066e0:	81ab      	strh	r3, [r5, #12]
  4066e2:	f04f 30ff 	mov.w	r0, #4294967295
  4066e6:	e8bd 81f0 	ldmia.w	sp!, {r4, r5, r6, r7, r8, pc}
  4066ea:	f8d8 4000 	ldr.w	r4, [r8]
  4066ee:	2c1d      	cmp	r4, #29
  4066f0:	d8f3      	bhi.n	4066da <__sflush_r+0xbe>
  4066f2:	4b19      	ldr	r3, [pc, #100]	; (406758 <__sflush_r+0x13c>)
  4066f4:	40e3      	lsrs	r3, r4
  4066f6:	43db      	mvns	r3, r3
  4066f8:	f013 0301 	ands.w	r3, r3, #1
  4066fc:	d1ed      	bne.n	4066da <__sflush_r+0xbe>
  4066fe:	f9b5 200c 	ldrsh.w	r2, [r5, #12]
  406702:	606b      	str	r3, [r5, #4]
  406704:	f422 6300 	bic.w	r3, r2, #2048	; 0x800
  406708:	6929      	ldr	r1, [r5, #16]
  40670a:	81ab      	strh	r3, [r5, #12]
  40670c:	04da      	lsls	r2, r3, #19
  40670e:	6029      	str	r1, [r5, #0]
  406710:	d5b9      	bpl.n	406686 <__sflush_r+0x6a>
  406712:	2c00      	cmp	r4, #0
  406714:	d1b7      	bne.n	406686 <__sflush_r+0x6a>
  406716:	6528      	str	r0, [r5, #80]	; 0x50
  406718:	e7b5      	b.n	406686 <__sflush_r+0x6a>
  40671a:	6bea      	ldr	r2, [r5, #60]	; 0x3c
  40671c:	2a00      	cmp	r2, #0
  40671e:	dc8c      	bgt.n	40663a <__sflush_r+0x1e>
  406720:	e7d8      	b.n	4066d4 <__sflush_r+0xb8>
  406722:	2301      	movs	r3, #1
  406724:	69e9      	ldr	r1, [r5, #28]
  406726:	4640      	mov	r0, r8
  406728:	47a0      	blx	r4
  40672a:	1c43      	adds	r3, r0, #1
  40672c:	4602      	mov	r2, r0
  40672e:	d002      	beq.n	406736 <__sflush_r+0x11a>
  406730:	89ab      	ldrh	r3, [r5, #12]
  406732:	6aac      	ldr	r4, [r5, #40]	; 0x28
  406734:	e78e      	b.n	406654 <__sflush_r+0x38>
  406736:	f8d8 3000 	ldr.w	r3, [r8]
  40673a:	2b00      	cmp	r3, #0
  40673c:	d0f8      	beq.n	406730 <__sflush_r+0x114>
  40673e:	2b1d      	cmp	r3, #29
  406740:	d001      	beq.n	406746 <__sflush_r+0x12a>
  406742:	2b16      	cmp	r3, #22
  406744:	d102      	bne.n	40674c <__sflush_r+0x130>
  406746:	f8c8 6000 	str.w	r6, [r8]
  40674a:	e7c3      	b.n	4066d4 <__sflush_r+0xb8>
  40674c:	89ab      	ldrh	r3, [r5, #12]
  40674e:	f043 0340 	orr.w	r3, r3, #64	; 0x40
  406752:	81ab      	strh	r3, [r5, #12]
  406754:	e8bd 81f0 	ldmia.w	sp!, {r4, r5, r6, r7, r8, pc}
  406758:	20400001 	.word	0x20400001

0040675c <_fflush_r>:
  40675c:	b538      	push	{r3, r4, r5, lr}
  40675e:	460d      	mov	r5, r1
  406760:	4604      	mov	r4, r0
  406762:	b108      	cbz	r0, 406768 <_fflush_r+0xc>
  406764:	6b83      	ldr	r3, [r0, #56]	; 0x38
  406766:	b1bb      	cbz	r3, 406798 <_fflush_r+0x3c>
  406768:	f9b5 000c 	ldrsh.w	r0, [r5, #12]
  40676c:	b188      	cbz	r0, 406792 <_fflush_r+0x36>
  40676e:	6e6b      	ldr	r3, [r5, #100]	; 0x64
  406770:	07db      	lsls	r3, r3, #31
  406772:	d401      	bmi.n	406778 <_fflush_r+0x1c>
  406774:	0581      	lsls	r1, r0, #22
  406776:	d517      	bpl.n	4067a8 <_fflush_r+0x4c>
  406778:	4620      	mov	r0, r4
  40677a:	4629      	mov	r1, r5
  40677c:	f7ff ff4e 	bl	40661c <__sflush_r>
  406780:	6e6b      	ldr	r3, [r5, #100]	; 0x64
  406782:	07da      	lsls	r2, r3, #31
  406784:	4604      	mov	r4, r0
  406786:	d402      	bmi.n	40678e <_fflush_r+0x32>
  406788:	89ab      	ldrh	r3, [r5, #12]
  40678a:	059b      	lsls	r3, r3, #22
  40678c:	d507      	bpl.n	40679e <_fflush_r+0x42>
  40678e:	4620      	mov	r0, r4
  406790:	bd38      	pop	{r3, r4, r5, pc}
  406792:	4604      	mov	r4, r0
  406794:	4620      	mov	r0, r4
  406796:	bd38      	pop	{r3, r4, r5, pc}
  406798:	f000 f838 	bl	40680c <__sinit>
  40679c:	e7e4      	b.n	406768 <_fflush_r+0xc>
  40679e:	6da8      	ldr	r0, [r5, #88]	; 0x58
  4067a0:	f000 fb72 	bl	406e88 <__retarget_lock_release_recursive>
  4067a4:	4620      	mov	r0, r4
  4067a6:	bd38      	pop	{r3, r4, r5, pc}
  4067a8:	6da8      	ldr	r0, [r5, #88]	; 0x58
  4067aa:	f000 fb6b 	bl	406e84 <__retarget_lock_acquire_recursive>
  4067ae:	e7e3      	b.n	406778 <_fflush_r+0x1c>

004067b0 <_cleanup_r>:
  4067b0:	4901      	ldr	r1, [pc, #4]	; (4067b8 <_cleanup_r+0x8>)
  4067b2:	f000 bb2b 	b.w	406e0c <_fwalk_reent>
  4067b6:	bf00      	nop
  4067b8:	00407cb9 	.word	0x00407cb9

004067bc <std.isra.0>:
  4067bc:	b510      	push	{r4, lr}
  4067be:	2300      	movs	r3, #0
  4067c0:	4604      	mov	r4, r0
  4067c2:	8181      	strh	r1, [r0, #12]
  4067c4:	81c2      	strh	r2, [r0, #14]
  4067c6:	6003      	str	r3, [r0, #0]
  4067c8:	6043      	str	r3, [r0, #4]
  4067ca:	6083      	str	r3, [r0, #8]
  4067cc:	6643      	str	r3, [r0, #100]	; 0x64
  4067ce:	6103      	str	r3, [r0, #16]
  4067d0:	6143      	str	r3, [r0, #20]
  4067d2:	6183      	str	r3, [r0, #24]
  4067d4:	4619      	mov	r1, r3
  4067d6:	2208      	movs	r2, #8
  4067d8:	305c      	adds	r0, #92	; 0x5c
  4067da:	f7fd f9d7 	bl	403b8c <memset>
  4067de:	4807      	ldr	r0, [pc, #28]	; (4067fc <std.isra.0+0x40>)
  4067e0:	4907      	ldr	r1, [pc, #28]	; (406800 <std.isra.0+0x44>)
  4067e2:	4a08      	ldr	r2, [pc, #32]	; (406804 <std.isra.0+0x48>)
  4067e4:	4b08      	ldr	r3, [pc, #32]	; (406808 <std.isra.0+0x4c>)
  4067e6:	6220      	str	r0, [r4, #32]
  4067e8:	61e4      	str	r4, [r4, #28]
  4067ea:	6261      	str	r1, [r4, #36]	; 0x24
  4067ec:	62a2      	str	r2, [r4, #40]	; 0x28
  4067ee:	62e3      	str	r3, [r4, #44]	; 0x2c
  4067f0:	f104 0058 	add.w	r0, r4, #88	; 0x58
  4067f4:	e8bd 4010 	ldmia.w	sp!, {r4, lr}
  4067f8:	f000 bb40 	b.w	406e7c <__retarget_lock_init_recursive>
  4067fc:	00407a29 	.word	0x00407a29
  406800:	00407a4d 	.word	0x00407a4d
  406804:	00407a89 	.word	0x00407a89
  406808:	00407aa9 	.word	0x00407aa9

0040680c <__sinit>:
  40680c:	b510      	push	{r4, lr}
  40680e:	4604      	mov	r4, r0
  406810:	4812      	ldr	r0, [pc, #72]	; (40685c <__sinit+0x50>)
  406812:	f000 fb37 	bl	406e84 <__retarget_lock_acquire_recursive>
  406816:	6ba2      	ldr	r2, [r4, #56]	; 0x38
  406818:	b9d2      	cbnz	r2, 406850 <__sinit+0x44>
  40681a:	f504 733b 	add.w	r3, r4, #748	; 0x2ec
  40681e:	4810      	ldr	r0, [pc, #64]	; (406860 <__sinit+0x54>)
  406820:	f8c4 32e8 	str.w	r3, [r4, #744]	; 0x2e8
  406824:	2103      	movs	r1, #3
  406826:	f8c4 22e0 	str.w	r2, [r4, #736]	; 0x2e0
  40682a:	63e0      	str	r0, [r4, #60]	; 0x3c
  40682c:	f8c4 12e4 	str.w	r1, [r4, #740]	; 0x2e4
  406830:	6860      	ldr	r0, [r4, #4]
  406832:	2104      	movs	r1, #4
  406834:	f7ff ffc2 	bl	4067bc <std.isra.0>
  406838:	2201      	movs	r2, #1
  40683a:	2109      	movs	r1, #9
  40683c:	68a0      	ldr	r0, [r4, #8]
  40683e:	f7ff ffbd 	bl	4067bc <std.isra.0>
  406842:	2202      	movs	r2, #2
  406844:	2112      	movs	r1, #18
  406846:	68e0      	ldr	r0, [r4, #12]
  406848:	f7ff ffb8 	bl	4067bc <std.isra.0>
  40684c:	2301      	movs	r3, #1
  40684e:	63a3      	str	r3, [r4, #56]	; 0x38
  406850:	4802      	ldr	r0, [pc, #8]	; (40685c <__sinit+0x50>)
  406852:	e8bd 4010 	ldmia.w	sp!, {r4, lr}
  406856:	f000 bb17 	b.w	406e88 <__retarget_lock_release_recursive>
  40685a:	bf00      	nop
  40685c:	20400e2c 	.word	0x20400e2c
  406860:	004067b1 	.word	0x004067b1

00406864 <__sfp_lock_acquire>:
  406864:	4801      	ldr	r0, [pc, #4]	; (40686c <__sfp_lock_acquire+0x8>)
  406866:	f000 bb0d 	b.w	406e84 <__retarget_lock_acquire_recursive>
  40686a:	bf00      	nop
  40686c:	20400e40 	.word	0x20400e40

00406870 <__sfp_lock_release>:
  406870:	4801      	ldr	r0, [pc, #4]	; (406878 <__sfp_lock_release+0x8>)
  406872:	f000 bb09 	b.w	406e88 <__retarget_lock_release_recursive>
  406876:	bf00      	nop
  406878:	20400e40 	.word	0x20400e40

0040687c <__libc_fini_array>:
  40687c:	b538      	push	{r3, r4, r5, lr}
  40687e:	4c0a      	ldr	r4, [pc, #40]	; (4068a8 <__libc_fini_array+0x2c>)
  406880:	4d0a      	ldr	r5, [pc, #40]	; (4068ac <__libc_fini_array+0x30>)
  406882:	1b64      	subs	r4, r4, r5
  406884:	10a4      	asrs	r4, r4, #2
  406886:	d00a      	beq.n	40689e <__libc_fini_array+0x22>
  406888:	f104 4380 	add.w	r3, r4, #1073741824	; 0x40000000
  40688c:	3b01      	subs	r3, #1
  40688e:	eb05 0583 	add.w	r5, r5, r3, lsl #2
  406892:	3c01      	subs	r4, #1
  406894:	f855 3904 	ldr.w	r3, [r5], #-4
  406898:	4798      	blx	r3
  40689a:	2c00      	cmp	r4, #0
  40689c:	d1f9      	bne.n	406892 <__libc_fini_array+0x16>
  40689e:	e8bd 4038 	ldmia.w	sp!, {r3, r4, r5, lr}
  4068a2:	f002 bb97 	b.w	408fd4 <_fini>
  4068a6:	bf00      	nop
  4068a8:	00408fe4 	.word	0x00408fe4
  4068ac:	00408fe0 	.word	0x00408fe0

004068b0 <_malloc_trim_r>:
  4068b0:	b5f8      	push	{r3, r4, r5, r6, r7, lr}
  4068b2:	4f24      	ldr	r7, [pc, #144]	; (406944 <_malloc_trim_r+0x94>)
  4068b4:	460c      	mov	r4, r1
  4068b6:	4606      	mov	r6, r0
  4068b8:	f7fd f9b6 	bl	403c28 <__malloc_lock>
  4068bc:	68bb      	ldr	r3, [r7, #8]
  4068be:	685d      	ldr	r5, [r3, #4]
  4068c0:	f5c4 617e 	rsb	r1, r4, #4064	; 0xfe0
  4068c4:	310f      	adds	r1, #15
  4068c6:	f025 0503 	bic.w	r5, r5, #3
  4068ca:	4429      	add	r1, r5
  4068cc:	f421 617f 	bic.w	r1, r1, #4080	; 0xff0
  4068d0:	f021 010f 	bic.w	r1, r1, #15
  4068d4:	f5a1 5480 	sub.w	r4, r1, #4096	; 0x1000
  4068d8:	f5b4 5f80 	cmp.w	r4, #4096	; 0x1000
  4068dc:	db07      	blt.n	4068ee <_malloc_trim_r+0x3e>
  4068de:	2100      	movs	r1, #0
  4068e0:	4630      	mov	r0, r6
  4068e2:	f7fd fa17 	bl	403d14 <_sbrk_r>
  4068e6:	68bb      	ldr	r3, [r7, #8]
  4068e8:	442b      	add	r3, r5
  4068ea:	4298      	cmp	r0, r3
  4068ec:	d004      	beq.n	4068f8 <_malloc_trim_r+0x48>
  4068ee:	4630      	mov	r0, r6
  4068f0:	f7fd f9a0 	bl	403c34 <__malloc_unlock>
  4068f4:	2000      	movs	r0, #0
  4068f6:	bdf8      	pop	{r3, r4, r5, r6, r7, pc}
  4068f8:	4261      	negs	r1, r4
  4068fa:	4630      	mov	r0, r6
  4068fc:	f7fd fa0a 	bl	403d14 <_sbrk_r>
  406900:	3001      	adds	r0, #1
  406902:	d00d      	beq.n	406920 <_malloc_trim_r+0x70>
  406904:	4b10      	ldr	r3, [pc, #64]	; (406948 <_malloc_trim_r+0x98>)
  406906:	68ba      	ldr	r2, [r7, #8]
  406908:	6819      	ldr	r1, [r3, #0]
  40690a:	1b2d      	subs	r5, r5, r4
  40690c:	f045 0501 	orr.w	r5, r5, #1
  406910:	4630      	mov	r0, r6
  406912:	1b09      	subs	r1, r1, r4
  406914:	6055      	str	r5, [r2, #4]
  406916:	6019      	str	r1, [r3, #0]
  406918:	f7fd f98c 	bl	403c34 <__malloc_unlock>
  40691c:	2001      	movs	r0, #1
  40691e:	bdf8      	pop	{r3, r4, r5, r6, r7, pc}
  406920:	2100      	movs	r1, #0
  406922:	4630      	mov	r0, r6
  406924:	f7fd f9f6 	bl	403d14 <_sbrk_r>
  406928:	68ba      	ldr	r2, [r7, #8]
  40692a:	1a83      	subs	r3, r0, r2
  40692c:	2b0f      	cmp	r3, #15
  40692e:	ddde      	ble.n	4068ee <_malloc_trim_r+0x3e>
  406930:	4c06      	ldr	r4, [pc, #24]	; (40694c <_malloc_trim_r+0x9c>)
  406932:	4905      	ldr	r1, [pc, #20]	; (406948 <_malloc_trim_r+0x98>)
  406934:	6824      	ldr	r4, [r4, #0]
  406936:	f043 0301 	orr.w	r3, r3, #1
  40693a:	1b00      	subs	r0, r0, r4
  40693c:	6053      	str	r3, [r2, #4]
  40693e:	6008      	str	r0, [r1, #0]
  406940:	e7d5      	b.n	4068ee <_malloc_trim_r+0x3e>
  406942:	bf00      	nop
  406944:	20400440 	.word	0x20400440
  406948:	20400da0 	.word	0x20400da0
  40694c:	20400848 	.word	0x20400848

00406950 <_free_r>:
  406950:	2900      	cmp	r1, #0
  406952:	d044      	beq.n	4069de <_free_r+0x8e>
  406954:	e92d 41f0 	stmdb	sp!, {r4, r5, r6, r7, r8, lr}
  406958:	460d      	mov	r5, r1
  40695a:	4680      	mov	r8, r0
  40695c:	f7fd f964 	bl	403c28 <__malloc_lock>
  406960:	f855 7c04 	ldr.w	r7, [r5, #-4]
  406964:	4969      	ldr	r1, [pc, #420]	; (406b0c <_free_r+0x1bc>)
  406966:	f027 0301 	bic.w	r3, r7, #1
  40696a:	f1a5 0408 	sub.w	r4, r5, #8
  40696e:	18e2      	adds	r2, r4, r3
  406970:	688e      	ldr	r6, [r1, #8]
  406972:	6850      	ldr	r0, [r2, #4]
  406974:	42b2      	cmp	r2, r6
  406976:	f020 0003 	bic.w	r0, r0, #3
  40697a:	d05e      	beq.n	406a3a <_free_r+0xea>
  40697c:	07fe      	lsls	r6, r7, #31
  40697e:	6050      	str	r0, [r2, #4]
  406980:	d40b      	bmi.n	40699a <_free_r+0x4a>
  406982:	f855 7c08 	ldr.w	r7, [r5, #-8]
  406986:	1be4      	subs	r4, r4, r7
  406988:	f101 0e08 	add.w	lr, r1, #8
  40698c:	68a5      	ldr	r5, [r4, #8]
  40698e:	4575      	cmp	r5, lr
  406990:	443b      	add	r3, r7
  406992:	d06d      	beq.n	406a70 <_free_r+0x120>
  406994:	68e7      	ldr	r7, [r4, #12]
  406996:	60ef      	str	r7, [r5, #12]
  406998:	60bd      	str	r5, [r7, #8]
  40699a:	1815      	adds	r5, r2, r0
  40699c:	686d      	ldr	r5, [r5, #4]
  40699e:	07ed      	lsls	r5, r5, #31
  4069a0:	d53e      	bpl.n	406a20 <_free_r+0xd0>
  4069a2:	f043 0201 	orr.w	r2, r3, #1
  4069a6:	6062      	str	r2, [r4, #4]
  4069a8:	50e3      	str	r3, [r4, r3]
  4069aa:	f5b3 7f00 	cmp.w	r3, #512	; 0x200
  4069ae:	d217      	bcs.n	4069e0 <_free_r+0x90>
  4069b0:	08db      	lsrs	r3, r3, #3
  4069b2:	1c58      	adds	r0, r3, #1
  4069b4:	109a      	asrs	r2, r3, #2
  4069b6:	684d      	ldr	r5, [r1, #4]
  4069b8:	f851 7030 	ldr.w	r7, [r1, r0, lsl #3]
  4069bc:	60a7      	str	r7, [r4, #8]
  4069be:	2301      	movs	r3, #1
  4069c0:	4093      	lsls	r3, r2
  4069c2:	eb01 02c0 	add.w	r2, r1, r0, lsl #3
  4069c6:	432b      	orrs	r3, r5
  4069c8:	3a08      	subs	r2, #8
  4069ca:	60e2      	str	r2, [r4, #12]
  4069cc:	604b      	str	r3, [r1, #4]
  4069ce:	f841 4030 	str.w	r4, [r1, r0, lsl #3]
  4069d2:	60fc      	str	r4, [r7, #12]
  4069d4:	4640      	mov	r0, r8
  4069d6:	e8bd 41f0 	ldmia.w	sp!, {r4, r5, r6, r7, r8, lr}
  4069da:	f7fd b92b 	b.w	403c34 <__malloc_unlock>
  4069de:	4770      	bx	lr
  4069e0:	0a5a      	lsrs	r2, r3, #9
  4069e2:	2a04      	cmp	r2, #4
  4069e4:	d852      	bhi.n	406a8c <_free_r+0x13c>
  4069e6:	099a      	lsrs	r2, r3, #6
  4069e8:	f102 0739 	add.w	r7, r2, #57	; 0x39
  4069ec:	00ff      	lsls	r7, r7, #3
  4069ee:	f102 0538 	add.w	r5, r2, #56	; 0x38
  4069f2:	19c8      	adds	r0, r1, r7
  4069f4:	59ca      	ldr	r2, [r1, r7]
  4069f6:	3808      	subs	r0, #8
  4069f8:	4290      	cmp	r0, r2
  4069fa:	d04f      	beq.n	406a9c <_free_r+0x14c>
  4069fc:	6851      	ldr	r1, [r2, #4]
  4069fe:	f021 0103 	bic.w	r1, r1, #3
  406a02:	428b      	cmp	r3, r1
  406a04:	d232      	bcs.n	406a6c <_free_r+0x11c>
  406a06:	6892      	ldr	r2, [r2, #8]
  406a08:	4290      	cmp	r0, r2
  406a0a:	d1f7      	bne.n	4069fc <_free_r+0xac>
  406a0c:	68c3      	ldr	r3, [r0, #12]
  406a0e:	60a0      	str	r0, [r4, #8]
  406a10:	60e3      	str	r3, [r4, #12]
  406a12:	609c      	str	r4, [r3, #8]
  406a14:	60c4      	str	r4, [r0, #12]
  406a16:	4640      	mov	r0, r8
  406a18:	e8bd 41f0 	ldmia.w	sp!, {r4, r5, r6, r7, r8, lr}
  406a1c:	f7fd b90a 	b.w	403c34 <__malloc_unlock>
  406a20:	6895      	ldr	r5, [r2, #8]
  406a22:	4f3b      	ldr	r7, [pc, #236]	; (406b10 <_free_r+0x1c0>)
  406a24:	42bd      	cmp	r5, r7
  406a26:	4403      	add	r3, r0
  406a28:	d040      	beq.n	406aac <_free_r+0x15c>
  406a2a:	68d0      	ldr	r0, [r2, #12]
  406a2c:	60e8      	str	r0, [r5, #12]
  406a2e:	f043 0201 	orr.w	r2, r3, #1
  406a32:	6085      	str	r5, [r0, #8]
  406a34:	6062      	str	r2, [r4, #4]
  406a36:	50e3      	str	r3, [r4, r3]
  406a38:	e7b7      	b.n	4069aa <_free_r+0x5a>
  406a3a:	07ff      	lsls	r7, r7, #31
  406a3c:	4403      	add	r3, r0
  406a3e:	d407      	bmi.n	406a50 <_free_r+0x100>
  406a40:	f855 2c08 	ldr.w	r2, [r5, #-8]
  406a44:	1aa4      	subs	r4, r4, r2
  406a46:	4413      	add	r3, r2
  406a48:	68a0      	ldr	r0, [r4, #8]
  406a4a:	68e2      	ldr	r2, [r4, #12]
  406a4c:	60c2      	str	r2, [r0, #12]
  406a4e:	6090      	str	r0, [r2, #8]
  406a50:	4a30      	ldr	r2, [pc, #192]	; (406b14 <_free_r+0x1c4>)
  406a52:	6812      	ldr	r2, [r2, #0]
  406a54:	f043 0001 	orr.w	r0, r3, #1
  406a58:	4293      	cmp	r3, r2
  406a5a:	6060      	str	r0, [r4, #4]
  406a5c:	608c      	str	r4, [r1, #8]
  406a5e:	d3b9      	bcc.n	4069d4 <_free_r+0x84>
  406a60:	4b2d      	ldr	r3, [pc, #180]	; (406b18 <_free_r+0x1c8>)
  406a62:	4640      	mov	r0, r8
  406a64:	6819      	ldr	r1, [r3, #0]
  406a66:	f7ff ff23 	bl	4068b0 <_malloc_trim_r>
  406a6a:	e7b3      	b.n	4069d4 <_free_r+0x84>
  406a6c:	4610      	mov	r0, r2
  406a6e:	e7cd      	b.n	406a0c <_free_r+0xbc>
  406a70:	1811      	adds	r1, r2, r0
  406a72:	6849      	ldr	r1, [r1, #4]
  406a74:	07c9      	lsls	r1, r1, #31
  406a76:	d444      	bmi.n	406b02 <_free_r+0x1b2>
  406a78:	6891      	ldr	r1, [r2, #8]
  406a7a:	68d2      	ldr	r2, [r2, #12]
  406a7c:	60ca      	str	r2, [r1, #12]
  406a7e:	4403      	add	r3, r0
  406a80:	f043 0001 	orr.w	r0, r3, #1
  406a84:	6091      	str	r1, [r2, #8]
  406a86:	6060      	str	r0, [r4, #4]
  406a88:	50e3      	str	r3, [r4, r3]
  406a8a:	e7a3      	b.n	4069d4 <_free_r+0x84>
  406a8c:	2a14      	cmp	r2, #20
  406a8e:	d816      	bhi.n	406abe <_free_r+0x16e>
  406a90:	f102 075c 	add.w	r7, r2, #92	; 0x5c
  406a94:	00ff      	lsls	r7, r7, #3
  406a96:	f102 055b 	add.w	r5, r2, #91	; 0x5b
  406a9a:	e7aa      	b.n	4069f2 <_free_r+0xa2>
  406a9c:	10aa      	asrs	r2, r5, #2
  406a9e:	2301      	movs	r3, #1
  406aa0:	684d      	ldr	r5, [r1, #4]
  406aa2:	4093      	lsls	r3, r2
  406aa4:	432b      	orrs	r3, r5
  406aa6:	604b      	str	r3, [r1, #4]
  406aa8:	4603      	mov	r3, r0
  406aaa:	e7b0      	b.n	406a0e <_free_r+0xbe>
  406aac:	f043 0201 	orr.w	r2, r3, #1
  406ab0:	614c      	str	r4, [r1, #20]
  406ab2:	610c      	str	r4, [r1, #16]
  406ab4:	60e5      	str	r5, [r4, #12]
  406ab6:	60a5      	str	r5, [r4, #8]
  406ab8:	6062      	str	r2, [r4, #4]
  406aba:	50e3      	str	r3, [r4, r3]
  406abc:	e78a      	b.n	4069d4 <_free_r+0x84>
  406abe:	2a54      	cmp	r2, #84	; 0x54
  406ac0:	d806      	bhi.n	406ad0 <_free_r+0x180>
  406ac2:	0b1a      	lsrs	r2, r3, #12
  406ac4:	f102 076f 	add.w	r7, r2, #111	; 0x6f
  406ac8:	00ff      	lsls	r7, r7, #3
  406aca:	f102 056e 	add.w	r5, r2, #110	; 0x6e
  406ace:	e790      	b.n	4069f2 <_free_r+0xa2>
  406ad0:	f5b2 7faa 	cmp.w	r2, #340	; 0x154
  406ad4:	d806      	bhi.n	406ae4 <_free_r+0x194>
  406ad6:	0bda      	lsrs	r2, r3, #15
  406ad8:	f102 0778 	add.w	r7, r2, #120	; 0x78
  406adc:	00ff      	lsls	r7, r7, #3
  406ade:	f102 0577 	add.w	r5, r2, #119	; 0x77
  406ae2:	e786      	b.n	4069f2 <_free_r+0xa2>
  406ae4:	f240 5054 	movw	r0, #1364	; 0x554
  406ae8:	4282      	cmp	r2, r0
  406aea:	d806      	bhi.n	406afa <_free_r+0x1aa>
  406aec:	0c9a      	lsrs	r2, r3, #18
  406aee:	f102 077d 	add.w	r7, r2, #125	; 0x7d
  406af2:	00ff      	lsls	r7, r7, #3
  406af4:	f102 057c 	add.w	r5, r2, #124	; 0x7c
  406af8:	e77b      	b.n	4069f2 <_free_r+0xa2>
  406afa:	f44f 777e 	mov.w	r7, #1016	; 0x3f8
  406afe:	257e      	movs	r5, #126	; 0x7e
  406b00:	e777      	b.n	4069f2 <_free_r+0xa2>
  406b02:	f043 0101 	orr.w	r1, r3, #1
  406b06:	6061      	str	r1, [r4, #4]
  406b08:	6013      	str	r3, [r2, #0]
  406b0a:	e763      	b.n	4069d4 <_free_r+0x84>
  406b0c:	20400440 	.word	0x20400440
  406b10:	20400448 	.word	0x20400448
  406b14:	2040084c 	.word	0x2040084c
  406b18:	20400dd0 	.word	0x20400dd0

00406b1c <__sfvwrite_r>:
  406b1c:	6893      	ldr	r3, [r2, #8]
  406b1e:	2b00      	cmp	r3, #0
  406b20:	d073      	beq.n	406c0a <__sfvwrite_r+0xee>
  406b22:	e92d 4ff0 	stmdb	sp!, {r4, r5, r6, r7, r8, r9, sl, fp, lr}
  406b26:	898b      	ldrh	r3, [r1, #12]
  406b28:	b083      	sub	sp, #12
  406b2a:	460c      	mov	r4, r1
  406b2c:	0719      	lsls	r1, r3, #28
  406b2e:	9000      	str	r0, [sp, #0]
  406b30:	4616      	mov	r6, r2
  406b32:	d526      	bpl.n	406b82 <__sfvwrite_r+0x66>
  406b34:	6922      	ldr	r2, [r4, #16]
  406b36:	b322      	cbz	r2, 406b82 <__sfvwrite_r+0x66>
  406b38:	f013 0002 	ands.w	r0, r3, #2
  406b3c:	6835      	ldr	r5, [r6, #0]
  406b3e:	d02c      	beq.n	406b9a <__sfvwrite_r+0x7e>
  406b40:	f04f 0900 	mov.w	r9, #0
  406b44:	4fb0      	ldr	r7, [pc, #704]	; (406e08 <__sfvwrite_r+0x2ec>)
  406b46:	46c8      	mov	r8, r9
  406b48:	46b2      	mov	sl, r6
  406b4a:	45b8      	cmp	r8, r7
  406b4c:	4643      	mov	r3, r8
  406b4e:	464a      	mov	r2, r9
  406b50:	bf28      	it	cs
  406b52:	463b      	movcs	r3, r7
  406b54:	9800      	ldr	r0, [sp, #0]
  406b56:	f1b8 0f00 	cmp.w	r8, #0
  406b5a:	d050      	beq.n	406bfe <__sfvwrite_r+0xe2>
  406b5c:	69e1      	ldr	r1, [r4, #28]
  406b5e:	6a66      	ldr	r6, [r4, #36]	; 0x24
  406b60:	47b0      	blx	r6
  406b62:	2800      	cmp	r0, #0
  406b64:	dd58      	ble.n	406c18 <__sfvwrite_r+0xfc>
  406b66:	f8da 3008 	ldr.w	r3, [sl, #8]
  406b6a:	1a1b      	subs	r3, r3, r0
  406b6c:	4481      	add	r9, r0
  406b6e:	eba8 0800 	sub.w	r8, r8, r0
  406b72:	f8ca 3008 	str.w	r3, [sl, #8]
  406b76:	2b00      	cmp	r3, #0
  406b78:	d1e7      	bne.n	406b4a <__sfvwrite_r+0x2e>
  406b7a:	2000      	movs	r0, #0
  406b7c:	b003      	add	sp, #12
  406b7e:	e8bd 8ff0 	ldmia.w	sp!, {r4, r5, r6, r7, r8, r9, sl, fp, pc}
  406b82:	4621      	mov	r1, r4
  406b84:	9800      	ldr	r0, [sp, #0]
  406b86:	f7fe fd17 	bl	4055b8 <__swsetup_r>
  406b8a:	2800      	cmp	r0, #0
  406b8c:	f040 8133 	bne.w	406df6 <__sfvwrite_r+0x2da>
  406b90:	89a3      	ldrh	r3, [r4, #12]
  406b92:	6835      	ldr	r5, [r6, #0]
  406b94:	f013 0002 	ands.w	r0, r3, #2
  406b98:	d1d2      	bne.n	406b40 <__sfvwrite_r+0x24>
  406b9a:	f013 0901 	ands.w	r9, r3, #1
  406b9e:	d145      	bne.n	406c2c <__sfvwrite_r+0x110>
  406ba0:	464f      	mov	r7, r9
  406ba2:	9601      	str	r6, [sp, #4]
  406ba4:	b337      	cbz	r7, 406bf4 <__sfvwrite_r+0xd8>
  406ba6:	059a      	lsls	r2, r3, #22
  406ba8:	f8d4 8008 	ldr.w	r8, [r4, #8]
  406bac:	f140 8083 	bpl.w	406cb6 <__sfvwrite_r+0x19a>
  406bb0:	4547      	cmp	r7, r8
  406bb2:	46c3      	mov	fp, r8
  406bb4:	f0c0 80ab 	bcc.w	406d0e <__sfvwrite_r+0x1f2>
  406bb8:	f413 6f90 	tst.w	r3, #1152	; 0x480
  406bbc:	f040 80ac 	bne.w	406d18 <__sfvwrite_r+0x1fc>
  406bc0:	6820      	ldr	r0, [r4, #0]
  406bc2:	46ba      	mov	sl, r7
  406bc4:	465a      	mov	r2, fp
  406bc6:	4649      	mov	r1, r9
  406bc8:	f000 fa2a 	bl	407020 <memmove>
  406bcc:	68a2      	ldr	r2, [r4, #8]
  406bce:	6823      	ldr	r3, [r4, #0]
  406bd0:	eba2 0208 	sub.w	r2, r2, r8
  406bd4:	445b      	add	r3, fp
  406bd6:	60a2      	str	r2, [r4, #8]
  406bd8:	6023      	str	r3, [r4, #0]
  406bda:	9a01      	ldr	r2, [sp, #4]
  406bdc:	6893      	ldr	r3, [r2, #8]
  406bde:	eba3 030a 	sub.w	r3, r3, sl
  406be2:	44d1      	add	r9, sl
  406be4:	eba7 070a 	sub.w	r7, r7, sl
  406be8:	6093      	str	r3, [r2, #8]
  406bea:	2b00      	cmp	r3, #0
  406bec:	d0c5      	beq.n	406b7a <__sfvwrite_r+0x5e>
  406bee:	89a3      	ldrh	r3, [r4, #12]
  406bf0:	2f00      	cmp	r7, #0
  406bf2:	d1d8      	bne.n	406ba6 <__sfvwrite_r+0x8a>
  406bf4:	f8d5 9000 	ldr.w	r9, [r5]
  406bf8:	686f      	ldr	r7, [r5, #4]
  406bfa:	3508      	adds	r5, #8
  406bfc:	e7d2      	b.n	406ba4 <__sfvwrite_r+0x88>
  406bfe:	f8d5 9000 	ldr.w	r9, [r5]
  406c02:	f8d5 8004 	ldr.w	r8, [r5, #4]
  406c06:	3508      	adds	r5, #8
  406c08:	e79f      	b.n	406b4a <__sfvwrite_r+0x2e>
  406c0a:	2000      	movs	r0, #0
  406c0c:	4770      	bx	lr
  406c0e:	4621      	mov	r1, r4
  406c10:	9800      	ldr	r0, [sp, #0]
  406c12:	f7ff fda3 	bl	40675c <_fflush_r>
  406c16:	b370      	cbz	r0, 406c76 <__sfvwrite_r+0x15a>
  406c18:	f9b4 300c 	ldrsh.w	r3, [r4, #12]
  406c1c:	f043 0340 	orr.w	r3, r3, #64	; 0x40
  406c20:	f04f 30ff 	mov.w	r0, #4294967295
  406c24:	81a3      	strh	r3, [r4, #12]
  406c26:	b003      	add	sp, #12
  406c28:	e8bd 8ff0 	ldmia.w	sp!, {r4, r5, r6, r7, r8, r9, sl, fp, pc}
  406c2c:	4681      	mov	r9, r0
  406c2e:	4633      	mov	r3, r6
  406c30:	464e      	mov	r6, r9
  406c32:	46a8      	mov	r8, r5
  406c34:	469a      	mov	sl, r3
  406c36:	464d      	mov	r5, r9
  406c38:	b34e      	cbz	r6, 406c8e <__sfvwrite_r+0x172>
  406c3a:	b380      	cbz	r0, 406c9e <__sfvwrite_r+0x182>
  406c3c:	6820      	ldr	r0, [r4, #0]
  406c3e:	6923      	ldr	r3, [r4, #16]
  406c40:	6962      	ldr	r2, [r4, #20]
  406c42:	45b1      	cmp	r9, r6
  406c44:	46cb      	mov	fp, r9
  406c46:	bf28      	it	cs
  406c48:	46b3      	movcs	fp, r6
  406c4a:	4298      	cmp	r0, r3
  406c4c:	465f      	mov	r7, fp
  406c4e:	d904      	bls.n	406c5a <__sfvwrite_r+0x13e>
  406c50:	68a3      	ldr	r3, [r4, #8]
  406c52:	4413      	add	r3, r2
  406c54:	459b      	cmp	fp, r3
  406c56:	f300 80a6 	bgt.w	406da6 <__sfvwrite_r+0x28a>
  406c5a:	4593      	cmp	fp, r2
  406c5c:	db4b      	blt.n	406cf6 <__sfvwrite_r+0x1da>
  406c5e:	4613      	mov	r3, r2
  406c60:	6a67      	ldr	r7, [r4, #36]	; 0x24
  406c62:	69e1      	ldr	r1, [r4, #28]
  406c64:	9800      	ldr	r0, [sp, #0]
  406c66:	462a      	mov	r2, r5
  406c68:	47b8      	blx	r7
  406c6a:	1e07      	subs	r7, r0, #0
  406c6c:	ddd4      	ble.n	406c18 <__sfvwrite_r+0xfc>
  406c6e:	ebb9 0907 	subs.w	r9, r9, r7
  406c72:	d0cc      	beq.n	406c0e <__sfvwrite_r+0xf2>
  406c74:	2001      	movs	r0, #1
  406c76:	f8da 3008 	ldr.w	r3, [sl, #8]
  406c7a:	1bdb      	subs	r3, r3, r7
  406c7c:	443d      	add	r5, r7
  406c7e:	1bf6      	subs	r6, r6, r7
  406c80:	f8ca 3008 	str.w	r3, [sl, #8]
  406c84:	2b00      	cmp	r3, #0
  406c86:	f43f af78 	beq.w	406b7a <__sfvwrite_r+0x5e>
  406c8a:	2e00      	cmp	r6, #0
  406c8c:	d1d5      	bne.n	406c3a <__sfvwrite_r+0x11e>
  406c8e:	f108 0308 	add.w	r3, r8, #8
  406c92:	e913 0060 	ldmdb	r3, {r5, r6}
  406c96:	4698      	mov	r8, r3
  406c98:	3308      	adds	r3, #8
  406c9a:	2e00      	cmp	r6, #0
  406c9c:	d0f9      	beq.n	406c92 <__sfvwrite_r+0x176>
  406c9e:	4632      	mov	r2, r6
  406ca0:	210a      	movs	r1, #10
  406ca2:	4628      	mov	r0, r5
  406ca4:	f000 f96c 	bl	406f80 <memchr>
  406ca8:	2800      	cmp	r0, #0
  406caa:	f000 80a1 	beq.w	406df0 <__sfvwrite_r+0x2d4>
  406cae:	3001      	adds	r0, #1
  406cb0:	eba0 0905 	sub.w	r9, r0, r5
  406cb4:	e7c2      	b.n	406c3c <__sfvwrite_r+0x120>
  406cb6:	6820      	ldr	r0, [r4, #0]
  406cb8:	6923      	ldr	r3, [r4, #16]
  406cba:	4298      	cmp	r0, r3
  406cbc:	d802      	bhi.n	406cc4 <__sfvwrite_r+0x1a8>
  406cbe:	6963      	ldr	r3, [r4, #20]
  406cc0:	429f      	cmp	r7, r3
  406cc2:	d25d      	bcs.n	406d80 <__sfvwrite_r+0x264>
  406cc4:	45b8      	cmp	r8, r7
  406cc6:	bf28      	it	cs
  406cc8:	46b8      	movcs	r8, r7
  406cca:	4642      	mov	r2, r8
  406ccc:	4649      	mov	r1, r9
  406cce:	f000 f9a7 	bl	407020 <memmove>
  406cd2:	68a3      	ldr	r3, [r4, #8]
  406cd4:	6822      	ldr	r2, [r4, #0]
  406cd6:	eba3 0308 	sub.w	r3, r3, r8
  406cda:	4442      	add	r2, r8
  406cdc:	60a3      	str	r3, [r4, #8]
  406cde:	6022      	str	r2, [r4, #0]
  406ce0:	b10b      	cbz	r3, 406ce6 <__sfvwrite_r+0x1ca>
  406ce2:	46c2      	mov	sl, r8
  406ce4:	e779      	b.n	406bda <__sfvwrite_r+0xbe>
  406ce6:	4621      	mov	r1, r4
  406ce8:	9800      	ldr	r0, [sp, #0]
  406cea:	f7ff fd37 	bl	40675c <_fflush_r>
  406cee:	2800      	cmp	r0, #0
  406cf0:	d192      	bne.n	406c18 <__sfvwrite_r+0xfc>
  406cf2:	46c2      	mov	sl, r8
  406cf4:	e771      	b.n	406bda <__sfvwrite_r+0xbe>
  406cf6:	465a      	mov	r2, fp
  406cf8:	4629      	mov	r1, r5
  406cfa:	f000 f991 	bl	407020 <memmove>
  406cfe:	68a2      	ldr	r2, [r4, #8]
  406d00:	6823      	ldr	r3, [r4, #0]
  406d02:	eba2 020b 	sub.w	r2, r2, fp
  406d06:	445b      	add	r3, fp
  406d08:	60a2      	str	r2, [r4, #8]
  406d0a:	6023      	str	r3, [r4, #0]
  406d0c:	e7af      	b.n	406c6e <__sfvwrite_r+0x152>
  406d0e:	6820      	ldr	r0, [r4, #0]
  406d10:	46b8      	mov	r8, r7
  406d12:	46ba      	mov	sl, r7
  406d14:	46bb      	mov	fp, r7
  406d16:	e755      	b.n	406bc4 <__sfvwrite_r+0xa8>
  406d18:	6962      	ldr	r2, [r4, #20]
  406d1a:	6820      	ldr	r0, [r4, #0]
  406d1c:	6921      	ldr	r1, [r4, #16]
  406d1e:	eb02 0842 	add.w	r8, r2, r2, lsl #1
  406d22:	eba0 0a01 	sub.w	sl, r0, r1
  406d26:	eb08 78d8 	add.w	r8, r8, r8, lsr #31
  406d2a:	f10a 0001 	add.w	r0, sl, #1
  406d2e:	ea4f 0868 	mov.w	r8, r8, asr #1
  406d32:	4438      	add	r0, r7
  406d34:	4540      	cmp	r0, r8
  406d36:	4642      	mov	r2, r8
  406d38:	bf84      	itt	hi
  406d3a:	4680      	movhi	r8, r0
  406d3c:	4642      	movhi	r2, r8
  406d3e:	055b      	lsls	r3, r3, #21
  406d40:	d544      	bpl.n	406dcc <__sfvwrite_r+0x2b0>
  406d42:	4611      	mov	r1, r2
  406d44:	9800      	ldr	r0, [sp, #0]
  406d46:	f7fc fbd7 	bl	4034f8 <_malloc_r>
  406d4a:	4683      	mov	fp, r0
  406d4c:	2800      	cmp	r0, #0
  406d4e:	d055      	beq.n	406dfc <__sfvwrite_r+0x2e0>
  406d50:	4652      	mov	r2, sl
  406d52:	6921      	ldr	r1, [r4, #16]
  406d54:	f7fc fe80 	bl	403a58 <memcpy>
  406d58:	89a3      	ldrh	r3, [r4, #12]
  406d5a:	f423 6390 	bic.w	r3, r3, #1152	; 0x480
  406d5e:	f043 0380 	orr.w	r3, r3, #128	; 0x80
  406d62:	81a3      	strh	r3, [r4, #12]
  406d64:	eb0b 000a 	add.w	r0, fp, sl
  406d68:	eba8 030a 	sub.w	r3, r8, sl
  406d6c:	f8c4 b010 	str.w	fp, [r4, #16]
  406d70:	f8c4 8014 	str.w	r8, [r4, #20]
  406d74:	6020      	str	r0, [r4, #0]
  406d76:	60a3      	str	r3, [r4, #8]
  406d78:	46b8      	mov	r8, r7
  406d7a:	46ba      	mov	sl, r7
  406d7c:	46bb      	mov	fp, r7
  406d7e:	e721      	b.n	406bc4 <__sfvwrite_r+0xa8>
  406d80:	f06f 4100 	mvn.w	r1, #2147483648	; 0x80000000
  406d84:	42b9      	cmp	r1, r7
  406d86:	bf28      	it	cs
  406d88:	4639      	movcs	r1, r7
  406d8a:	464a      	mov	r2, r9
  406d8c:	fb91 f1f3 	sdiv	r1, r1, r3
  406d90:	9800      	ldr	r0, [sp, #0]
  406d92:	6a66      	ldr	r6, [r4, #36]	; 0x24
  406d94:	fb03 f301 	mul.w	r3, r3, r1
  406d98:	69e1      	ldr	r1, [r4, #28]
  406d9a:	47b0      	blx	r6
  406d9c:	f1b0 0a00 	subs.w	sl, r0, #0
  406da0:	f73f af1b 	bgt.w	406bda <__sfvwrite_r+0xbe>
  406da4:	e738      	b.n	406c18 <__sfvwrite_r+0xfc>
  406da6:	461a      	mov	r2, r3
  406da8:	4629      	mov	r1, r5
  406daa:	9301      	str	r3, [sp, #4]
  406dac:	f000 f938 	bl	407020 <memmove>
  406db0:	6822      	ldr	r2, [r4, #0]
  406db2:	9b01      	ldr	r3, [sp, #4]
  406db4:	9800      	ldr	r0, [sp, #0]
  406db6:	441a      	add	r2, r3
  406db8:	6022      	str	r2, [r4, #0]
  406dba:	4621      	mov	r1, r4
  406dbc:	f7ff fcce 	bl	40675c <_fflush_r>
  406dc0:	9b01      	ldr	r3, [sp, #4]
  406dc2:	2800      	cmp	r0, #0
  406dc4:	f47f af28 	bne.w	406c18 <__sfvwrite_r+0xfc>
  406dc8:	461f      	mov	r7, r3
  406dca:	e750      	b.n	406c6e <__sfvwrite_r+0x152>
  406dcc:	9800      	ldr	r0, [sp, #0]
  406dce:	f000 fc85 	bl	4076dc <_realloc_r>
  406dd2:	4683      	mov	fp, r0
  406dd4:	2800      	cmp	r0, #0
  406dd6:	d1c5      	bne.n	406d64 <__sfvwrite_r+0x248>
  406dd8:	9d00      	ldr	r5, [sp, #0]
  406dda:	6921      	ldr	r1, [r4, #16]
  406ddc:	4628      	mov	r0, r5
  406dde:	f7ff fdb7 	bl	406950 <_free_r>
  406de2:	f9b4 300c 	ldrsh.w	r3, [r4, #12]
  406de6:	220c      	movs	r2, #12
  406de8:	f023 0380 	bic.w	r3, r3, #128	; 0x80
  406dec:	602a      	str	r2, [r5, #0]
  406dee:	e715      	b.n	406c1c <__sfvwrite_r+0x100>
  406df0:	f106 0901 	add.w	r9, r6, #1
  406df4:	e722      	b.n	406c3c <__sfvwrite_r+0x120>
  406df6:	f04f 30ff 	mov.w	r0, #4294967295
  406dfa:	e6bf      	b.n	406b7c <__sfvwrite_r+0x60>
  406dfc:	9a00      	ldr	r2, [sp, #0]
  406dfe:	230c      	movs	r3, #12
  406e00:	6013      	str	r3, [r2, #0]
  406e02:	f9b4 300c 	ldrsh.w	r3, [r4, #12]
  406e06:	e709      	b.n	406c1c <__sfvwrite_r+0x100>
  406e08:	7ffffc00 	.word	0x7ffffc00

00406e0c <_fwalk_reent>:
  406e0c:	e92d 43f8 	stmdb	sp!, {r3, r4, r5, r6, r7, r8, r9, lr}
  406e10:	f510 7738 	adds.w	r7, r0, #736	; 0x2e0
  406e14:	d01f      	beq.n	406e56 <_fwalk_reent+0x4a>
  406e16:	4688      	mov	r8, r1
  406e18:	4606      	mov	r6, r0
  406e1a:	f04f 0900 	mov.w	r9, #0
  406e1e:	687d      	ldr	r5, [r7, #4]
  406e20:	68bc      	ldr	r4, [r7, #8]
  406e22:	3d01      	subs	r5, #1
  406e24:	d411      	bmi.n	406e4a <_fwalk_reent+0x3e>
  406e26:	89a3      	ldrh	r3, [r4, #12]
  406e28:	2b01      	cmp	r3, #1
  406e2a:	f105 35ff 	add.w	r5, r5, #4294967295
  406e2e:	d908      	bls.n	406e42 <_fwalk_reent+0x36>
  406e30:	f9b4 300e 	ldrsh.w	r3, [r4, #14]
  406e34:	3301      	adds	r3, #1
  406e36:	4621      	mov	r1, r4
  406e38:	4630      	mov	r0, r6
  406e3a:	d002      	beq.n	406e42 <_fwalk_reent+0x36>
  406e3c:	47c0      	blx	r8
  406e3e:	ea49 0900 	orr.w	r9, r9, r0
  406e42:	1c6b      	adds	r3, r5, #1
  406e44:	f104 0468 	add.w	r4, r4, #104	; 0x68
  406e48:	d1ed      	bne.n	406e26 <_fwalk_reent+0x1a>
  406e4a:	683f      	ldr	r7, [r7, #0]
  406e4c:	2f00      	cmp	r7, #0
  406e4e:	d1e6      	bne.n	406e1e <_fwalk_reent+0x12>
  406e50:	4648      	mov	r0, r9
  406e52:	e8bd 83f8 	ldmia.w	sp!, {r3, r4, r5, r6, r7, r8, r9, pc}
  406e56:	46b9      	mov	r9, r7
  406e58:	4648      	mov	r0, r9
  406e5a:	e8bd 83f8 	ldmia.w	sp!, {r3, r4, r5, r6, r7, r8, r9, pc}
  406e5e:	bf00      	nop

00406e60 <_localeconv_r>:
  406e60:	4a04      	ldr	r2, [pc, #16]	; (406e74 <_localeconv_r+0x14>)
  406e62:	4b05      	ldr	r3, [pc, #20]	; (406e78 <_localeconv_r+0x18>)
  406e64:	6812      	ldr	r2, [r2, #0]
  406e66:	6b50      	ldr	r0, [r2, #52]	; 0x34
  406e68:	2800      	cmp	r0, #0
  406e6a:	bf08      	it	eq
  406e6c:	4618      	moveq	r0, r3
  406e6e:	30f0      	adds	r0, #240	; 0xf0
  406e70:	4770      	bx	lr
  406e72:	bf00      	nop
  406e74:	20400014 	.word	0x20400014
  406e78:	20400854 	.word	0x20400854

00406e7c <__retarget_lock_init_recursive>:
  406e7c:	4770      	bx	lr
  406e7e:	bf00      	nop

00406e80 <__retarget_lock_close_recursive>:
  406e80:	4770      	bx	lr
  406e82:	bf00      	nop

00406e84 <__retarget_lock_acquire_recursive>:
  406e84:	4770      	bx	lr
  406e86:	bf00      	nop

00406e88 <__retarget_lock_release_recursive>:
  406e88:	4770      	bx	lr
  406e8a:	bf00      	nop

00406e8c <__swhatbuf_r>:
  406e8c:	b570      	push	{r4, r5, r6, lr}
  406e8e:	460c      	mov	r4, r1
  406e90:	f9b1 100e 	ldrsh.w	r1, [r1, #14]
  406e94:	2900      	cmp	r1, #0
  406e96:	b090      	sub	sp, #64	; 0x40
  406e98:	4615      	mov	r5, r2
  406e9a:	461e      	mov	r6, r3
  406e9c:	db14      	blt.n	406ec8 <__swhatbuf_r+0x3c>
  406e9e:	aa01      	add	r2, sp, #4
  406ea0:	f000 fff0 	bl	407e84 <_fstat_r>
  406ea4:	2800      	cmp	r0, #0
  406ea6:	db0f      	blt.n	406ec8 <__swhatbuf_r+0x3c>
  406ea8:	9a02      	ldr	r2, [sp, #8]
  406eaa:	f402 4270 	and.w	r2, r2, #61440	; 0xf000
  406eae:	f5a2 5200 	sub.w	r2, r2, #8192	; 0x2000
  406eb2:	fab2 f282 	clz	r2, r2
  406eb6:	0952      	lsrs	r2, r2, #5
  406eb8:	f44f 6380 	mov.w	r3, #1024	; 0x400
  406ebc:	f44f 6000 	mov.w	r0, #2048	; 0x800
  406ec0:	6032      	str	r2, [r6, #0]
  406ec2:	602b      	str	r3, [r5, #0]
  406ec4:	b010      	add	sp, #64	; 0x40
  406ec6:	bd70      	pop	{r4, r5, r6, pc}
  406ec8:	89a2      	ldrh	r2, [r4, #12]
  406eca:	2300      	movs	r3, #0
  406ecc:	f012 0080 	ands.w	r0, r2, #128	; 0x80
  406ed0:	6033      	str	r3, [r6, #0]
  406ed2:	d004      	beq.n	406ede <__swhatbuf_r+0x52>
  406ed4:	2240      	movs	r2, #64	; 0x40
  406ed6:	4618      	mov	r0, r3
  406ed8:	602a      	str	r2, [r5, #0]
  406eda:	b010      	add	sp, #64	; 0x40
  406edc:	bd70      	pop	{r4, r5, r6, pc}
  406ede:	f44f 6380 	mov.w	r3, #1024	; 0x400
  406ee2:	602b      	str	r3, [r5, #0]
  406ee4:	b010      	add	sp, #64	; 0x40
  406ee6:	bd70      	pop	{r4, r5, r6, pc}

00406ee8 <__smakebuf_r>:
  406ee8:	898a      	ldrh	r2, [r1, #12]
  406eea:	0792      	lsls	r2, r2, #30
  406eec:	460b      	mov	r3, r1
  406eee:	d506      	bpl.n	406efe <__smakebuf_r+0x16>
  406ef0:	f101 0243 	add.w	r2, r1, #67	; 0x43
  406ef4:	2101      	movs	r1, #1
  406ef6:	601a      	str	r2, [r3, #0]
  406ef8:	611a      	str	r2, [r3, #16]
  406efa:	6159      	str	r1, [r3, #20]
  406efc:	4770      	bx	lr
  406efe:	b5f0      	push	{r4, r5, r6, r7, lr}
  406f00:	b083      	sub	sp, #12
  406f02:	ab01      	add	r3, sp, #4
  406f04:	466a      	mov	r2, sp
  406f06:	460c      	mov	r4, r1
  406f08:	4606      	mov	r6, r0
  406f0a:	f7ff ffbf 	bl	406e8c <__swhatbuf_r>
  406f0e:	9900      	ldr	r1, [sp, #0]
  406f10:	4605      	mov	r5, r0
  406f12:	4630      	mov	r0, r6
  406f14:	f7fc faf0 	bl	4034f8 <_malloc_r>
  406f18:	f9b4 300c 	ldrsh.w	r3, [r4, #12]
  406f1c:	b1d8      	cbz	r0, 406f56 <__smakebuf_r+0x6e>
  406f1e:	9a01      	ldr	r2, [sp, #4]
  406f20:	4f15      	ldr	r7, [pc, #84]	; (406f78 <__smakebuf_r+0x90>)
  406f22:	9900      	ldr	r1, [sp, #0]
  406f24:	63f7      	str	r7, [r6, #60]	; 0x3c
  406f26:	f043 0380 	orr.w	r3, r3, #128	; 0x80
  406f2a:	81a3      	strh	r3, [r4, #12]
  406f2c:	6020      	str	r0, [r4, #0]
  406f2e:	6120      	str	r0, [r4, #16]
  406f30:	6161      	str	r1, [r4, #20]
  406f32:	b91a      	cbnz	r2, 406f3c <__smakebuf_r+0x54>
  406f34:	432b      	orrs	r3, r5
  406f36:	81a3      	strh	r3, [r4, #12]
  406f38:	b003      	add	sp, #12
  406f3a:	bdf0      	pop	{r4, r5, r6, r7, pc}
  406f3c:	4630      	mov	r0, r6
  406f3e:	f9b4 100e 	ldrsh.w	r1, [r4, #14]
  406f42:	f000 ffb3 	bl	407eac <_isatty_r>
  406f46:	b1a0      	cbz	r0, 406f72 <__smakebuf_r+0x8a>
  406f48:	89a3      	ldrh	r3, [r4, #12]
  406f4a:	f023 0303 	bic.w	r3, r3, #3
  406f4e:	f043 0301 	orr.w	r3, r3, #1
  406f52:	b21b      	sxth	r3, r3
  406f54:	e7ee      	b.n	406f34 <__smakebuf_r+0x4c>
  406f56:	059a      	lsls	r2, r3, #22
  406f58:	d4ee      	bmi.n	406f38 <__smakebuf_r+0x50>
  406f5a:	f023 0303 	bic.w	r3, r3, #3
  406f5e:	f104 0243 	add.w	r2, r4, #67	; 0x43
  406f62:	f043 0302 	orr.w	r3, r3, #2
  406f66:	2101      	movs	r1, #1
  406f68:	81a3      	strh	r3, [r4, #12]
  406f6a:	6022      	str	r2, [r4, #0]
  406f6c:	6122      	str	r2, [r4, #16]
  406f6e:	6161      	str	r1, [r4, #20]
  406f70:	e7e2      	b.n	406f38 <__smakebuf_r+0x50>
  406f72:	f9b4 300c 	ldrsh.w	r3, [r4, #12]
  406f76:	e7dd      	b.n	406f34 <__smakebuf_r+0x4c>
  406f78:	004067b1 	.word	0x004067b1
  406f7c:	00000000 	.word	0x00000000

00406f80 <memchr>:
  406f80:	f001 01ff 	and.w	r1, r1, #255	; 0xff
  406f84:	2a10      	cmp	r2, #16
  406f86:	db2b      	blt.n	406fe0 <memchr+0x60>
  406f88:	f010 0f07 	tst.w	r0, #7
  406f8c:	d008      	beq.n	406fa0 <memchr+0x20>
  406f8e:	f810 3b01 	ldrb.w	r3, [r0], #1
  406f92:	3a01      	subs	r2, #1
  406f94:	428b      	cmp	r3, r1
  406f96:	d02d      	beq.n	406ff4 <memchr+0x74>
  406f98:	f010 0f07 	tst.w	r0, #7
  406f9c:	b342      	cbz	r2, 406ff0 <memchr+0x70>
  406f9e:	d1f6      	bne.n	406f8e <memchr+0xe>
  406fa0:	b4f0      	push	{r4, r5, r6, r7}
  406fa2:	ea41 2101 	orr.w	r1, r1, r1, lsl #8
  406fa6:	ea41 4101 	orr.w	r1, r1, r1, lsl #16
  406faa:	f022 0407 	bic.w	r4, r2, #7
  406fae:	f07f 0700 	mvns.w	r7, #0
  406fb2:	2300      	movs	r3, #0
  406fb4:	e8f0 5602 	ldrd	r5, r6, [r0], #8
  406fb8:	3c08      	subs	r4, #8
  406fba:	ea85 0501 	eor.w	r5, r5, r1
  406fbe:	ea86 0601 	eor.w	r6, r6, r1
  406fc2:	fa85 f547 	uadd8	r5, r5, r7
  406fc6:	faa3 f587 	sel	r5, r3, r7
  406fca:	fa86 f647 	uadd8	r6, r6, r7
  406fce:	faa5 f687 	sel	r6, r5, r7
  406fd2:	b98e      	cbnz	r6, 406ff8 <memchr+0x78>
  406fd4:	d1ee      	bne.n	406fb4 <memchr+0x34>
  406fd6:	bcf0      	pop	{r4, r5, r6, r7}
  406fd8:	f001 01ff 	and.w	r1, r1, #255	; 0xff
  406fdc:	f002 0207 	and.w	r2, r2, #7
  406fe0:	b132      	cbz	r2, 406ff0 <memchr+0x70>
  406fe2:	f810 3b01 	ldrb.w	r3, [r0], #1
  406fe6:	3a01      	subs	r2, #1
  406fe8:	ea83 0301 	eor.w	r3, r3, r1
  406fec:	b113      	cbz	r3, 406ff4 <memchr+0x74>
  406fee:	d1f8      	bne.n	406fe2 <memchr+0x62>
  406ff0:	2000      	movs	r0, #0
  406ff2:	4770      	bx	lr
  406ff4:	3801      	subs	r0, #1
  406ff6:	4770      	bx	lr
  406ff8:	2d00      	cmp	r5, #0
  406ffa:	bf06      	itte	eq
  406ffc:	4635      	moveq	r5, r6
  406ffe:	3803      	subeq	r0, #3
  407000:	3807      	subne	r0, #7
  407002:	f015 0f01 	tst.w	r5, #1
  407006:	d107      	bne.n	407018 <memchr+0x98>
  407008:	3001      	adds	r0, #1
  40700a:	f415 7f80 	tst.w	r5, #256	; 0x100
  40700e:	bf02      	ittt	eq
  407010:	3001      	addeq	r0, #1
  407012:	f415 3fc0 	tsteq.w	r5, #98304	; 0x18000
  407016:	3001      	addeq	r0, #1
  407018:	bcf0      	pop	{r4, r5, r6, r7}
  40701a:	3801      	subs	r0, #1
  40701c:	4770      	bx	lr
  40701e:	bf00      	nop

00407020 <memmove>:
  407020:	4288      	cmp	r0, r1
  407022:	b5f0      	push	{r4, r5, r6, r7, lr}
  407024:	d90d      	bls.n	407042 <memmove+0x22>
  407026:	188b      	adds	r3, r1, r2
  407028:	4298      	cmp	r0, r3
  40702a:	d20a      	bcs.n	407042 <memmove+0x22>
  40702c:	1884      	adds	r4, r0, r2
  40702e:	2a00      	cmp	r2, #0
  407030:	d051      	beq.n	4070d6 <memmove+0xb6>
  407032:	4622      	mov	r2, r4
  407034:	f813 4d01 	ldrb.w	r4, [r3, #-1]!
  407038:	f802 4d01 	strb.w	r4, [r2, #-1]!
  40703c:	4299      	cmp	r1, r3
  40703e:	d1f9      	bne.n	407034 <memmove+0x14>
  407040:	bdf0      	pop	{r4, r5, r6, r7, pc}
  407042:	2a0f      	cmp	r2, #15
  407044:	d948      	bls.n	4070d8 <memmove+0xb8>
  407046:	ea41 0300 	orr.w	r3, r1, r0
  40704a:	079b      	lsls	r3, r3, #30
  40704c:	d146      	bne.n	4070dc <memmove+0xbc>
  40704e:	f100 0410 	add.w	r4, r0, #16
  407052:	f101 0310 	add.w	r3, r1, #16
  407056:	4615      	mov	r5, r2
  407058:	f853 6c10 	ldr.w	r6, [r3, #-16]
  40705c:	f844 6c10 	str.w	r6, [r4, #-16]
  407060:	f853 6c0c 	ldr.w	r6, [r3, #-12]
  407064:	f844 6c0c 	str.w	r6, [r4, #-12]
  407068:	f853 6c08 	ldr.w	r6, [r3, #-8]
  40706c:	f844 6c08 	str.w	r6, [r4, #-8]
  407070:	3d10      	subs	r5, #16
  407072:	f853 6c04 	ldr.w	r6, [r3, #-4]
  407076:	f844 6c04 	str.w	r6, [r4, #-4]
  40707a:	2d0f      	cmp	r5, #15
  40707c:	f103 0310 	add.w	r3, r3, #16
  407080:	f104 0410 	add.w	r4, r4, #16
  407084:	d8e8      	bhi.n	407058 <memmove+0x38>
  407086:	f1a2 0310 	sub.w	r3, r2, #16
  40708a:	f023 030f 	bic.w	r3, r3, #15
  40708e:	f002 0e0f 	and.w	lr, r2, #15
  407092:	3310      	adds	r3, #16
  407094:	f1be 0f03 	cmp.w	lr, #3
  407098:	4419      	add	r1, r3
  40709a:	4403      	add	r3, r0
  40709c:	d921      	bls.n	4070e2 <memmove+0xc2>
  40709e:	1f1e      	subs	r6, r3, #4
  4070a0:	460d      	mov	r5, r1
  4070a2:	4674      	mov	r4, lr
  4070a4:	3c04      	subs	r4, #4
  4070a6:	f855 7b04 	ldr.w	r7, [r5], #4
  4070aa:	f846 7f04 	str.w	r7, [r6, #4]!
  4070ae:	2c03      	cmp	r4, #3
  4070b0:	d8f8      	bhi.n	4070a4 <memmove+0x84>
  4070b2:	f1ae 0404 	sub.w	r4, lr, #4
  4070b6:	f024 0403 	bic.w	r4, r4, #3
  4070ba:	3404      	adds	r4, #4
  4070bc:	4421      	add	r1, r4
  4070be:	4423      	add	r3, r4
  4070c0:	f002 0203 	and.w	r2, r2, #3
  4070c4:	b162      	cbz	r2, 4070e0 <memmove+0xc0>
  4070c6:	3b01      	subs	r3, #1
  4070c8:	440a      	add	r2, r1
  4070ca:	f811 4b01 	ldrb.w	r4, [r1], #1
  4070ce:	f803 4f01 	strb.w	r4, [r3, #1]!
  4070d2:	428a      	cmp	r2, r1
  4070d4:	d1f9      	bne.n	4070ca <memmove+0xaa>
  4070d6:	bdf0      	pop	{r4, r5, r6, r7, pc}
  4070d8:	4603      	mov	r3, r0
  4070da:	e7f3      	b.n	4070c4 <memmove+0xa4>
  4070dc:	4603      	mov	r3, r0
  4070de:	e7f2      	b.n	4070c6 <memmove+0xa6>
  4070e0:	bdf0      	pop	{r4, r5, r6, r7, pc}
  4070e2:	4672      	mov	r2, lr
  4070e4:	e7ee      	b.n	4070c4 <memmove+0xa4>
  4070e6:	bf00      	nop

004070e8 <_Balloc>:
  4070e8:	6cc3      	ldr	r3, [r0, #76]	; 0x4c
  4070ea:	b570      	push	{r4, r5, r6, lr}
  4070ec:	4605      	mov	r5, r0
  4070ee:	460c      	mov	r4, r1
  4070f0:	b14b      	cbz	r3, 407106 <_Balloc+0x1e>
  4070f2:	f853 0024 	ldr.w	r0, [r3, r4, lsl #2]
  4070f6:	b180      	cbz	r0, 40711a <_Balloc+0x32>
  4070f8:	6802      	ldr	r2, [r0, #0]
  4070fa:	f843 2024 	str.w	r2, [r3, r4, lsl #2]
  4070fe:	2300      	movs	r3, #0
  407100:	6103      	str	r3, [r0, #16]
  407102:	60c3      	str	r3, [r0, #12]
  407104:	bd70      	pop	{r4, r5, r6, pc}
  407106:	2221      	movs	r2, #33	; 0x21
  407108:	2104      	movs	r1, #4
  40710a:	f000 fd93 	bl	407c34 <_calloc_r>
  40710e:	64e8      	str	r0, [r5, #76]	; 0x4c
  407110:	4603      	mov	r3, r0
  407112:	2800      	cmp	r0, #0
  407114:	d1ed      	bne.n	4070f2 <_Balloc+0xa>
  407116:	2000      	movs	r0, #0
  407118:	bd70      	pop	{r4, r5, r6, pc}
  40711a:	2101      	movs	r1, #1
  40711c:	fa01 f604 	lsl.w	r6, r1, r4
  407120:	1d72      	adds	r2, r6, #5
  407122:	4628      	mov	r0, r5
  407124:	0092      	lsls	r2, r2, #2
  407126:	f000 fd85 	bl	407c34 <_calloc_r>
  40712a:	2800      	cmp	r0, #0
  40712c:	d0f3      	beq.n	407116 <_Balloc+0x2e>
  40712e:	6044      	str	r4, [r0, #4]
  407130:	6086      	str	r6, [r0, #8]
  407132:	e7e4      	b.n	4070fe <_Balloc+0x16>

00407134 <_Bfree>:
  407134:	b131      	cbz	r1, 407144 <_Bfree+0x10>
  407136:	6cc3      	ldr	r3, [r0, #76]	; 0x4c
  407138:	684a      	ldr	r2, [r1, #4]
  40713a:	f853 0022 	ldr.w	r0, [r3, r2, lsl #2]
  40713e:	6008      	str	r0, [r1, #0]
  407140:	f843 1022 	str.w	r1, [r3, r2, lsl #2]
  407144:	4770      	bx	lr
  407146:	bf00      	nop

00407148 <__multadd>:
  407148:	b5f0      	push	{r4, r5, r6, r7, lr}
  40714a:	690c      	ldr	r4, [r1, #16]
  40714c:	b083      	sub	sp, #12
  40714e:	460d      	mov	r5, r1
  407150:	4606      	mov	r6, r0
  407152:	f101 0e14 	add.w	lr, r1, #20
  407156:	2700      	movs	r7, #0
  407158:	f8de 0000 	ldr.w	r0, [lr]
  40715c:	b281      	uxth	r1, r0
  40715e:	fb02 3301 	mla	r3, r2, r1, r3
  407162:	0c01      	lsrs	r1, r0, #16
  407164:	0c18      	lsrs	r0, r3, #16
  407166:	fb02 0101 	mla	r1, r2, r1, r0
  40716a:	b29b      	uxth	r3, r3
  40716c:	3701      	adds	r7, #1
  40716e:	eb03 4301 	add.w	r3, r3, r1, lsl #16
  407172:	42bc      	cmp	r4, r7
  407174:	f84e 3b04 	str.w	r3, [lr], #4
  407178:	ea4f 4311 	mov.w	r3, r1, lsr #16
  40717c:	dcec      	bgt.n	407158 <__multadd+0x10>
  40717e:	b13b      	cbz	r3, 407190 <__multadd+0x48>
  407180:	68aa      	ldr	r2, [r5, #8]
  407182:	4294      	cmp	r4, r2
  407184:	da07      	bge.n	407196 <__multadd+0x4e>
  407186:	eb05 0284 	add.w	r2, r5, r4, lsl #2
  40718a:	3401      	adds	r4, #1
  40718c:	6153      	str	r3, [r2, #20]
  40718e:	612c      	str	r4, [r5, #16]
  407190:	4628      	mov	r0, r5
  407192:	b003      	add	sp, #12
  407194:	bdf0      	pop	{r4, r5, r6, r7, pc}
  407196:	6869      	ldr	r1, [r5, #4]
  407198:	9301      	str	r3, [sp, #4]
  40719a:	3101      	adds	r1, #1
  40719c:	4630      	mov	r0, r6
  40719e:	f7ff ffa3 	bl	4070e8 <_Balloc>
  4071a2:	692a      	ldr	r2, [r5, #16]
  4071a4:	3202      	adds	r2, #2
  4071a6:	f105 010c 	add.w	r1, r5, #12
  4071aa:	4607      	mov	r7, r0
  4071ac:	0092      	lsls	r2, r2, #2
  4071ae:	300c      	adds	r0, #12
  4071b0:	f7fc fc52 	bl	403a58 <memcpy>
  4071b4:	6cf2      	ldr	r2, [r6, #76]	; 0x4c
  4071b6:	6869      	ldr	r1, [r5, #4]
  4071b8:	9b01      	ldr	r3, [sp, #4]
  4071ba:	f852 0021 	ldr.w	r0, [r2, r1, lsl #2]
  4071be:	6028      	str	r0, [r5, #0]
  4071c0:	f842 5021 	str.w	r5, [r2, r1, lsl #2]
  4071c4:	463d      	mov	r5, r7
  4071c6:	e7de      	b.n	407186 <__multadd+0x3e>

004071c8 <__hi0bits>:
  4071c8:	0c02      	lsrs	r2, r0, #16
  4071ca:	0412      	lsls	r2, r2, #16
  4071cc:	4603      	mov	r3, r0
  4071ce:	b9b2      	cbnz	r2, 4071fe <__hi0bits+0x36>
  4071d0:	0403      	lsls	r3, r0, #16
  4071d2:	2010      	movs	r0, #16
  4071d4:	f013 4f7f 	tst.w	r3, #4278190080	; 0xff000000
  4071d8:	bf04      	itt	eq
  4071da:	021b      	lsleq	r3, r3, #8
  4071dc:	3008      	addeq	r0, #8
  4071de:	f013 4f70 	tst.w	r3, #4026531840	; 0xf0000000
  4071e2:	bf04      	itt	eq
  4071e4:	011b      	lsleq	r3, r3, #4
  4071e6:	3004      	addeq	r0, #4
  4071e8:	f013 4f40 	tst.w	r3, #3221225472	; 0xc0000000
  4071ec:	bf04      	itt	eq
  4071ee:	009b      	lsleq	r3, r3, #2
  4071f0:	3002      	addeq	r0, #2
  4071f2:	2b00      	cmp	r3, #0
  4071f4:	db02      	blt.n	4071fc <__hi0bits+0x34>
  4071f6:	005b      	lsls	r3, r3, #1
  4071f8:	d403      	bmi.n	407202 <__hi0bits+0x3a>
  4071fa:	2020      	movs	r0, #32
  4071fc:	4770      	bx	lr
  4071fe:	2000      	movs	r0, #0
  407200:	e7e8      	b.n	4071d4 <__hi0bits+0xc>
  407202:	3001      	adds	r0, #1
  407204:	4770      	bx	lr
  407206:	bf00      	nop

00407208 <__lo0bits>:
  407208:	6803      	ldr	r3, [r0, #0]
  40720a:	f013 0207 	ands.w	r2, r3, #7
  40720e:	4601      	mov	r1, r0
  407210:	d007      	beq.n	407222 <__lo0bits+0x1a>
  407212:	07da      	lsls	r2, r3, #31
  407214:	d421      	bmi.n	40725a <__lo0bits+0x52>
  407216:	0798      	lsls	r0, r3, #30
  407218:	d421      	bmi.n	40725e <__lo0bits+0x56>
  40721a:	089b      	lsrs	r3, r3, #2
  40721c:	600b      	str	r3, [r1, #0]
  40721e:	2002      	movs	r0, #2
  407220:	4770      	bx	lr
  407222:	b298      	uxth	r0, r3
  407224:	b198      	cbz	r0, 40724e <__lo0bits+0x46>
  407226:	4610      	mov	r0, r2
  407228:	f013 0fff 	tst.w	r3, #255	; 0xff
  40722c:	bf04      	itt	eq
  40722e:	0a1b      	lsreq	r3, r3, #8
  407230:	3008      	addeq	r0, #8
  407232:	071a      	lsls	r2, r3, #28
  407234:	bf04      	itt	eq
  407236:	091b      	lsreq	r3, r3, #4
  407238:	3004      	addeq	r0, #4
  40723a:	079a      	lsls	r2, r3, #30
  40723c:	bf04      	itt	eq
  40723e:	089b      	lsreq	r3, r3, #2
  407240:	3002      	addeq	r0, #2
  407242:	07da      	lsls	r2, r3, #31
  407244:	d407      	bmi.n	407256 <__lo0bits+0x4e>
  407246:	085b      	lsrs	r3, r3, #1
  407248:	d104      	bne.n	407254 <__lo0bits+0x4c>
  40724a:	2020      	movs	r0, #32
  40724c:	4770      	bx	lr
  40724e:	0c1b      	lsrs	r3, r3, #16
  407250:	2010      	movs	r0, #16
  407252:	e7e9      	b.n	407228 <__lo0bits+0x20>
  407254:	3001      	adds	r0, #1
  407256:	600b      	str	r3, [r1, #0]
  407258:	4770      	bx	lr
  40725a:	2000      	movs	r0, #0
  40725c:	4770      	bx	lr
  40725e:	085b      	lsrs	r3, r3, #1
  407260:	600b      	str	r3, [r1, #0]
  407262:	2001      	movs	r0, #1
  407264:	4770      	bx	lr
  407266:	bf00      	nop

00407268 <__i2b>:
  407268:	b510      	push	{r4, lr}
  40726a:	460c      	mov	r4, r1
  40726c:	2101      	movs	r1, #1
  40726e:	f7ff ff3b 	bl	4070e8 <_Balloc>
  407272:	2201      	movs	r2, #1
  407274:	6144      	str	r4, [r0, #20]
  407276:	6102      	str	r2, [r0, #16]
  407278:	bd10      	pop	{r4, pc}
  40727a:	bf00      	nop

0040727c <__multiply>:
  40727c:	e92d 4ff0 	stmdb	sp!, {r4, r5, r6, r7, r8, r9, sl, fp, lr}
  407280:	690c      	ldr	r4, [r1, #16]
  407282:	6915      	ldr	r5, [r2, #16]
  407284:	42ac      	cmp	r4, r5
  407286:	b083      	sub	sp, #12
  407288:	468b      	mov	fp, r1
  40728a:	4616      	mov	r6, r2
  40728c:	da04      	bge.n	407298 <__multiply+0x1c>
  40728e:	4622      	mov	r2, r4
  407290:	46b3      	mov	fp, r6
  407292:	462c      	mov	r4, r5
  407294:	460e      	mov	r6, r1
  407296:	4615      	mov	r5, r2
  407298:	f8db 3008 	ldr.w	r3, [fp, #8]
  40729c:	f8db 1004 	ldr.w	r1, [fp, #4]
  4072a0:	eb04 0805 	add.w	r8, r4, r5
  4072a4:	4598      	cmp	r8, r3
  4072a6:	bfc8      	it	gt
  4072a8:	3101      	addgt	r1, #1
  4072aa:	f7ff ff1d 	bl	4070e8 <_Balloc>
  4072ae:	f100 0914 	add.w	r9, r0, #20
  4072b2:	eb09 0a88 	add.w	sl, r9, r8, lsl #2
  4072b6:	45d1      	cmp	r9, sl
  4072b8:	9000      	str	r0, [sp, #0]
  4072ba:	d205      	bcs.n	4072c8 <__multiply+0x4c>
  4072bc:	464b      	mov	r3, r9
  4072be:	2100      	movs	r1, #0
  4072c0:	f843 1b04 	str.w	r1, [r3], #4
  4072c4:	459a      	cmp	sl, r3
  4072c6:	d8fb      	bhi.n	4072c0 <__multiply+0x44>
  4072c8:	f106 0c14 	add.w	ip, r6, #20
  4072cc:	eb0c 0385 	add.w	r3, ip, r5, lsl #2
  4072d0:	f10b 0b14 	add.w	fp, fp, #20
  4072d4:	459c      	cmp	ip, r3
  4072d6:	eb0b 0e84 	add.w	lr, fp, r4, lsl #2
  4072da:	d24c      	bcs.n	407376 <__multiply+0xfa>
  4072dc:	f8cd a004 	str.w	sl, [sp, #4]
  4072e0:	469a      	mov	sl, r3
  4072e2:	f8dc 5000 	ldr.w	r5, [ip]
  4072e6:	b2af      	uxth	r7, r5
  4072e8:	b1ef      	cbz	r7, 407326 <__multiply+0xaa>
  4072ea:	2100      	movs	r1, #0
  4072ec:	464d      	mov	r5, r9
  4072ee:	465e      	mov	r6, fp
  4072f0:	460c      	mov	r4, r1
  4072f2:	f856 2b04 	ldr.w	r2, [r6], #4
  4072f6:	6828      	ldr	r0, [r5, #0]
  4072f8:	b293      	uxth	r3, r2
  4072fa:	b281      	uxth	r1, r0
  4072fc:	fb07 1303 	mla	r3, r7, r3, r1
  407300:	0c12      	lsrs	r2, r2, #16
  407302:	0c01      	lsrs	r1, r0, #16
  407304:	4423      	add	r3, r4
  407306:	fb07 1102 	mla	r1, r7, r2, r1
  40730a:	eb01 4113 	add.w	r1, r1, r3, lsr #16
  40730e:	b29b      	uxth	r3, r3
  407310:	ea43 4301 	orr.w	r3, r3, r1, lsl #16
  407314:	45b6      	cmp	lr, r6
  407316:	f845 3b04 	str.w	r3, [r5], #4
  40731a:	ea4f 4411 	mov.w	r4, r1, lsr #16
  40731e:	d8e8      	bhi.n	4072f2 <__multiply+0x76>
  407320:	602c      	str	r4, [r5, #0]
  407322:	f8dc 5000 	ldr.w	r5, [ip]
  407326:	0c2d      	lsrs	r5, r5, #16
  407328:	d01d      	beq.n	407366 <__multiply+0xea>
  40732a:	f8d9 3000 	ldr.w	r3, [r9]
  40732e:	4648      	mov	r0, r9
  407330:	461c      	mov	r4, r3
  407332:	4659      	mov	r1, fp
  407334:	2200      	movs	r2, #0
  407336:	880e      	ldrh	r6, [r1, #0]
  407338:	0c24      	lsrs	r4, r4, #16
  40733a:	fb05 4406 	mla	r4, r5, r6, r4
  40733e:	4422      	add	r2, r4
  407340:	b29b      	uxth	r3, r3
  407342:	ea43 4302 	orr.w	r3, r3, r2, lsl #16
  407346:	f840 3b04 	str.w	r3, [r0], #4
  40734a:	f851 3b04 	ldr.w	r3, [r1], #4
  40734e:	6804      	ldr	r4, [r0, #0]
  407350:	0c1b      	lsrs	r3, r3, #16
  407352:	b2a6      	uxth	r6, r4
  407354:	fb05 6303 	mla	r3, r5, r3, r6
  407358:	eb03 4312 	add.w	r3, r3, r2, lsr #16
  40735c:	458e      	cmp	lr, r1
  40735e:	ea4f 4213 	mov.w	r2, r3, lsr #16
  407362:	d8e8      	bhi.n	407336 <__multiply+0xba>
  407364:	6003      	str	r3, [r0, #0]
  407366:	f10c 0c04 	add.w	ip, ip, #4
  40736a:	45e2      	cmp	sl, ip
  40736c:	f109 0904 	add.w	r9, r9, #4
  407370:	d8b7      	bhi.n	4072e2 <__multiply+0x66>
  407372:	f8dd a004 	ldr.w	sl, [sp, #4]
  407376:	f1b8 0f00 	cmp.w	r8, #0
  40737a:	dd0b      	ble.n	407394 <__multiply+0x118>
  40737c:	f85a 3c04 	ldr.w	r3, [sl, #-4]
  407380:	f1aa 0a04 	sub.w	sl, sl, #4
  407384:	b11b      	cbz	r3, 40738e <__multiply+0x112>
  407386:	e005      	b.n	407394 <__multiply+0x118>
  407388:	f85a 3d04 	ldr.w	r3, [sl, #-4]!
  40738c:	b913      	cbnz	r3, 407394 <__multiply+0x118>
  40738e:	f1b8 0801 	subs.w	r8, r8, #1
  407392:	d1f9      	bne.n	407388 <__multiply+0x10c>
  407394:	9800      	ldr	r0, [sp, #0]
  407396:	f8c0 8010 	str.w	r8, [r0, #16]
  40739a:	b003      	add	sp, #12
  40739c:	e8bd 8ff0 	ldmia.w	sp!, {r4, r5, r6, r7, r8, r9, sl, fp, pc}

004073a0 <__pow5mult>:
  4073a0:	f012 0303 	ands.w	r3, r2, #3
  4073a4:	e92d 41f0 	stmdb	sp!, {r4, r5, r6, r7, r8, lr}
  4073a8:	4614      	mov	r4, r2
  4073aa:	4607      	mov	r7, r0
  4073ac:	d12e      	bne.n	40740c <__pow5mult+0x6c>
  4073ae:	460d      	mov	r5, r1
  4073b0:	10a4      	asrs	r4, r4, #2
  4073b2:	d01c      	beq.n	4073ee <__pow5mult+0x4e>
  4073b4:	6cbe      	ldr	r6, [r7, #72]	; 0x48
  4073b6:	b396      	cbz	r6, 40741e <__pow5mult+0x7e>
  4073b8:	07e3      	lsls	r3, r4, #31
  4073ba:	f04f 0800 	mov.w	r8, #0
  4073be:	d406      	bmi.n	4073ce <__pow5mult+0x2e>
  4073c0:	1064      	asrs	r4, r4, #1
  4073c2:	d014      	beq.n	4073ee <__pow5mult+0x4e>
  4073c4:	6830      	ldr	r0, [r6, #0]
  4073c6:	b1a8      	cbz	r0, 4073f4 <__pow5mult+0x54>
  4073c8:	4606      	mov	r6, r0
  4073ca:	07e3      	lsls	r3, r4, #31
  4073cc:	d5f8      	bpl.n	4073c0 <__pow5mult+0x20>
  4073ce:	4632      	mov	r2, r6
  4073d0:	4629      	mov	r1, r5
  4073d2:	4638      	mov	r0, r7
  4073d4:	f7ff ff52 	bl	40727c <__multiply>
  4073d8:	b1b5      	cbz	r5, 407408 <__pow5mult+0x68>
  4073da:	686a      	ldr	r2, [r5, #4]
  4073dc:	6cfb      	ldr	r3, [r7, #76]	; 0x4c
  4073de:	1064      	asrs	r4, r4, #1
  4073e0:	f853 1022 	ldr.w	r1, [r3, r2, lsl #2]
  4073e4:	6029      	str	r1, [r5, #0]
  4073e6:	f843 5022 	str.w	r5, [r3, r2, lsl #2]
  4073ea:	4605      	mov	r5, r0
  4073ec:	d1ea      	bne.n	4073c4 <__pow5mult+0x24>
  4073ee:	4628      	mov	r0, r5
  4073f0:	e8bd 81f0 	ldmia.w	sp!, {r4, r5, r6, r7, r8, pc}
  4073f4:	4632      	mov	r2, r6
  4073f6:	4631      	mov	r1, r6
  4073f8:	4638      	mov	r0, r7
  4073fa:	f7ff ff3f 	bl	40727c <__multiply>
  4073fe:	6030      	str	r0, [r6, #0]
  407400:	f8c0 8000 	str.w	r8, [r0]
  407404:	4606      	mov	r6, r0
  407406:	e7e0      	b.n	4073ca <__pow5mult+0x2a>
  407408:	4605      	mov	r5, r0
  40740a:	e7d9      	b.n	4073c0 <__pow5mult+0x20>
  40740c:	1e5a      	subs	r2, r3, #1
  40740e:	4d0b      	ldr	r5, [pc, #44]	; (40743c <__pow5mult+0x9c>)
  407410:	2300      	movs	r3, #0
  407412:	f855 2022 	ldr.w	r2, [r5, r2, lsl #2]
  407416:	f7ff fe97 	bl	407148 <__multadd>
  40741a:	4605      	mov	r5, r0
  40741c:	e7c8      	b.n	4073b0 <__pow5mult+0x10>
  40741e:	2101      	movs	r1, #1
  407420:	4638      	mov	r0, r7
  407422:	f7ff fe61 	bl	4070e8 <_Balloc>
  407426:	f240 2171 	movw	r1, #625	; 0x271
  40742a:	2201      	movs	r2, #1
  40742c:	2300      	movs	r3, #0
  40742e:	6141      	str	r1, [r0, #20]
  407430:	6102      	str	r2, [r0, #16]
  407432:	4606      	mov	r6, r0
  407434:	64b8      	str	r0, [r7, #72]	; 0x48
  407436:	6003      	str	r3, [r0, #0]
  407438:	e7be      	b.n	4073b8 <__pow5mult+0x18>
  40743a:	bf00      	nop
  40743c:	00408ea0 	.word	0x00408ea0

00407440 <__lshift>:
  407440:	e92d 43f8 	stmdb	sp!, {r3, r4, r5, r6, r7, r8, r9, lr}
  407444:	4691      	mov	r9, r2
  407446:	690a      	ldr	r2, [r1, #16]
  407448:	688b      	ldr	r3, [r1, #8]
  40744a:	ea4f 1469 	mov.w	r4, r9, asr #5
  40744e:	eb04 0802 	add.w	r8, r4, r2
  407452:	f108 0501 	add.w	r5, r8, #1
  407456:	429d      	cmp	r5, r3
  407458:	460e      	mov	r6, r1
  40745a:	4607      	mov	r7, r0
  40745c:	6849      	ldr	r1, [r1, #4]
  40745e:	dd04      	ble.n	40746a <__lshift+0x2a>
  407460:	005b      	lsls	r3, r3, #1
  407462:	429d      	cmp	r5, r3
  407464:	f101 0101 	add.w	r1, r1, #1
  407468:	dcfa      	bgt.n	407460 <__lshift+0x20>
  40746a:	4638      	mov	r0, r7
  40746c:	f7ff fe3c 	bl	4070e8 <_Balloc>
  407470:	2c00      	cmp	r4, #0
  407472:	f100 0314 	add.w	r3, r0, #20
  407476:	dd06      	ble.n	407486 <__lshift+0x46>
  407478:	eb03 0284 	add.w	r2, r3, r4, lsl #2
  40747c:	2100      	movs	r1, #0
  40747e:	f843 1b04 	str.w	r1, [r3], #4
  407482:	429a      	cmp	r2, r3
  407484:	d1fb      	bne.n	40747e <__lshift+0x3e>
  407486:	6934      	ldr	r4, [r6, #16]
  407488:	f106 0114 	add.w	r1, r6, #20
  40748c:	f019 091f 	ands.w	r9, r9, #31
  407490:	eb01 0e84 	add.w	lr, r1, r4, lsl #2
  407494:	d01d      	beq.n	4074d2 <__lshift+0x92>
  407496:	f1c9 0c20 	rsb	ip, r9, #32
  40749a:	2200      	movs	r2, #0
  40749c:	680c      	ldr	r4, [r1, #0]
  40749e:	fa04 f409 	lsl.w	r4, r4, r9
  4074a2:	4314      	orrs	r4, r2
  4074a4:	f843 4b04 	str.w	r4, [r3], #4
  4074a8:	f851 2b04 	ldr.w	r2, [r1], #4
  4074ac:	458e      	cmp	lr, r1
  4074ae:	fa22 f20c 	lsr.w	r2, r2, ip
  4074b2:	d8f3      	bhi.n	40749c <__lshift+0x5c>
  4074b4:	601a      	str	r2, [r3, #0]
  4074b6:	b10a      	cbz	r2, 4074bc <__lshift+0x7c>
  4074b8:	f108 0502 	add.w	r5, r8, #2
  4074bc:	6cfb      	ldr	r3, [r7, #76]	; 0x4c
  4074be:	6872      	ldr	r2, [r6, #4]
  4074c0:	3d01      	subs	r5, #1
  4074c2:	f853 1022 	ldr.w	r1, [r3, r2, lsl #2]
  4074c6:	6105      	str	r5, [r0, #16]
  4074c8:	6031      	str	r1, [r6, #0]
  4074ca:	f843 6022 	str.w	r6, [r3, r2, lsl #2]
  4074ce:	e8bd 83f8 	ldmia.w	sp!, {r3, r4, r5, r6, r7, r8, r9, pc}
  4074d2:	3b04      	subs	r3, #4
  4074d4:	f851 2b04 	ldr.w	r2, [r1], #4
  4074d8:	f843 2f04 	str.w	r2, [r3, #4]!
  4074dc:	458e      	cmp	lr, r1
  4074de:	d8f9      	bhi.n	4074d4 <__lshift+0x94>
  4074e0:	e7ec      	b.n	4074bc <__lshift+0x7c>
  4074e2:	bf00      	nop

004074e4 <__mcmp>:
  4074e4:	b430      	push	{r4, r5}
  4074e6:	690b      	ldr	r3, [r1, #16]
  4074e8:	4605      	mov	r5, r0
  4074ea:	6900      	ldr	r0, [r0, #16]
  4074ec:	1ac0      	subs	r0, r0, r3
  4074ee:	d10f      	bne.n	407510 <__mcmp+0x2c>
  4074f0:	009b      	lsls	r3, r3, #2
  4074f2:	3514      	adds	r5, #20
  4074f4:	3114      	adds	r1, #20
  4074f6:	4419      	add	r1, r3
  4074f8:	442b      	add	r3, r5
  4074fa:	e001      	b.n	407500 <__mcmp+0x1c>
  4074fc:	429d      	cmp	r5, r3
  4074fe:	d207      	bcs.n	407510 <__mcmp+0x2c>
  407500:	f853 4d04 	ldr.w	r4, [r3, #-4]!
  407504:	f851 2d04 	ldr.w	r2, [r1, #-4]!
  407508:	4294      	cmp	r4, r2
  40750a:	d0f7      	beq.n	4074fc <__mcmp+0x18>
  40750c:	d302      	bcc.n	407514 <__mcmp+0x30>
  40750e:	2001      	movs	r0, #1
  407510:	bc30      	pop	{r4, r5}
  407512:	4770      	bx	lr
  407514:	f04f 30ff 	mov.w	r0, #4294967295
  407518:	e7fa      	b.n	407510 <__mcmp+0x2c>
  40751a:	bf00      	nop

0040751c <__mdiff>:
  40751c:	e92d 41f0 	stmdb	sp!, {r4, r5, r6, r7, r8, lr}
  407520:	690f      	ldr	r7, [r1, #16]
  407522:	460e      	mov	r6, r1
  407524:	6911      	ldr	r1, [r2, #16]
  407526:	1a7f      	subs	r7, r7, r1
  407528:	2f00      	cmp	r7, #0
  40752a:	4690      	mov	r8, r2
  40752c:	d117      	bne.n	40755e <__mdiff+0x42>
  40752e:	0089      	lsls	r1, r1, #2
  407530:	f106 0514 	add.w	r5, r6, #20
  407534:	f102 0e14 	add.w	lr, r2, #20
  407538:	186b      	adds	r3, r5, r1
  40753a:	4471      	add	r1, lr
  40753c:	e001      	b.n	407542 <__mdiff+0x26>
  40753e:	429d      	cmp	r5, r3
  407540:	d25c      	bcs.n	4075fc <__mdiff+0xe0>
  407542:	f853 2d04 	ldr.w	r2, [r3, #-4]!
  407546:	f851 4d04 	ldr.w	r4, [r1, #-4]!
  40754a:	42a2      	cmp	r2, r4
  40754c:	d0f7      	beq.n	40753e <__mdiff+0x22>
  40754e:	d25e      	bcs.n	40760e <__mdiff+0xf2>
  407550:	4633      	mov	r3, r6
  407552:	462c      	mov	r4, r5
  407554:	4646      	mov	r6, r8
  407556:	4675      	mov	r5, lr
  407558:	4698      	mov	r8, r3
  40755a:	2701      	movs	r7, #1
  40755c:	e005      	b.n	40756a <__mdiff+0x4e>
  40755e:	db58      	blt.n	407612 <__mdiff+0xf6>
  407560:	f106 0514 	add.w	r5, r6, #20
  407564:	f108 0414 	add.w	r4, r8, #20
  407568:	2700      	movs	r7, #0
  40756a:	6871      	ldr	r1, [r6, #4]
  40756c:	f7ff fdbc 	bl	4070e8 <_Balloc>
  407570:	f8d8 3010 	ldr.w	r3, [r8, #16]
  407574:	6936      	ldr	r6, [r6, #16]
  407576:	60c7      	str	r7, [r0, #12]
  407578:	eb04 0c83 	add.w	ip, r4, r3, lsl #2
  40757c:	46a6      	mov	lr, r4
  40757e:	eb05 0786 	add.w	r7, r5, r6, lsl #2
  407582:	f100 0414 	add.w	r4, r0, #20
  407586:	2300      	movs	r3, #0
  407588:	f85e 1b04 	ldr.w	r1, [lr], #4
  40758c:	f855 8b04 	ldr.w	r8, [r5], #4
  407590:	b28a      	uxth	r2, r1
  407592:	fa13 f388 	uxtah	r3, r3, r8
  407596:	0c09      	lsrs	r1, r1, #16
  407598:	1a9a      	subs	r2, r3, r2
  40759a:	ebc1 4318 	rsb	r3, r1, r8, lsr #16
  40759e:	eb03 4322 	add.w	r3, r3, r2, asr #16
  4075a2:	b292      	uxth	r2, r2
  4075a4:	ea42 4203 	orr.w	r2, r2, r3, lsl #16
  4075a8:	45f4      	cmp	ip, lr
  4075aa:	f844 2b04 	str.w	r2, [r4], #4
  4075ae:	ea4f 4323 	mov.w	r3, r3, asr #16
  4075b2:	d8e9      	bhi.n	407588 <__mdiff+0x6c>
  4075b4:	42af      	cmp	r7, r5
  4075b6:	d917      	bls.n	4075e8 <__mdiff+0xcc>
  4075b8:	46a4      	mov	ip, r4
  4075ba:	46ae      	mov	lr, r5
  4075bc:	f85e 2b04 	ldr.w	r2, [lr], #4
  4075c0:	fa13 f382 	uxtah	r3, r3, r2
  4075c4:	1419      	asrs	r1, r3, #16
  4075c6:	eb01 4112 	add.w	r1, r1, r2, lsr #16
  4075ca:	b29b      	uxth	r3, r3
  4075cc:	ea43 4201 	orr.w	r2, r3, r1, lsl #16
  4075d0:	4577      	cmp	r7, lr
  4075d2:	f84c 2b04 	str.w	r2, [ip], #4
  4075d6:	ea4f 4321 	mov.w	r3, r1, asr #16
  4075da:	d8ef      	bhi.n	4075bc <__mdiff+0xa0>
  4075dc:	43ed      	mvns	r5, r5
  4075de:	442f      	add	r7, r5
  4075e0:	f027 0703 	bic.w	r7, r7, #3
  4075e4:	3704      	adds	r7, #4
  4075e6:	443c      	add	r4, r7
  4075e8:	3c04      	subs	r4, #4
  4075ea:	b922      	cbnz	r2, 4075f6 <__mdiff+0xda>
  4075ec:	f854 3d04 	ldr.w	r3, [r4, #-4]!
  4075f0:	3e01      	subs	r6, #1
  4075f2:	2b00      	cmp	r3, #0
  4075f4:	d0fa      	beq.n	4075ec <__mdiff+0xd0>
  4075f6:	6106      	str	r6, [r0, #16]
  4075f8:	e8bd 81f0 	ldmia.w	sp!, {r4, r5, r6, r7, r8, pc}
  4075fc:	2100      	movs	r1, #0
  4075fe:	f7ff fd73 	bl	4070e8 <_Balloc>
  407602:	2201      	movs	r2, #1
  407604:	2300      	movs	r3, #0
  407606:	6102      	str	r2, [r0, #16]
  407608:	6143      	str	r3, [r0, #20]
  40760a:	e8bd 81f0 	ldmia.w	sp!, {r4, r5, r6, r7, r8, pc}
  40760e:	4674      	mov	r4, lr
  407610:	e7ab      	b.n	40756a <__mdiff+0x4e>
  407612:	4633      	mov	r3, r6
  407614:	f106 0414 	add.w	r4, r6, #20
  407618:	f102 0514 	add.w	r5, r2, #20
  40761c:	4616      	mov	r6, r2
  40761e:	2701      	movs	r7, #1
  407620:	4698      	mov	r8, r3
  407622:	e7a2      	b.n	40756a <__mdiff+0x4e>

00407624 <__d2b>:
  407624:	e92d 41f0 	stmdb	sp!, {r4, r5, r6, r7, r8, lr}
  407628:	b082      	sub	sp, #8
  40762a:	2101      	movs	r1, #1
  40762c:	461c      	mov	r4, r3
  40762e:	f3c3 570a 	ubfx	r7, r3, #20, #11
  407632:	4615      	mov	r5, r2
  407634:	9e08      	ldr	r6, [sp, #32]
  407636:	f7ff fd57 	bl	4070e8 <_Balloc>
  40763a:	f3c4 0413 	ubfx	r4, r4, #0, #20
  40763e:	4680      	mov	r8, r0
  407640:	b10f      	cbz	r7, 407646 <__d2b+0x22>
  407642:	f444 1480 	orr.w	r4, r4, #1048576	; 0x100000
  407646:	9401      	str	r4, [sp, #4]
  407648:	b31d      	cbz	r5, 407692 <__d2b+0x6e>
  40764a:	a802      	add	r0, sp, #8
  40764c:	f840 5d08 	str.w	r5, [r0, #-8]!
  407650:	f7ff fdda 	bl	407208 <__lo0bits>
  407654:	2800      	cmp	r0, #0
  407656:	d134      	bne.n	4076c2 <__d2b+0x9e>
  407658:	e89d 000c 	ldmia.w	sp, {r2, r3}
  40765c:	f8c8 2014 	str.w	r2, [r8, #20]
  407660:	2b00      	cmp	r3, #0
  407662:	bf0c      	ite	eq
  407664:	2101      	moveq	r1, #1
  407666:	2102      	movne	r1, #2
  407668:	f8c8 3018 	str.w	r3, [r8, #24]
  40766c:	f8c8 1010 	str.w	r1, [r8, #16]
  407670:	b9df      	cbnz	r7, 4076aa <__d2b+0x86>
  407672:	eb08 0381 	add.w	r3, r8, r1, lsl #2
  407676:	f2a0 4032 	subw	r0, r0, #1074	; 0x432
  40767a:	6030      	str	r0, [r6, #0]
  40767c:	6918      	ldr	r0, [r3, #16]
  40767e:	f7ff fda3 	bl	4071c8 <__hi0bits>
  407682:	9b09      	ldr	r3, [sp, #36]	; 0x24
  407684:	ebc0 1041 	rsb	r0, r0, r1, lsl #5
  407688:	6018      	str	r0, [r3, #0]
  40768a:	4640      	mov	r0, r8
  40768c:	b002      	add	sp, #8
  40768e:	e8bd 81f0 	ldmia.w	sp!, {r4, r5, r6, r7, r8, pc}
  407692:	a801      	add	r0, sp, #4
  407694:	f7ff fdb8 	bl	407208 <__lo0bits>
  407698:	9b01      	ldr	r3, [sp, #4]
  40769a:	f8c8 3014 	str.w	r3, [r8, #20]
  40769e:	2101      	movs	r1, #1
  4076a0:	3020      	adds	r0, #32
  4076a2:	f8c8 1010 	str.w	r1, [r8, #16]
  4076a6:	2f00      	cmp	r7, #0
  4076a8:	d0e3      	beq.n	407672 <__d2b+0x4e>
  4076aa:	9b09      	ldr	r3, [sp, #36]	; 0x24
  4076ac:	f2a7 4733 	subw	r7, r7, #1075	; 0x433
  4076b0:	4407      	add	r7, r0
  4076b2:	f1c0 0035 	rsb	r0, r0, #53	; 0x35
  4076b6:	6037      	str	r7, [r6, #0]
  4076b8:	6018      	str	r0, [r3, #0]
  4076ba:	4640      	mov	r0, r8
  4076bc:	b002      	add	sp, #8
  4076be:	e8bd 81f0 	ldmia.w	sp!, {r4, r5, r6, r7, r8, pc}
  4076c2:	e89d 000a 	ldmia.w	sp, {r1, r3}
  4076c6:	f1c0 0220 	rsb	r2, r0, #32
  4076ca:	fa03 f202 	lsl.w	r2, r3, r2
  4076ce:	430a      	orrs	r2, r1
  4076d0:	40c3      	lsrs	r3, r0
  4076d2:	9301      	str	r3, [sp, #4]
  4076d4:	f8c8 2014 	str.w	r2, [r8, #20]
  4076d8:	e7c2      	b.n	407660 <__d2b+0x3c>
  4076da:	bf00      	nop

004076dc <_realloc_r>:
  4076dc:	2900      	cmp	r1, #0
  4076de:	f000 8095 	beq.w	40780c <_realloc_r+0x130>
  4076e2:	e92d 4ff0 	stmdb	sp!, {r4, r5, r6, r7, r8, r9, sl, fp, lr}
  4076e6:	460d      	mov	r5, r1
  4076e8:	4616      	mov	r6, r2
  4076ea:	b083      	sub	sp, #12
  4076ec:	4680      	mov	r8, r0
  4076ee:	f106 070b 	add.w	r7, r6, #11
  4076f2:	f7fc fa99 	bl	403c28 <__malloc_lock>
  4076f6:	f855 ec04 	ldr.w	lr, [r5, #-4]
  4076fa:	2f16      	cmp	r7, #22
  4076fc:	f02e 0403 	bic.w	r4, lr, #3
  407700:	f1a5 0908 	sub.w	r9, r5, #8
  407704:	d83c      	bhi.n	407780 <_realloc_r+0xa4>
  407706:	2210      	movs	r2, #16
  407708:	4617      	mov	r7, r2
  40770a:	42be      	cmp	r6, r7
  40770c:	d83d      	bhi.n	40778a <_realloc_r+0xae>
  40770e:	4294      	cmp	r4, r2
  407710:	da43      	bge.n	40779a <_realloc_r+0xbe>
  407712:	4bc4      	ldr	r3, [pc, #784]	; (407a24 <_realloc_r+0x348>)
  407714:	6899      	ldr	r1, [r3, #8]
  407716:	eb09 0004 	add.w	r0, r9, r4
  40771a:	4288      	cmp	r0, r1
  40771c:	f000 80b4 	beq.w	407888 <_realloc_r+0x1ac>
  407720:	6843      	ldr	r3, [r0, #4]
  407722:	f023 0101 	bic.w	r1, r3, #1
  407726:	4401      	add	r1, r0
  407728:	6849      	ldr	r1, [r1, #4]
  40772a:	07c9      	lsls	r1, r1, #31
  40772c:	d54c      	bpl.n	4077c8 <_realloc_r+0xec>
  40772e:	f01e 0f01 	tst.w	lr, #1
  407732:	f000 809b 	beq.w	40786c <_realloc_r+0x190>
  407736:	4631      	mov	r1, r6
  407738:	4640      	mov	r0, r8
  40773a:	f7fb fedd 	bl	4034f8 <_malloc_r>
  40773e:	4606      	mov	r6, r0
  407740:	2800      	cmp	r0, #0
  407742:	d03a      	beq.n	4077ba <_realloc_r+0xde>
  407744:	f855 3c04 	ldr.w	r3, [r5, #-4]
  407748:	f023 0301 	bic.w	r3, r3, #1
  40774c:	444b      	add	r3, r9
  40774e:	f1a0 0208 	sub.w	r2, r0, #8
  407752:	429a      	cmp	r2, r3
  407754:	f000 8121 	beq.w	40799a <_realloc_r+0x2be>
  407758:	1f22      	subs	r2, r4, #4
  40775a:	2a24      	cmp	r2, #36	; 0x24
  40775c:	f200 8107 	bhi.w	40796e <_realloc_r+0x292>
  407760:	2a13      	cmp	r2, #19
  407762:	f200 80db 	bhi.w	40791c <_realloc_r+0x240>
  407766:	4603      	mov	r3, r0
  407768:	462a      	mov	r2, r5
  40776a:	6811      	ldr	r1, [r2, #0]
  40776c:	6019      	str	r1, [r3, #0]
  40776e:	6851      	ldr	r1, [r2, #4]
  407770:	6059      	str	r1, [r3, #4]
  407772:	6892      	ldr	r2, [r2, #8]
  407774:	609a      	str	r2, [r3, #8]
  407776:	4629      	mov	r1, r5
  407778:	4640      	mov	r0, r8
  40777a:	f7ff f8e9 	bl	406950 <_free_r>
  40777e:	e01c      	b.n	4077ba <_realloc_r+0xde>
  407780:	f027 0707 	bic.w	r7, r7, #7
  407784:	2f00      	cmp	r7, #0
  407786:	463a      	mov	r2, r7
  407788:	dabf      	bge.n	40770a <_realloc_r+0x2e>
  40778a:	2600      	movs	r6, #0
  40778c:	230c      	movs	r3, #12
  40778e:	4630      	mov	r0, r6
  407790:	f8c8 3000 	str.w	r3, [r8]
  407794:	b003      	add	sp, #12
  407796:	e8bd 8ff0 	ldmia.w	sp!, {r4, r5, r6, r7, r8, r9, sl, fp, pc}
  40779a:	462e      	mov	r6, r5
  40779c:	1be3      	subs	r3, r4, r7
  40779e:	2b0f      	cmp	r3, #15
  4077a0:	d81e      	bhi.n	4077e0 <_realloc_r+0x104>
  4077a2:	f8d9 3004 	ldr.w	r3, [r9, #4]
  4077a6:	f003 0301 	and.w	r3, r3, #1
  4077aa:	4323      	orrs	r3, r4
  4077ac:	444c      	add	r4, r9
  4077ae:	f8c9 3004 	str.w	r3, [r9, #4]
  4077b2:	6863      	ldr	r3, [r4, #4]
  4077b4:	f043 0301 	orr.w	r3, r3, #1
  4077b8:	6063      	str	r3, [r4, #4]
  4077ba:	4640      	mov	r0, r8
  4077bc:	f7fc fa3a 	bl	403c34 <__malloc_unlock>
  4077c0:	4630      	mov	r0, r6
  4077c2:	b003      	add	sp, #12
  4077c4:	e8bd 8ff0 	ldmia.w	sp!, {r4, r5, r6, r7, r8, r9, sl, fp, pc}
  4077c8:	f023 0303 	bic.w	r3, r3, #3
  4077cc:	18e1      	adds	r1, r4, r3
  4077ce:	4291      	cmp	r1, r2
  4077d0:	db1f      	blt.n	407812 <_realloc_r+0x136>
  4077d2:	68c3      	ldr	r3, [r0, #12]
  4077d4:	6882      	ldr	r2, [r0, #8]
  4077d6:	462e      	mov	r6, r5
  4077d8:	60d3      	str	r3, [r2, #12]
  4077da:	460c      	mov	r4, r1
  4077dc:	609a      	str	r2, [r3, #8]
  4077de:	e7dd      	b.n	40779c <_realloc_r+0xc0>
  4077e0:	f8d9 2004 	ldr.w	r2, [r9, #4]
  4077e4:	eb09 0107 	add.w	r1, r9, r7
  4077e8:	f002 0201 	and.w	r2, r2, #1
  4077ec:	444c      	add	r4, r9
  4077ee:	f043 0301 	orr.w	r3, r3, #1
  4077f2:	4317      	orrs	r7, r2
  4077f4:	f8c9 7004 	str.w	r7, [r9, #4]
  4077f8:	604b      	str	r3, [r1, #4]
  4077fa:	6863      	ldr	r3, [r4, #4]
  4077fc:	f043 0301 	orr.w	r3, r3, #1
  407800:	3108      	adds	r1, #8
  407802:	6063      	str	r3, [r4, #4]
  407804:	4640      	mov	r0, r8
  407806:	f7ff f8a3 	bl	406950 <_free_r>
  40780a:	e7d6      	b.n	4077ba <_realloc_r+0xde>
  40780c:	4611      	mov	r1, r2
  40780e:	f7fb be73 	b.w	4034f8 <_malloc_r>
  407812:	f01e 0f01 	tst.w	lr, #1
  407816:	d18e      	bne.n	407736 <_realloc_r+0x5a>
  407818:	f855 1c08 	ldr.w	r1, [r5, #-8]
  40781c:	eba9 0a01 	sub.w	sl, r9, r1
  407820:	f8da 1004 	ldr.w	r1, [sl, #4]
  407824:	f021 0103 	bic.w	r1, r1, #3
  407828:	440b      	add	r3, r1
  40782a:	4423      	add	r3, r4
  40782c:	4293      	cmp	r3, r2
  40782e:	db25      	blt.n	40787c <_realloc_r+0x1a0>
  407830:	68c2      	ldr	r2, [r0, #12]
  407832:	6881      	ldr	r1, [r0, #8]
  407834:	4656      	mov	r6, sl
  407836:	60ca      	str	r2, [r1, #12]
  407838:	6091      	str	r1, [r2, #8]
  40783a:	f8da 100c 	ldr.w	r1, [sl, #12]
  40783e:	f856 0f08 	ldr.w	r0, [r6, #8]!
  407842:	1f22      	subs	r2, r4, #4
  407844:	2a24      	cmp	r2, #36	; 0x24
  407846:	60c1      	str	r1, [r0, #12]
  407848:	6088      	str	r0, [r1, #8]
  40784a:	f200 8094 	bhi.w	407976 <_realloc_r+0x29a>
  40784e:	2a13      	cmp	r2, #19
  407850:	d96f      	bls.n	407932 <_realloc_r+0x256>
  407852:	6829      	ldr	r1, [r5, #0]
  407854:	f8ca 1008 	str.w	r1, [sl, #8]
  407858:	6869      	ldr	r1, [r5, #4]
  40785a:	f8ca 100c 	str.w	r1, [sl, #12]
  40785e:	2a1b      	cmp	r2, #27
  407860:	f200 80a2 	bhi.w	4079a8 <_realloc_r+0x2cc>
  407864:	3508      	adds	r5, #8
  407866:	f10a 0210 	add.w	r2, sl, #16
  40786a:	e063      	b.n	407934 <_realloc_r+0x258>
  40786c:	f855 3c08 	ldr.w	r3, [r5, #-8]
  407870:	eba9 0a03 	sub.w	sl, r9, r3
  407874:	f8da 1004 	ldr.w	r1, [sl, #4]
  407878:	f021 0103 	bic.w	r1, r1, #3
  40787c:	1863      	adds	r3, r4, r1
  40787e:	4293      	cmp	r3, r2
  407880:	f6ff af59 	blt.w	407736 <_realloc_r+0x5a>
  407884:	4656      	mov	r6, sl
  407886:	e7d8      	b.n	40783a <_realloc_r+0x15e>
  407888:	6841      	ldr	r1, [r0, #4]
  40788a:	f021 0b03 	bic.w	fp, r1, #3
  40788e:	44a3      	add	fp, r4
  407890:	f107 0010 	add.w	r0, r7, #16
  407894:	4583      	cmp	fp, r0
  407896:	da56      	bge.n	407946 <_realloc_r+0x26a>
  407898:	f01e 0f01 	tst.w	lr, #1
  40789c:	f47f af4b 	bne.w	407736 <_realloc_r+0x5a>
  4078a0:	f855 1c08 	ldr.w	r1, [r5, #-8]
  4078a4:	eba9 0a01 	sub.w	sl, r9, r1
  4078a8:	f8da 1004 	ldr.w	r1, [sl, #4]
  4078ac:	f021 0103 	bic.w	r1, r1, #3
  4078b0:	448b      	add	fp, r1
  4078b2:	4558      	cmp	r0, fp
  4078b4:	dce2      	bgt.n	40787c <_realloc_r+0x1a0>
  4078b6:	4656      	mov	r6, sl
  4078b8:	f8da 100c 	ldr.w	r1, [sl, #12]
  4078bc:	f856 0f08 	ldr.w	r0, [r6, #8]!
  4078c0:	1f22      	subs	r2, r4, #4
  4078c2:	2a24      	cmp	r2, #36	; 0x24
  4078c4:	60c1      	str	r1, [r0, #12]
  4078c6:	6088      	str	r0, [r1, #8]
  4078c8:	f200 808f 	bhi.w	4079ea <_realloc_r+0x30e>
  4078cc:	2a13      	cmp	r2, #19
  4078ce:	f240 808a 	bls.w	4079e6 <_realloc_r+0x30a>
  4078d2:	6829      	ldr	r1, [r5, #0]
  4078d4:	f8ca 1008 	str.w	r1, [sl, #8]
  4078d8:	6869      	ldr	r1, [r5, #4]
  4078da:	f8ca 100c 	str.w	r1, [sl, #12]
  4078de:	2a1b      	cmp	r2, #27
  4078e0:	f200 808a 	bhi.w	4079f8 <_realloc_r+0x31c>
  4078e4:	3508      	adds	r5, #8
  4078e6:	f10a 0210 	add.w	r2, sl, #16
  4078ea:	6829      	ldr	r1, [r5, #0]
  4078ec:	6011      	str	r1, [r2, #0]
  4078ee:	6869      	ldr	r1, [r5, #4]
  4078f0:	6051      	str	r1, [r2, #4]
  4078f2:	68a9      	ldr	r1, [r5, #8]
  4078f4:	6091      	str	r1, [r2, #8]
  4078f6:	eb0a 0107 	add.w	r1, sl, r7
  4078fa:	ebab 0207 	sub.w	r2, fp, r7
  4078fe:	f042 0201 	orr.w	r2, r2, #1
  407902:	6099      	str	r1, [r3, #8]
  407904:	604a      	str	r2, [r1, #4]
  407906:	f8da 3004 	ldr.w	r3, [sl, #4]
  40790a:	f003 0301 	and.w	r3, r3, #1
  40790e:	431f      	orrs	r7, r3
  407910:	4640      	mov	r0, r8
  407912:	f8ca 7004 	str.w	r7, [sl, #4]
  407916:	f7fc f98d 	bl	403c34 <__malloc_unlock>
  40791a:	e751      	b.n	4077c0 <_realloc_r+0xe4>
  40791c:	682b      	ldr	r3, [r5, #0]
  40791e:	6003      	str	r3, [r0, #0]
  407920:	686b      	ldr	r3, [r5, #4]
  407922:	6043      	str	r3, [r0, #4]
  407924:	2a1b      	cmp	r2, #27
  407926:	d82d      	bhi.n	407984 <_realloc_r+0x2a8>
  407928:	f100 0308 	add.w	r3, r0, #8
  40792c:	f105 0208 	add.w	r2, r5, #8
  407930:	e71b      	b.n	40776a <_realloc_r+0x8e>
  407932:	4632      	mov	r2, r6
  407934:	6829      	ldr	r1, [r5, #0]
  407936:	6011      	str	r1, [r2, #0]
  407938:	6869      	ldr	r1, [r5, #4]
  40793a:	6051      	str	r1, [r2, #4]
  40793c:	68a9      	ldr	r1, [r5, #8]
  40793e:	6091      	str	r1, [r2, #8]
  407940:	461c      	mov	r4, r3
  407942:	46d1      	mov	r9, sl
  407944:	e72a      	b.n	40779c <_realloc_r+0xc0>
  407946:	eb09 0107 	add.w	r1, r9, r7
  40794a:	ebab 0b07 	sub.w	fp, fp, r7
  40794e:	f04b 0201 	orr.w	r2, fp, #1
  407952:	6099      	str	r1, [r3, #8]
  407954:	604a      	str	r2, [r1, #4]
  407956:	f855 3c04 	ldr.w	r3, [r5, #-4]
  40795a:	f003 0301 	and.w	r3, r3, #1
  40795e:	431f      	orrs	r7, r3
  407960:	4640      	mov	r0, r8
  407962:	f845 7c04 	str.w	r7, [r5, #-4]
  407966:	f7fc f965 	bl	403c34 <__malloc_unlock>
  40796a:	462e      	mov	r6, r5
  40796c:	e728      	b.n	4077c0 <_realloc_r+0xe4>
  40796e:	4629      	mov	r1, r5
  407970:	f7ff fb56 	bl	407020 <memmove>
  407974:	e6ff      	b.n	407776 <_realloc_r+0x9a>
  407976:	4629      	mov	r1, r5
  407978:	4630      	mov	r0, r6
  40797a:	461c      	mov	r4, r3
  40797c:	46d1      	mov	r9, sl
  40797e:	f7ff fb4f 	bl	407020 <memmove>
  407982:	e70b      	b.n	40779c <_realloc_r+0xc0>
  407984:	68ab      	ldr	r3, [r5, #8]
  407986:	6083      	str	r3, [r0, #8]
  407988:	68eb      	ldr	r3, [r5, #12]
  40798a:	60c3      	str	r3, [r0, #12]
  40798c:	2a24      	cmp	r2, #36	; 0x24
  40798e:	d017      	beq.n	4079c0 <_realloc_r+0x2e4>
  407990:	f100 0310 	add.w	r3, r0, #16
  407994:	f105 0210 	add.w	r2, r5, #16
  407998:	e6e7      	b.n	40776a <_realloc_r+0x8e>
  40799a:	f850 3c04 	ldr.w	r3, [r0, #-4]
  40799e:	f023 0303 	bic.w	r3, r3, #3
  4079a2:	441c      	add	r4, r3
  4079a4:	462e      	mov	r6, r5
  4079a6:	e6f9      	b.n	40779c <_realloc_r+0xc0>
  4079a8:	68a9      	ldr	r1, [r5, #8]
  4079aa:	f8ca 1010 	str.w	r1, [sl, #16]
  4079ae:	68e9      	ldr	r1, [r5, #12]
  4079b0:	f8ca 1014 	str.w	r1, [sl, #20]
  4079b4:	2a24      	cmp	r2, #36	; 0x24
  4079b6:	d00c      	beq.n	4079d2 <_realloc_r+0x2f6>
  4079b8:	3510      	adds	r5, #16
  4079ba:	f10a 0218 	add.w	r2, sl, #24
  4079be:	e7b9      	b.n	407934 <_realloc_r+0x258>
  4079c0:	692b      	ldr	r3, [r5, #16]
  4079c2:	6103      	str	r3, [r0, #16]
  4079c4:	696b      	ldr	r3, [r5, #20]
  4079c6:	6143      	str	r3, [r0, #20]
  4079c8:	f105 0218 	add.w	r2, r5, #24
  4079cc:	f100 0318 	add.w	r3, r0, #24
  4079d0:	e6cb      	b.n	40776a <_realloc_r+0x8e>
  4079d2:	692a      	ldr	r2, [r5, #16]
  4079d4:	f8ca 2018 	str.w	r2, [sl, #24]
  4079d8:	696a      	ldr	r2, [r5, #20]
  4079da:	f8ca 201c 	str.w	r2, [sl, #28]
  4079de:	3518      	adds	r5, #24
  4079e0:	f10a 0220 	add.w	r2, sl, #32
  4079e4:	e7a6      	b.n	407934 <_realloc_r+0x258>
  4079e6:	4632      	mov	r2, r6
  4079e8:	e77f      	b.n	4078ea <_realloc_r+0x20e>
  4079ea:	4629      	mov	r1, r5
  4079ec:	4630      	mov	r0, r6
  4079ee:	9301      	str	r3, [sp, #4]
  4079f0:	f7ff fb16 	bl	407020 <memmove>
  4079f4:	9b01      	ldr	r3, [sp, #4]
  4079f6:	e77e      	b.n	4078f6 <_realloc_r+0x21a>
  4079f8:	68a9      	ldr	r1, [r5, #8]
  4079fa:	f8ca 1010 	str.w	r1, [sl, #16]
  4079fe:	68e9      	ldr	r1, [r5, #12]
  407a00:	f8ca 1014 	str.w	r1, [sl, #20]
  407a04:	2a24      	cmp	r2, #36	; 0x24
  407a06:	d003      	beq.n	407a10 <_realloc_r+0x334>
  407a08:	3510      	adds	r5, #16
  407a0a:	f10a 0218 	add.w	r2, sl, #24
  407a0e:	e76c      	b.n	4078ea <_realloc_r+0x20e>
  407a10:	692a      	ldr	r2, [r5, #16]
  407a12:	f8ca 2018 	str.w	r2, [sl, #24]
  407a16:	696a      	ldr	r2, [r5, #20]
  407a18:	f8ca 201c 	str.w	r2, [sl, #28]
  407a1c:	3518      	adds	r5, #24
  407a1e:	f10a 0220 	add.w	r2, sl, #32
  407a22:	e762      	b.n	4078ea <_realloc_r+0x20e>
  407a24:	20400440 	.word	0x20400440

00407a28 <__sread>:
  407a28:	b510      	push	{r4, lr}
  407a2a:	460c      	mov	r4, r1
  407a2c:	f9b1 100e 	ldrsh.w	r1, [r1, #14]
  407a30:	f000 fa88 	bl	407f44 <_read_r>
  407a34:	2800      	cmp	r0, #0
  407a36:	db03      	blt.n	407a40 <__sread+0x18>
  407a38:	6d23      	ldr	r3, [r4, #80]	; 0x50
  407a3a:	4403      	add	r3, r0
  407a3c:	6523      	str	r3, [r4, #80]	; 0x50
  407a3e:	bd10      	pop	{r4, pc}
  407a40:	89a3      	ldrh	r3, [r4, #12]
  407a42:	f423 5380 	bic.w	r3, r3, #4096	; 0x1000
  407a46:	81a3      	strh	r3, [r4, #12]
  407a48:	bd10      	pop	{r4, pc}
  407a4a:	bf00      	nop

00407a4c <__swrite>:
  407a4c:	e92d 41f0 	stmdb	sp!, {r4, r5, r6, r7, r8, lr}
  407a50:	4616      	mov	r6, r2
  407a52:	f9b1 200c 	ldrsh.w	r2, [r1, #12]
  407a56:	461f      	mov	r7, r3
  407a58:	05d3      	lsls	r3, r2, #23
  407a5a:	460c      	mov	r4, r1
  407a5c:	4605      	mov	r5, r0
  407a5e:	d507      	bpl.n	407a70 <__swrite+0x24>
  407a60:	2200      	movs	r2, #0
  407a62:	2302      	movs	r3, #2
  407a64:	f9b1 100e 	ldrsh.w	r1, [r1, #14]
  407a68:	f000 fa40 	bl	407eec <_lseek_r>
  407a6c:	f9b4 200c 	ldrsh.w	r2, [r4, #12]
  407a70:	f9b4 100e 	ldrsh.w	r1, [r4, #14]
  407a74:	f422 5280 	bic.w	r2, r2, #4096	; 0x1000
  407a78:	81a2      	strh	r2, [r4, #12]
  407a7a:	463b      	mov	r3, r7
  407a7c:	4632      	mov	r2, r6
  407a7e:	4628      	mov	r0, r5
  407a80:	e8bd 41f0 	ldmia.w	sp!, {r4, r5, r6, r7, r8, lr}
  407a84:	f000 b85e 	b.w	407b44 <_write_r>

00407a88 <__sseek>:
  407a88:	b510      	push	{r4, lr}
  407a8a:	460c      	mov	r4, r1
  407a8c:	f9b1 100e 	ldrsh.w	r1, [r1, #14]
  407a90:	f000 fa2c 	bl	407eec <_lseek_r>
  407a94:	89a3      	ldrh	r3, [r4, #12]
  407a96:	1c42      	adds	r2, r0, #1
  407a98:	bf0e      	itee	eq
  407a9a:	f423 5380 	biceq.w	r3, r3, #4096	; 0x1000
  407a9e:	f443 5380 	orrne.w	r3, r3, #4096	; 0x1000
  407aa2:	6520      	strne	r0, [r4, #80]	; 0x50
  407aa4:	81a3      	strh	r3, [r4, #12]
  407aa6:	bd10      	pop	{r4, pc}

00407aa8 <__sclose>:
  407aa8:	f9b1 100e 	ldrsh.w	r1, [r1, #14]
  407aac:	f000 b8f2 	b.w	407c94 <_close_r>

00407ab0 <__sprint_r.part.0>:
  407ab0:	e92d 4ff8 	stmdb	sp!, {r3, r4, r5, r6, r7, r8, r9, sl, fp, lr}
  407ab4:	6e4b      	ldr	r3, [r1, #100]	; 0x64
  407ab6:	049c      	lsls	r4, r3, #18
  407ab8:	4693      	mov	fp, r2
  407aba:	d52f      	bpl.n	407b1c <__sprint_r.part.0+0x6c>
  407abc:	6893      	ldr	r3, [r2, #8]
  407abe:	6812      	ldr	r2, [r2, #0]
  407ac0:	b353      	cbz	r3, 407b18 <__sprint_r.part.0+0x68>
  407ac2:	460e      	mov	r6, r1
  407ac4:	4607      	mov	r7, r0
  407ac6:	f102 0908 	add.w	r9, r2, #8
  407aca:	e919 0420 	ldmdb	r9, {r5, sl}
  407ace:	ea5f 089a 	movs.w	r8, sl, lsr #2
  407ad2:	d017      	beq.n	407b04 <__sprint_r.part.0+0x54>
  407ad4:	3d04      	subs	r5, #4
  407ad6:	2400      	movs	r4, #0
  407ad8:	e001      	b.n	407ade <__sprint_r.part.0+0x2e>
  407ada:	45a0      	cmp	r8, r4
  407adc:	d010      	beq.n	407b00 <__sprint_r.part.0+0x50>
  407ade:	4632      	mov	r2, r6
  407ae0:	f855 1f04 	ldr.w	r1, [r5, #4]!
  407ae4:	4638      	mov	r0, r7
  407ae6:	f000 f999 	bl	407e1c <_fputwc_r>
  407aea:	1c43      	adds	r3, r0, #1
  407aec:	f104 0401 	add.w	r4, r4, #1
  407af0:	d1f3      	bne.n	407ada <__sprint_r.part.0+0x2a>
  407af2:	2300      	movs	r3, #0
  407af4:	f8cb 3008 	str.w	r3, [fp, #8]
  407af8:	f8cb 3004 	str.w	r3, [fp, #4]
  407afc:	e8bd 8ff8 	ldmia.w	sp!, {r3, r4, r5, r6, r7, r8, r9, sl, fp, pc}
  407b00:	f8db 3008 	ldr.w	r3, [fp, #8]
  407b04:	f02a 0a03 	bic.w	sl, sl, #3
  407b08:	eba3 030a 	sub.w	r3, r3, sl
  407b0c:	f8cb 3008 	str.w	r3, [fp, #8]
  407b10:	f109 0908 	add.w	r9, r9, #8
  407b14:	2b00      	cmp	r3, #0
  407b16:	d1d8      	bne.n	407aca <__sprint_r.part.0+0x1a>
  407b18:	2000      	movs	r0, #0
  407b1a:	e7ea      	b.n	407af2 <__sprint_r.part.0+0x42>
  407b1c:	f7fe fffe 	bl	406b1c <__sfvwrite_r>
  407b20:	2300      	movs	r3, #0
  407b22:	f8cb 3008 	str.w	r3, [fp, #8]
  407b26:	f8cb 3004 	str.w	r3, [fp, #4]
  407b2a:	e8bd 8ff8 	ldmia.w	sp!, {r3, r4, r5, r6, r7, r8, r9, sl, fp, pc}
  407b2e:	bf00      	nop

00407b30 <__sprint_r>:
  407b30:	6893      	ldr	r3, [r2, #8]
  407b32:	b10b      	cbz	r3, 407b38 <__sprint_r+0x8>
  407b34:	f7ff bfbc 	b.w	407ab0 <__sprint_r.part.0>
  407b38:	b410      	push	{r4}
  407b3a:	4618      	mov	r0, r3
  407b3c:	6053      	str	r3, [r2, #4]
  407b3e:	bc10      	pop	{r4}
  407b40:	4770      	bx	lr
  407b42:	bf00      	nop

00407b44 <_write_r>:
  407b44:	b570      	push	{r4, r5, r6, lr}
  407b46:	460d      	mov	r5, r1
  407b48:	4c08      	ldr	r4, [pc, #32]	; (407b6c <_write_r+0x28>)
  407b4a:	4611      	mov	r1, r2
  407b4c:	4606      	mov	r6, r0
  407b4e:	461a      	mov	r2, r3
  407b50:	4628      	mov	r0, r5
  407b52:	2300      	movs	r3, #0
  407b54:	6023      	str	r3, [r4, #0]
  407b56:	f7f8 feed 	bl	400934 <_write>
  407b5a:	1c43      	adds	r3, r0, #1
  407b5c:	d000      	beq.n	407b60 <_write_r+0x1c>
  407b5e:	bd70      	pop	{r4, r5, r6, pc}
  407b60:	6823      	ldr	r3, [r4, #0]
  407b62:	2b00      	cmp	r3, #0
  407b64:	d0fb      	beq.n	407b5e <_write_r+0x1a>
  407b66:	6033      	str	r3, [r6, #0]
  407b68:	bd70      	pop	{r4, r5, r6, pc}
  407b6a:	bf00      	nop
  407b6c:	20400e44 	.word	0x20400e44

00407b70 <__register_exitproc>:
  407b70:	e92d 43f8 	stmdb	sp!, {r3, r4, r5, r6, r7, r8, r9, lr}
  407b74:	4d2c      	ldr	r5, [pc, #176]	; (407c28 <__register_exitproc+0xb8>)
  407b76:	4606      	mov	r6, r0
  407b78:	6828      	ldr	r0, [r5, #0]
  407b7a:	4698      	mov	r8, r3
  407b7c:	460f      	mov	r7, r1
  407b7e:	4691      	mov	r9, r2
  407b80:	f7ff f980 	bl	406e84 <__retarget_lock_acquire_recursive>
  407b84:	4b29      	ldr	r3, [pc, #164]	; (407c2c <__register_exitproc+0xbc>)
  407b86:	681c      	ldr	r4, [r3, #0]
  407b88:	f8d4 3148 	ldr.w	r3, [r4, #328]	; 0x148
  407b8c:	2b00      	cmp	r3, #0
  407b8e:	d03e      	beq.n	407c0e <__register_exitproc+0x9e>
  407b90:	685a      	ldr	r2, [r3, #4]
  407b92:	2a1f      	cmp	r2, #31
  407b94:	dc1c      	bgt.n	407bd0 <__register_exitproc+0x60>
  407b96:	f102 0e01 	add.w	lr, r2, #1
  407b9a:	b176      	cbz	r6, 407bba <__register_exitproc+0x4a>
  407b9c:	eb03 0182 	add.w	r1, r3, r2, lsl #2
  407ba0:	2401      	movs	r4, #1
  407ba2:	f8c1 9088 	str.w	r9, [r1, #136]	; 0x88
  407ba6:	f8d3 0188 	ldr.w	r0, [r3, #392]	; 0x188
  407baa:	4094      	lsls	r4, r2
  407bac:	4320      	orrs	r0, r4
  407bae:	2e02      	cmp	r6, #2
  407bb0:	f8c3 0188 	str.w	r0, [r3, #392]	; 0x188
  407bb4:	f8c1 8108 	str.w	r8, [r1, #264]	; 0x108
  407bb8:	d023      	beq.n	407c02 <__register_exitproc+0x92>
  407bba:	3202      	adds	r2, #2
  407bbc:	f8c3 e004 	str.w	lr, [r3, #4]
  407bc0:	6828      	ldr	r0, [r5, #0]
  407bc2:	f843 7022 	str.w	r7, [r3, r2, lsl #2]
  407bc6:	f7ff f95f 	bl	406e88 <__retarget_lock_release_recursive>
  407bca:	2000      	movs	r0, #0
  407bcc:	e8bd 83f8 	ldmia.w	sp!, {r3, r4, r5, r6, r7, r8, r9, pc}
  407bd0:	4b17      	ldr	r3, [pc, #92]	; (407c30 <__register_exitproc+0xc0>)
  407bd2:	b30b      	cbz	r3, 407c18 <__register_exitproc+0xa8>
  407bd4:	f44f 70c8 	mov.w	r0, #400	; 0x190
  407bd8:	f7fb fc7e 	bl	4034d8 <malloc>
  407bdc:	4603      	mov	r3, r0
  407bde:	b1d8      	cbz	r0, 407c18 <__register_exitproc+0xa8>
  407be0:	f8d4 2148 	ldr.w	r2, [r4, #328]	; 0x148
  407be4:	6002      	str	r2, [r0, #0]
  407be6:	2100      	movs	r1, #0
  407be8:	6041      	str	r1, [r0, #4]
  407bea:	460a      	mov	r2, r1
  407bec:	f8c4 0148 	str.w	r0, [r4, #328]	; 0x148
  407bf0:	f04f 0e01 	mov.w	lr, #1
  407bf4:	f8c0 1188 	str.w	r1, [r0, #392]	; 0x188
  407bf8:	f8c0 118c 	str.w	r1, [r0, #396]	; 0x18c
  407bfc:	2e00      	cmp	r6, #0
  407bfe:	d0dc      	beq.n	407bba <__register_exitproc+0x4a>
  407c00:	e7cc      	b.n	407b9c <__register_exitproc+0x2c>
  407c02:	f8d3 118c 	ldr.w	r1, [r3, #396]	; 0x18c
  407c06:	430c      	orrs	r4, r1
  407c08:	f8c3 418c 	str.w	r4, [r3, #396]	; 0x18c
  407c0c:	e7d5      	b.n	407bba <__register_exitproc+0x4a>
  407c0e:	f504 73a6 	add.w	r3, r4, #332	; 0x14c
  407c12:	f8c4 3148 	str.w	r3, [r4, #328]	; 0x148
  407c16:	e7bb      	b.n	407b90 <__register_exitproc+0x20>
  407c18:	6828      	ldr	r0, [r5, #0]
  407c1a:	f7ff f935 	bl	406e88 <__retarget_lock_release_recursive>
  407c1e:	f04f 30ff 	mov.w	r0, #4294967295
  407c22:	e8bd 83f8 	ldmia.w	sp!, {r3, r4, r5, r6, r7, r8, r9, pc}
  407c26:	bf00      	nop
  407c28:	20400850 	.word	0x20400850
  407c2c:	00408d34 	.word	0x00408d34
  407c30:	004034d9 	.word	0x004034d9

00407c34 <_calloc_r>:
  407c34:	b510      	push	{r4, lr}
  407c36:	fb02 f101 	mul.w	r1, r2, r1
  407c3a:	f7fb fc5d 	bl	4034f8 <_malloc_r>
  407c3e:	4604      	mov	r4, r0
  407c40:	b1d8      	cbz	r0, 407c7a <_calloc_r+0x46>
  407c42:	f850 2c04 	ldr.w	r2, [r0, #-4]
  407c46:	f022 0203 	bic.w	r2, r2, #3
  407c4a:	3a04      	subs	r2, #4
  407c4c:	2a24      	cmp	r2, #36	; 0x24
  407c4e:	d818      	bhi.n	407c82 <_calloc_r+0x4e>
  407c50:	2a13      	cmp	r2, #19
  407c52:	d914      	bls.n	407c7e <_calloc_r+0x4a>
  407c54:	2300      	movs	r3, #0
  407c56:	2a1b      	cmp	r2, #27
  407c58:	6003      	str	r3, [r0, #0]
  407c5a:	6043      	str	r3, [r0, #4]
  407c5c:	d916      	bls.n	407c8c <_calloc_r+0x58>
  407c5e:	2a24      	cmp	r2, #36	; 0x24
  407c60:	6083      	str	r3, [r0, #8]
  407c62:	60c3      	str	r3, [r0, #12]
  407c64:	bf11      	iteee	ne
  407c66:	f100 0210 	addne.w	r2, r0, #16
  407c6a:	6103      	streq	r3, [r0, #16]
  407c6c:	6143      	streq	r3, [r0, #20]
  407c6e:	f100 0218 	addeq.w	r2, r0, #24
  407c72:	2300      	movs	r3, #0
  407c74:	6013      	str	r3, [r2, #0]
  407c76:	6053      	str	r3, [r2, #4]
  407c78:	6093      	str	r3, [r2, #8]
  407c7a:	4620      	mov	r0, r4
  407c7c:	bd10      	pop	{r4, pc}
  407c7e:	4602      	mov	r2, r0
  407c80:	e7f7      	b.n	407c72 <_calloc_r+0x3e>
  407c82:	2100      	movs	r1, #0
  407c84:	f7fb ff82 	bl	403b8c <memset>
  407c88:	4620      	mov	r0, r4
  407c8a:	bd10      	pop	{r4, pc}
  407c8c:	f100 0208 	add.w	r2, r0, #8
  407c90:	e7ef      	b.n	407c72 <_calloc_r+0x3e>
  407c92:	bf00      	nop

00407c94 <_close_r>:
  407c94:	b538      	push	{r3, r4, r5, lr}
  407c96:	4c07      	ldr	r4, [pc, #28]	; (407cb4 <_close_r+0x20>)
  407c98:	2300      	movs	r3, #0
  407c9a:	4605      	mov	r5, r0
  407c9c:	4608      	mov	r0, r1
  407c9e:	6023      	str	r3, [r4, #0]
  407ca0:	f7f9 fb5e 	bl	401360 <_close>
  407ca4:	1c43      	adds	r3, r0, #1
  407ca6:	d000      	beq.n	407caa <_close_r+0x16>
  407ca8:	bd38      	pop	{r3, r4, r5, pc}
  407caa:	6823      	ldr	r3, [r4, #0]
  407cac:	2b00      	cmp	r3, #0
  407cae:	d0fb      	beq.n	407ca8 <_close_r+0x14>
  407cb0:	602b      	str	r3, [r5, #0]
  407cb2:	bd38      	pop	{r3, r4, r5, pc}
  407cb4:	20400e44 	.word	0x20400e44

00407cb8 <_fclose_r>:
  407cb8:	b570      	push	{r4, r5, r6, lr}
  407cba:	b159      	cbz	r1, 407cd4 <_fclose_r+0x1c>
  407cbc:	4605      	mov	r5, r0
  407cbe:	460c      	mov	r4, r1
  407cc0:	b110      	cbz	r0, 407cc8 <_fclose_r+0x10>
  407cc2:	6b83      	ldr	r3, [r0, #56]	; 0x38
  407cc4:	2b00      	cmp	r3, #0
  407cc6:	d03c      	beq.n	407d42 <_fclose_r+0x8a>
  407cc8:	6e63      	ldr	r3, [r4, #100]	; 0x64
  407cca:	07d8      	lsls	r0, r3, #31
  407ccc:	d505      	bpl.n	407cda <_fclose_r+0x22>
  407cce:	f9b4 300c 	ldrsh.w	r3, [r4, #12]
  407cd2:	b92b      	cbnz	r3, 407ce0 <_fclose_r+0x28>
  407cd4:	2600      	movs	r6, #0
  407cd6:	4630      	mov	r0, r6
  407cd8:	bd70      	pop	{r4, r5, r6, pc}
  407cda:	89a3      	ldrh	r3, [r4, #12]
  407cdc:	0599      	lsls	r1, r3, #22
  407cde:	d53c      	bpl.n	407d5a <_fclose_r+0xa2>
  407ce0:	4621      	mov	r1, r4
  407ce2:	4628      	mov	r0, r5
  407ce4:	f7fe fc9a 	bl	40661c <__sflush_r>
  407ce8:	6ae3      	ldr	r3, [r4, #44]	; 0x2c
  407cea:	4606      	mov	r6, r0
  407cec:	b133      	cbz	r3, 407cfc <_fclose_r+0x44>
  407cee:	69e1      	ldr	r1, [r4, #28]
  407cf0:	4628      	mov	r0, r5
  407cf2:	4798      	blx	r3
  407cf4:	2800      	cmp	r0, #0
  407cf6:	bfb8      	it	lt
  407cf8:	f04f 36ff 	movlt.w	r6, #4294967295
  407cfc:	89a3      	ldrh	r3, [r4, #12]
  407cfe:	061a      	lsls	r2, r3, #24
  407d00:	d422      	bmi.n	407d48 <_fclose_r+0x90>
  407d02:	6b21      	ldr	r1, [r4, #48]	; 0x30
  407d04:	b141      	cbz	r1, 407d18 <_fclose_r+0x60>
  407d06:	f104 0340 	add.w	r3, r4, #64	; 0x40
  407d0a:	4299      	cmp	r1, r3
  407d0c:	d002      	beq.n	407d14 <_fclose_r+0x5c>
  407d0e:	4628      	mov	r0, r5
  407d10:	f7fe fe1e 	bl	406950 <_free_r>
  407d14:	2300      	movs	r3, #0
  407d16:	6323      	str	r3, [r4, #48]	; 0x30
  407d18:	6c61      	ldr	r1, [r4, #68]	; 0x44
  407d1a:	b121      	cbz	r1, 407d26 <_fclose_r+0x6e>
  407d1c:	4628      	mov	r0, r5
  407d1e:	f7fe fe17 	bl	406950 <_free_r>
  407d22:	2300      	movs	r3, #0
  407d24:	6463      	str	r3, [r4, #68]	; 0x44
  407d26:	f7fe fd9d 	bl	406864 <__sfp_lock_acquire>
  407d2a:	6e63      	ldr	r3, [r4, #100]	; 0x64
  407d2c:	2200      	movs	r2, #0
  407d2e:	07db      	lsls	r3, r3, #31
  407d30:	81a2      	strh	r2, [r4, #12]
  407d32:	d50e      	bpl.n	407d52 <_fclose_r+0x9a>
  407d34:	6da0      	ldr	r0, [r4, #88]	; 0x58
  407d36:	f7ff f8a3 	bl	406e80 <__retarget_lock_close_recursive>
  407d3a:	f7fe fd99 	bl	406870 <__sfp_lock_release>
  407d3e:	4630      	mov	r0, r6
  407d40:	bd70      	pop	{r4, r5, r6, pc}
  407d42:	f7fe fd63 	bl	40680c <__sinit>
  407d46:	e7bf      	b.n	407cc8 <_fclose_r+0x10>
  407d48:	6921      	ldr	r1, [r4, #16]
  407d4a:	4628      	mov	r0, r5
  407d4c:	f7fe fe00 	bl	406950 <_free_r>
  407d50:	e7d7      	b.n	407d02 <_fclose_r+0x4a>
  407d52:	6da0      	ldr	r0, [r4, #88]	; 0x58
  407d54:	f7ff f898 	bl	406e88 <__retarget_lock_release_recursive>
  407d58:	e7ec      	b.n	407d34 <_fclose_r+0x7c>
  407d5a:	6da0      	ldr	r0, [r4, #88]	; 0x58
  407d5c:	f7ff f892 	bl	406e84 <__retarget_lock_acquire_recursive>
  407d60:	f9b4 300c 	ldrsh.w	r3, [r4, #12]
  407d64:	2b00      	cmp	r3, #0
  407d66:	d1bb      	bne.n	407ce0 <_fclose_r+0x28>
  407d68:	6e66      	ldr	r6, [r4, #100]	; 0x64
  407d6a:	f016 0601 	ands.w	r6, r6, #1
  407d6e:	d1b1      	bne.n	407cd4 <_fclose_r+0x1c>
  407d70:	6da0      	ldr	r0, [r4, #88]	; 0x58
  407d72:	f7ff f889 	bl	406e88 <__retarget_lock_release_recursive>
  407d76:	4630      	mov	r0, r6
  407d78:	bd70      	pop	{r4, r5, r6, pc}
  407d7a:	bf00      	nop

00407d7c <__fputwc>:
  407d7c:	e92d 47f0 	stmdb	sp!, {r4, r5, r6, r7, r8, r9, sl, lr}
  407d80:	b082      	sub	sp, #8
  407d82:	4680      	mov	r8, r0
  407d84:	4689      	mov	r9, r1
  407d86:	4614      	mov	r4, r2
  407d88:	f000 f8a2 	bl	407ed0 <__locale_mb_cur_max>
  407d8c:	2801      	cmp	r0, #1
  407d8e:	d036      	beq.n	407dfe <__fputwc+0x82>
  407d90:	464a      	mov	r2, r9
  407d92:	f104 035c 	add.w	r3, r4, #92	; 0x5c
  407d96:	a901      	add	r1, sp, #4
  407d98:	4640      	mov	r0, r8
  407d9a:	f000 f941 	bl	408020 <_wcrtomb_r>
  407d9e:	1c42      	adds	r2, r0, #1
  407da0:	4606      	mov	r6, r0
  407da2:	d025      	beq.n	407df0 <__fputwc+0x74>
  407da4:	b3a8      	cbz	r0, 407e12 <__fputwc+0x96>
  407da6:	f89d e004 	ldrb.w	lr, [sp, #4]
  407daa:	2500      	movs	r5, #0
  407dac:	f10d 0a04 	add.w	sl, sp, #4
  407db0:	e009      	b.n	407dc6 <__fputwc+0x4a>
  407db2:	6823      	ldr	r3, [r4, #0]
  407db4:	1c5a      	adds	r2, r3, #1
  407db6:	6022      	str	r2, [r4, #0]
  407db8:	f883 e000 	strb.w	lr, [r3]
  407dbc:	3501      	adds	r5, #1
  407dbe:	42b5      	cmp	r5, r6
  407dc0:	d227      	bcs.n	407e12 <__fputwc+0x96>
  407dc2:	f815 e00a 	ldrb.w	lr, [r5, sl]
  407dc6:	68a3      	ldr	r3, [r4, #8]
  407dc8:	3b01      	subs	r3, #1
  407dca:	2b00      	cmp	r3, #0
  407dcc:	60a3      	str	r3, [r4, #8]
  407dce:	daf0      	bge.n	407db2 <__fputwc+0x36>
  407dd0:	69a7      	ldr	r7, [r4, #24]
  407dd2:	42bb      	cmp	r3, r7
  407dd4:	4671      	mov	r1, lr
  407dd6:	4622      	mov	r2, r4
  407dd8:	4640      	mov	r0, r8
  407dda:	db02      	blt.n	407de2 <__fputwc+0x66>
  407ddc:	f1be 0f0a 	cmp.w	lr, #10
  407de0:	d1e7      	bne.n	407db2 <__fputwc+0x36>
  407de2:	f000 f8c5 	bl	407f70 <__swbuf_r>
  407de6:	1c43      	adds	r3, r0, #1
  407de8:	d1e8      	bne.n	407dbc <__fputwc+0x40>
  407dea:	b002      	add	sp, #8
  407dec:	e8bd 87f0 	ldmia.w	sp!, {r4, r5, r6, r7, r8, r9, sl, pc}
  407df0:	89a3      	ldrh	r3, [r4, #12]
  407df2:	f043 0340 	orr.w	r3, r3, #64	; 0x40
  407df6:	81a3      	strh	r3, [r4, #12]
  407df8:	b002      	add	sp, #8
  407dfa:	e8bd 87f0 	ldmia.w	sp!, {r4, r5, r6, r7, r8, r9, sl, pc}
  407dfe:	f109 33ff 	add.w	r3, r9, #4294967295
  407e02:	2bfe      	cmp	r3, #254	; 0xfe
  407e04:	d8c4      	bhi.n	407d90 <__fputwc+0x14>
  407e06:	fa5f fe89 	uxtb.w	lr, r9
  407e0a:	4606      	mov	r6, r0
  407e0c:	f88d e004 	strb.w	lr, [sp, #4]
  407e10:	e7cb      	b.n	407daa <__fputwc+0x2e>
  407e12:	4648      	mov	r0, r9
  407e14:	b002      	add	sp, #8
  407e16:	e8bd 87f0 	ldmia.w	sp!, {r4, r5, r6, r7, r8, r9, sl, pc}
  407e1a:	bf00      	nop

00407e1c <_fputwc_r>:
  407e1c:	b530      	push	{r4, r5, lr}
  407e1e:	6e53      	ldr	r3, [r2, #100]	; 0x64
  407e20:	f013 0f01 	tst.w	r3, #1
  407e24:	f9b2 300c 	ldrsh.w	r3, [r2, #12]
  407e28:	4614      	mov	r4, r2
  407e2a:	b083      	sub	sp, #12
  407e2c:	4605      	mov	r5, r0
  407e2e:	b29a      	uxth	r2, r3
  407e30:	d101      	bne.n	407e36 <_fputwc_r+0x1a>
  407e32:	0590      	lsls	r0, r2, #22
  407e34:	d51c      	bpl.n	407e70 <_fputwc_r+0x54>
  407e36:	0490      	lsls	r0, r2, #18
  407e38:	d406      	bmi.n	407e48 <_fputwc_r+0x2c>
  407e3a:	6e62      	ldr	r2, [r4, #100]	; 0x64
  407e3c:	f443 5300 	orr.w	r3, r3, #8192	; 0x2000
  407e40:	f442 5200 	orr.w	r2, r2, #8192	; 0x2000
  407e44:	81a3      	strh	r3, [r4, #12]
  407e46:	6662      	str	r2, [r4, #100]	; 0x64
  407e48:	4628      	mov	r0, r5
  407e4a:	4622      	mov	r2, r4
  407e4c:	f7ff ff96 	bl	407d7c <__fputwc>
  407e50:	6e63      	ldr	r3, [r4, #100]	; 0x64
  407e52:	07da      	lsls	r2, r3, #31
  407e54:	4605      	mov	r5, r0
  407e56:	d402      	bmi.n	407e5e <_fputwc_r+0x42>
  407e58:	89a3      	ldrh	r3, [r4, #12]
  407e5a:	059b      	lsls	r3, r3, #22
  407e5c:	d502      	bpl.n	407e64 <_fputwc_r+0x48>
  407e5e:	4628      	mov	r0, r5
  407e60:	b003      	add	sp, #12
  407e62:	bd30      	pop	{r4, r5, pc}
  407e64:	6da0      	ldr	r0, [r4, #88]	; 0x58
  407e66:	f7ff f80f 	bl	406e88 <__retarget_lock_release_recursive>
  407e6a:	4628      	mov	r0, r5
  407e6c:	b003      	add	sp, #12
  407e6e:	bd30      	pop	{r4, r5, pc}
  407e70:	6da0      	ldr	r0, [r4, #88]	; 0x58
  407e72:	9101      	str	r1, [sp, #4]
  407e74:	f7ff f806 	bl	406e84 <__retarget_lock_acquire_recursive>
  407e78:	f9b4 300c 	ldrsh.w	r3, [r4, #12]
  407e7c:	9901      	ldr	r1, [sp, #4]
  407e7e:	b29a      	uxth	r2, r3
  407e80:	e7d9      	b.n	407e36 <_fputwc_r+0x1a>
  407e82:	bf00      	nop

00407e84 <_fstat_r>:
  407e84:	b538      	push	{r3, r4, r5, lr}
  407e86:	460b      	mov	r3, r1
  407e88:	4c07      	ldr	r4, [pc, #28]	; (407ea8 <_fstat_r+0x24>)
  407e8a:	4605      	mov	r5, r0
  407e8c:	4611      	mov	r1, r2
  407e8e:	4618      	mov	r0, r3
  407e90:	2300      	movs	r3, #0
  407e92:	6023      	str	r3, [r4, #0]
  407e94:	f7f9 fa67 	bl	401366 <_fstat>
  407e98:	1c43      	adds	r3, r0, #1
  407e9a:	d000      	beq.n	407e9e <_fstat_r+0x1a>
  407e9c:	bd38      	pop	{r3, r4, r5, pc}
  407e9e:	6823      	ldr	r3, [r4, #0]
  407ea0:	2b00      	cmp	r3, #0
  407ea2:	d0fb      	beq.n	407e9c <_fstat_r+0x18>
  407ea4:	602b      	str	r3, [r5, #0]
  407ea6:	bd38      	pop	{r3, r4, r5, pc}
  407ea8:	20400e44 	.word	0x20400e44

00407eac <_isatty_r>:
  407eac:	b538      	push	{r3, r4, r5, lr}
  407eae:	4c07      	ldr	r4, [pc, #28]	; (407ecc <_isatty_r+0x20>)
  407eb0:	2300      	movs	r3, #0
  407eb2:	4605      	mov	r5, r0
  407eb4:	4608      	mov	r0, r1
  407eb6:	6023      	str	r3, [r4, #0]
  407eb8:	f7f9 fa5a 	bl	401370 <_isatty>
  407ebc:	1c43      	adds	r3, r0, #1
  407ebe:	d000      	beq.n	407ec2 <_isatty_r+0x16>
  407ec0:	bd38      	pop	{r3, r4, r5, pc}
  407ec2:	6823      	ldr	r3, [r4, #0]
  407ec4:	2b00      	cmp	r3, #0
  407ec6:	d0fb      	beq.n	407ec0 <_isatty_r+0x14>
  407ec8:	602b      	str	r3, [r5, #0]
  407eca:	bd38      	pop	{r3, r4, r5, pc}
  407ecc:	20400e44 	.word	0x20400e44

00407ed0 <__locale_mb_cur_max>:
  407ed0:	4b04      	ldr	r3, [pc, #16]	; (407ee4 <__locale_mb_cur_max+0x14>)
  407ed2:	4a05      	ldr	r2, [pc, #20]	; (407ee8 <__locale_mb_cur_max+0x18>)
  407ed4:	681b      	ldr	r3, [r3, #0]
  407ed6:	6b5b      	ldr	r3, [r3, #52]	; 0x34
  407ed8:	2b00      	cmp	r3, #0
  407eda:	bf08      	it	eq
  407edc:	4613      	moveq	r3, r2
  407ede:	f893 0128 	ldrb.w	r0, [r3, #296]	; 0x128
  407ee2:	4770      	bx	lr
  407ee4:	20400014 	.word	0x20400014
  407ee8:	20400854 	.word	0x20400854

00407eec <_lseek_r>:
  407eec:	b570      	push	{r4, r5, r6, lr}
  407eee:	460d      	mov	r5, r1
  407ef0:	4c08      	ldr	r4, [pc, #32]	; (407f14 <_lseek_r+0x28>)
  407ef2:	4611      	mov	r1, r2
  407ef4:	4606      	mov	r6, r0
  407ef6:	461a      	mov	r2, r3
  407ef8:	4628      	mov	r0, r5
  407efa:	2300      	movs	r3, #0
  407efc:	6023      	str	r3, [r4, #0]
  407efe:	f7f9 fa39 	bl	401374 <_lseek>
  407f02:	1c43      	adds	r3, r0, #1
  407f04:	d000      	beq.n	407f08 <_lseek_r+0x1c>
  407f06:	bd70      	pop	{r4, r5, r6, pc}
  407f08:	6823      	ldr	r3, [r4, #0]
  407f0a:	2b00      	cmp	r3, #0
  407f0c:	d0fb      	beq.n	407f06 <_lseek_r+0x1a>
  407f0e:	6033      	str	r3, [r6, #0]
  407f10:	bd70      	pop	{r4, r5, r6, pc}
  407f12:	bf00      	nop
  407f14:	20400e44 	.word	0x20400e44

00407f18 <__ascii_mbtowc>:
  407f18:	b082      	sub	sp, #8
  407f1a:	b149      	cbz	r1, 407f30 <__ascii_mbtowc+0x18>
  407f1c:	b15a      	cbz	r2, 407f36 <__ascii_mbtowc+0x1e>
  407f1e:	b16b      	cbz	r3, 407f3c <__ascii_mbtowc+0x24>
  407f20:	7813      	ldrb	r3, [r2, #0]
  407f22:	600b      	str	r3, [r1, #0]
  407f24:	7812      	ldrb	r2, [r2, #0]
  407f26:	1c10      	adds	r0, r2, #0
  407f28:	bf18      	it	ne
  407f2a:	2001      	movne	r0, #1
  407f2c:	b002      	add	sp, #8
  407f2e:	4770      	bx	lr
  407f30:	a901      	add	r1, sp, #4
  407f32:	2a00      	cmp	r2, #0
  407f34:	d1f3      	bne.n	407f1e <__ascii_mbtowc+0x6>
  407f36:	4610      	mov	r0, r2
  407f38:	b002      	add	sp, #8
  407f3a:	4770      	bx	lr
  407f3c:	f06f 0001 	mvn.w	r0, #1
  407f40:	e7f4      	b.n	407f2c <__ascii_mbtowc+0x14>
  407f42:	bf00      	nop

00407f44 <_read_r>:
  407f44:	b570      	push	{r4, r5, r6, lr}
  407f46:	460d      	mov	r5, r1
  407f48:	4c08      	ldr	r4, [pc, #32]	; (407f6c <_read_r+0x28>)
  407f4a:	4611      	mov	r1, r2
  407f4c:	4606      	mov	r6, r0
  407f4e:	461a      	mov	r2, r3
  407f50:	4628      	mov	r0, r5
  407f52:	2300      	movs	r3, #0
  407f54:	6023      	str	r3, [r4, #0]
  407f56:	f7f8 fccf 	bl	4008f8 <_read>
  407f5a:	1c43      	adds	r3, r0, #1
  407f5c:	d000      	beq.n	407f60 <_read_r+0x1c>
  407f5e:	bd70      	pop	{r4, r5, r6, pc}
  407f60:	6823      	ldr	r3, [r4, #0]
  407f62:	2b00      	cmp	r3, #0
  407f64:	d0fb      	beq.n	407f5e <_read_r+0x1a>
  407f66:	6033      	str	r3, [r6, #0]
  407f68:	bd70      	pop	{r4, r5, r6, pc}
  407f6a:	bf00      	nop
  407f6c:	20400e44 	.word	0x20400e44

00407f70 <__swbuf_r>:
  407f70:	b5f8      	push	{r3, r4, r5, r6, r7, lr}
  407f72:	460d      	mov	r5, r1
  407f74:	4614      	mov	r4, r2
  407f76:	4606      	mov	r6, r0
  407f78:	b110      	cbz	r0, 407f80 <__swbuf_r+0x10>
  407f7a:	6b83      	ldr	r3, [r0, #56]	; 0x38
  407f7c:	2b00      	cmp	r3, #0
  407f7e:	d04b      	beq.n	408018 <__swbuf_r+0xa8>
  407f80:	f9b4 200c 	ldrsh.w	r2, [r4, #12]
  407f84:	69a3      	ldr	r3, [r4, #24]
  407f86:	60a3      	str	r3, [r4, #8]
  407f88:	b291      	uxth	r1, r2
  407f8a:	0708      	lsls	r0, r1, #28
  407f8c:	d539      	bpl.n	408002 <__swbuf_r+0x92>
  407f8e:	6923      	ldr	r3, [r4, #16]
  407f90:	2b00      	cmp	r3, #0
  407f92:	d036      	beq.n	408002 <__swbuf_r+0x92>
  407f94:	b2ed      	uxtb	r5, r5
  407f96:	0489      	lsls	r1, r1, #18
  407f98:	462f      	mov	r7, r5
  407f9a:	d515      	bpl.n	407fc8 <__swbuf_r+0x58>
  407f9c:	6822      	ldr	r2, [r4, #0]
  407f9e:	6961      	ldr	r1, [r4, #20]
  407fa0:	1ad3      	subs	r3, r2, r3
  407fa2:	428b      	cmp	r3, r1
  407fa4:	da1c      	bge.n	407fe0 <__swbuf_r+0x70>
  407fa6:	3301      	adds	r3, #1
  407fa8:	68a1      	ldr	r1, [r4, #8]
  407faa:	1c50      	adds	r0, r2, #1
  407fac:	3901      	subs	r1, #1
  407fae:	60a1      	str	r1, [r4, #8]
  407fb0:	6020      	str	r0, [r4, #0]
  407fb2:	7015      	strb	r5, [r2, #0]
  407fb4:	6962      	ldr	r2, [r4, #20]
  407fb6:	429a      	cmp	r2, r3
  407fb8:	d01a      	beq.n	407ff0 <__swbuf_r+0x80>
  407fba:	89a3      	ldrh	r3, [r4, #12]
  407fbc:	07db      	lsls	r3, r3, #31
  407fbe:	d501      	bpl.n	407fc4 <__swbuf_r+0x54>
  407fc0:	2d0a      	cmp	r5, #10
  407fc2:	d015      	beq.n	407ff0 <__swbuf_r+0x80>
  407fc4:	4638      	mov	r0, r7
  407fc6:	bdf8      	pop	{r3, r4, r5, r6, r7, pc}
  407fc8:	6e61      	ldr	r1, [r4, #100]	; 0x64
  407fca:	f442 5200 	orr.w	r2, r2, #8192	; 0x2000
  407fce:	f421 5100 	bic.w	r1, r1, #8192	; 0x2000
  407fd2:	81a2      	strh	r2, [r4, #12]
  407fd4:	6822      	ldr	r2, [r4, #0]
  407fd6:	6661      	str	r1, [r4, #100]	; 0x64
  407fd8:	6961      	ldr	r1, [r4, #20]
  407fda:	1ad3      	subs	r3, r2, r3
  407fdc:	428b      	cmp	r3, r1
  407fde:	dbe2      	blt.n	407fa6 <__swbuf_r+0x36>
  407fe0:	4621      	mov	r1, r4
  407fe2:	4630      	mov	r0, r6
  407fe4:	f7fe fbba 	bl	40675c <_fflush_r>
  407fe8:	b940      	cbnz	r0, 407ffc <__swbuf_r+0x8c>
  407fea:	6822      	ldr	r2, [r4, #0]
  407fec:	2301      	movs	r3, #1
  407fee:	e7db      	b.n	407fa8 <__swbuf_r+0x38>
  407ff0:	4621      	mov	r1, r4
  407ff2:	4630      	mov	r0, r6
  407ff4:	f7fe fbb2 	bl	40675c <_fflush_r>
  407ff8:	2800      	cmp	r0, #0
  407ffa:	d0e3      	beq.n	407fc4 <__swbuf_r+0x54>
  407ffc:	f04f 37ff 	mov.w	r7, #4294967295
  408000:	e7e0      	b.n	407fc4 <__swbuf_r+0x54>
  408002:	4621      	mov	r1, r4
  408004:	4630      	mov	r0, r6
  408006:	f7fd fad7 	bl	4055b8 <__swsetup_r>
  40800a:	2800      	cmp	r0, #0
  40800c:	d1f6      	bne.n	407ffc <__swbuf_r+0x8c>
  40800e:	f9b4 200c 	ldrsh.w	r2, [r4, #12]
  408012:	6923      	ldr	r3, [r4, #16]
  408014:	b291      	uxth	r1, r2
  408016:	e7bd      	b.n	407f94 <__swbuf_r+0x24>
  408018:	f7fe fbf8 	bl	40680c <__sinit>
  40801c:	e7b0      	b.n	407f80 <__swbuf_r+0x10>
  40801e:	bf00      	nop

00408020 <_wcrtomb_r>:
  408020:	b5f0      	push	{r4, r5, r6, r7, lr}
  408022:	4606      	mov	r6, r0
  408024:	b085      	sub	sp, #20
  408026:	461f      	mov	r7, r3
  408028:	b189      	cbz	r1, 40804e <_wcrtomb_r+0x2e>
  40802a:	4c10      	ldr	r4, [pc, #64]	; (40806c <_wcrtomb_r+0x4c>)
  40802c:	4d10      	ldr	r5, [pc, #64]	; (408070 <_wcrtomb_r+0x50>)
  40802e:	6824      	ldr	r4, [r4, #0]
  408030:	6b64      	ldr	r4, [r4, #52]	; 0x34
  408032:	2c00      	cmp	r4, #0
  408034:	bf08      	it	eq
  408036:	462c      	moveq	r4, r5
  408038:	f8d4 40e0 	ldr.w	r4, [r4, #224]	; 0xe0
  40803c:	47a0      	blx	r4
  40803e:	1c43      	adds	r3, r0, #1
  408040:	d103      	bne.n	40804a <_wcrtomb_r+0x2a>
  408042:	2200      	movs	r2, #0
  408044:	238a      	movs	r3, #138	; 0x8a
  408046:	603a      	str	r2, [r7, #0]
  408048:	6033      	str	r3, [r6, #0]
  40804a:	b005      	add	sp, #20
  40804c:	bdf0      	pop	{r4, r5, r6, r7, pc}
  40804e:	460c      	mov	r4, r1
  408050:	4906      	ldr	r1, [pc, #24]	; (40806c <_wcrtomb_r+0x4c>)
  408052:	4a07      	ldr	r2, [pc, #28]	; (408070 <_wcrtomb_r+0x50>)
  408054:	6809      	ldr	r1, [r1, #0]
  408056:	6b49      	ldr	r1, [r1, #52]	; 0x34
  408058:	2900      	cmp	r1, #0
  40805a:	bf08      	it	eq
  40805c:	4611      	moveq	r1, r2
  40805e:	4622      	mov	r2, r4
  408060:	f8d1 40e0 	ldr.w	r4, [r1, #224]	; 0xe0
  408064:	a901      	add	r1, sp, #4
  408066:	47a0      	blx	r4
  408068:	e7e9      	b.n	40803e <_wcrtomb_r+0x1e>
  40806a:	bf00      	nop
  40806c:	20400014 	.word	0x20400014
  408070:	20400854 	.word	0x20400854

00408074 <__ascii_wctomb>:
  408074:	b121      	cbz	r1, 408080 <__ascii_wctomb+0xc>
  408076:	2aff      	cmp	r2, #255	; 0xff
  408078:	d804      	bhi.n	408084 <__ascii_wctomb+0x10>
  40807a:	700a      	strb	r2, [r1, #0]
  40807c:	2001      	movs	r0, #1
  40807e:	4770      	bx	lr
  408080:	4608      	mov	r0, r1
  408082:	4770      	bx	lr
  408084:	238a      	movs	r3, #138	; 0x8a
  408086:	6003      	str	r3, [r0, #0]
  408088:	f04f 30ff 	mov.w	r0, #4294967295
  40808c:	4770      	bx	lr
  40808e:	bf00      	nop

00408090 <__aeabi_drsub>:
  408090:	f081 4100 	eor.w	r1, r1, #2147483648	; 0x80000000
  408094:	e002      	b.n	40809c <__adddf3>
  408096:	bf00      	nop

00408098 <__aeabi_dsub>:
  408098:	f083 4300 	eor.w	r3, r3, #2147483648	; 0x80000000

0040809c <__adddf3>:
  40809c:	b530      	push	{r4, r5, lr}
  40809e:	ea4f 0441 	mov.w	r4, r1, lsl #1
  4080a2:	ea4f 0543 	mov.w	r5, r3, lsl #1
  4080a6:	ea94 0f05 	teq	r4, r5
  4080aa:	bf08      	it	eq
  4080ac:	ea90 0f02 	teqeq	r0, r2
  4080b0:	bf1f      	itttt	ne
  4080b2:	ea54 0c00 	orrsne.w	ip, r4, r0
  4080b6:	ea55 0c02 	orrsne.w	ip, r5, r2
  4080ba:	ea7f 5c64 	mvnsne.w	ip, r4, asr #21
  4080be:	ea7f 5c65 	mvnsne.w	ip, r5, asr #21
  4080c2:	f000 80e2 	beq.w	40828a <__adddf3+0x1ee>
  4080c6:	ea4f 5454 	mov.w	r4, r4, lsr #21
  4080ca:	ebd4 5555 	rsbs	r5, r4, r5, lsr #21
  4080ce:	bfb8      	it	lt
  4080d0:	426d      	neglt	r5, r5
  4080d2:	dd0c      	ble.n	4080ee <__adddf3+0x52>
  4080d4:	442c      	add	r4, r5
  4080d6:	ea80 0202 	eor.w	r2, r0, r2
  4080da:	ea81 0303 	eor.w	r3, r1, r3
  4080de:	ea82 0000 	eor.w	r0, r2, r0
  4080e2:	ea83 0101 	eor.w	r1, r3, r1
  4080e6:	ea80 0202 	eor.w	r2, r0, r2
  4080ea:	ea81 0303 	eor.w	r3, r1, r3
  4080ee:	2d36      	cmp	r5, #54	; 0x36
  4080f0:	bf88      	it	hi
  4080f2:	bd30      	pophi	{r4, r5, pc}
  4080f4:	f011 4f00 	tst.w	r1, #2147483648	; 0x80000000
  4080f8:	ea4f 3101 	mov.w	r1, r1, lsl #12
  4080fc:	f44f 1c80 	mov.w	ip, #1048576	; 0x100000
  408100:	ea4c 3111 	orr.w	r1, ip, r1, lsr #12
  408104:	d002      	beq.n	40810c <__adddf3+0x70>
  408106:	4240      	negs	r0, r0
  408108:	eb61 0141 	sbc.w	r1, r1, r1, lsl #1
  40810c:	f013 4f00 	tst.w	r3, #2147483648	; 0x80000000
  408110:	ea4f 3303 	mov.w	r3, r3, lsl #12
  408114:	ea4c 3313 	orr.w	r3, ip, r3, lsr #12
  408118:	d002      	beq.n	408120 <__adddf3+0x84>
  40811a:	4252      	negs	r2, r2
  40811c:	eb63 0343 	sbc.w	r3, r3, r3, lsl #1
  408120:	ea94 0f05 	teq	r4, r5
  408124:	f000 80a7 	beq.w	408276 <__adddf3+0x1da>
  408128:	f1a4 0401 	sub.w	r4, r4, #1
  40812c:	f1d5 0e20 	rsbs	lr, r5, #32
  408130:	db0d      	blt.n	40814e <__adddf3+0xb2>
  408132:	fa02 fc0e 	lsl.w	ip, r2, lr
  408136:	fa22 f205 	lsr.w	r2, r2, r5
  40813a:	1880      	adds	r0, r0, r2
  40813c:	f141 0100 	adc.w	r1, r1, #0
  408140:	fa03 f20e 	lsl.w	r2, r3, lr
  408144:	1880      	adds	r0, r0, r2
  408146:	fa43 f305 	asr.w	r3, r3, r5
  40814a:	4159      	adcs	r1, r3
  40814c:	e00e      	b.n	40816c <__adddf3+0xd0>
  40814e:	f1a5 0520 	sub.w	r5, r5, #32
  408152:	f10e 0e20 	add.w	lr, lr, #32
  408156:	2a01      	cmp	r2, #1
  408158:	fa03 fc0e 	lsl.w	ip, r3, lr
  40815c:	bf28      	it	cs
  40815e:	f04c 0c02 	orrcs.w	ip, ip, #2
  408162:	fa43 f305 	asr.w	r3, r3, r5
  408166:	18c0      	adds	r0, r0, r3
  408168:	eb51 71e3 	adcs.w	r1, r1, r3, asr #31
  40816c:	f001 4500 	and.w	r5, r1, #2147483648	; 0x80000000
  408170:	d507      	bpl.n	408182 <__adddf3+0xe6>
  408172:	f04f 0e00 	mov.w	lr, #0
  408176:	f1dc 0c00 	rsbs	ip, ip, #0
  40817a:	eb7e 0000 	sbcs.w	r0, lr, r0
  40817e:	eb6e 0101 	sbc.w	r1, lr, r1
  408182:	f5b1 1f80 	cmp.w	r1, #1048576	; 0x100000
  408186:	d31b      	bcc.n	4081c0 <__adddf3+0x124>
  408188:	f5b1 1f00 	cmp.w	r1, #2097152	; 0x200000
  40818c:	d30c      	bcc.n	4081a8 <__adddf3+0x10c>
  40818e:	0849      	lsrs	r1, r1, #1
  408190:	ea5f 0030 	movs.w	r0, r0, rrx
  408194:	ea4f 0c3c 	mov.w	ip, ip, rrx
  408198:	f104 0401 	add.w	r4, r4, #1
  40819c:	ea4f 5244 	mov.w	r2, r4, lsl #21
  4081a0:	f512 0f80 	cmn.w	r2, #4194304	; 0x400000
  4081a4:	f080 809a 	bcs.w	4082dc <__adddf3+0x240>
  4081a8:	f1bc 4f00 	cmp.w	ip, #2147483648	; 0x80000000
  4081ac:	bf08      	it	eq
  4081ae:	ea5f 0c50 	movseq.w	ip, r0, lsr #1
  4081b2:	f150 0000 	adcs.w	r0, r0, #0
  4081b6:	eb41 5104 	adc.w	r1, r1, r4, lsl #20
  4081ba:	ea41 0105 	orr.w	r1, r1, r5
  4081be:	bd30      	pop	{r4, r5, pc}
  4081c0:	ea5f 0c4c 	movs.w	ip, ip, lsl #1
  4081c4:	4140      	adcs	r0, r0
  4081c6:	eb41 0101 	adc.w	r1, r1, r1
  4081ca:	f411 1f80 	tst.w	r1, #1048576	; 0x100000
  4081ce:	f1a4 0401 	sub.w	r4, r4, #1
  4081d2:	d1e9      	bne.n	4081a8 <__adddf3+0x10c>
  4081d4:	f091 0f00 	teq	r1, #0
  4081d8:	bf04      	itt	eq
  4081da:	4601      	moveq	r1, r0
  4081dc:	2000      	moveq	r0, #0
  4081de:	fab1 f381 	clz	r3, r1
  4081e2:	bf08      	it	eq
  4081e4:	3320      	addeq	r3, #32
  4081e6:	f1a3 030b 	sub.w	r3, r3, #11
  4081ea:	f1b3 0220 	subs.w	r2, r3, #32
  4081ee:	da0c      	bge.n	40820a <__adddf3+0x16e>
  4081f0:	320c      	adds	r2, #12
  4081f2:	dd08      	ble.n	408206 <__adddf3+0x16a>
  4081f4:	f102 0c14 	add.w	ip, r2, #20
  4081f8:	f1c2 020c 	rsb	r2, r2, #12
  4081fc:	fa01 f00c 	lsl.w	r0, r1, ip
  408200:	fa21 f102 	lsr.w	r1, r1, r2
  408204:	e00c      	b.n	408220 <__adddf3+0x184>
  408206:	f102 0214 	add.w	r2, r2, #20
  40820a:	bfd8      	it	le
  40820c:	f1c2 0c20 	rsble	ip, r2, #32
  408210:	fa01 f102 	lsl.w	r1, r1, r2
  408214:	fa20 fc0c 	lsr.w	ip, r0, ip
  408218:	bfdc      	itt	le
  40821a:	ea41 010c 	orrle.w	r1, r1, ip
  40821e:	4090      	lslle	r0, r2
  408220:	1ae4      	subs	r4, r4, r3
  408222:	bfa2      	ittt	ge
  408224:	eb01 5104 	addge.w	r1, r1, r4, lsl #20
  408228:	4329      	orrge	r1, r5
  40822a:	bd30      	popge	{r4, r5, pc}
  40822c:	ea6f 0404 	mvn.w	r4, r4
  408230:	3c1f      	subs	r4, #31
  408232:	da1c      	bge.n	40826e <__adddf3+0x1d2>
  408234:	340c      	adds	r4, #12
  408236:	dc0e      	bgt.n	408256 <__adddf3+0x1ba>
  408238:	f104 0414 	add.w	r4, r4, #20
  40823c:	f1c4 0220 	rsb	r2, r4, #32
  408240:	fa20 f004 	lsr.w	r0, r0, r4
  408244:	fa01 f302 	lsl.w	r3, r1, r2
  408248:	ea40 0003 	orr.w	r0, r0, r3
  40824c:	fa21 f304 	lsr.w	r3, r1, r4
  408250:	ea45 0103 	orr.w	r1, r5, r3
  408254:	bd30      	pop	{r4, r5, pc}
  408256:	f1c4 040c 	rsb	r4, r4, #12
  40825a:	f1c4 0220 	rsb	r2, r4, #32
  40825e:	fa20 f002 	lsr.w	r0, r0, r2
  408262:	fa01 f304 	lsl.w	r3, r1, r4
  408266:	ea40 0003 	orr.w	r0, r0, r3
  40826a:	4629      	mov	r1, r5
  40826c:	bd30      	pop	{r4, r5, pc}
  40826e:	fa21 f004 	lsr.w	r0, r1, r4
  408272:	4629      	mov	r1, r5
  408274:	bd30      	pop	{r4, r5, pc}
  408276:	f094 0f00 	teq	r4, #0
  40827a:	f483 1380 	eor.w	r3, r3, #1048576	; 0x100000
  40827e:	bf06      	itte	eq
  408280:	f481 1180 	eoreq.w	r1, r1, #1048576	; 0x100000
  408284:	3401      	addeq	r4, #1
  408286:	3d01      	subne	r5, #1
  408288:	e74e      	b.n	408128 <__adddf3+0x8c>
  40828a:	ea7f 5c64 	mvns.w	ip, r4, asr #21
  40828e:	bf18      	it	ne
  408290:	ea7f 5c65 	mvnsne.w	ip, r5, asr #21
  408294:	d029      	beq.n	4082ea <__adddf3+0x24e>
  408296:	ea94 0f05 	teq	r4, r5
  40829a:	bf08      	it	eq
  40829c:	ea90 0f02 	teqeq	r0, r2
  4082a0:	d005      	beq.n	4082ae <__adddf3+0x212>
  4082a2:	ea54 0c00 	orrs.w	ip, r4, r0
  4082a6:	bf04      	itt	eq
  4082a8:	4619      	moveq	r1, r3
  4082aa:	4610      	moveq	r0, r2
  4082ac:	bd30      	pop	{r4, r5, pc}
  4082ae:	ea91 0f03 	teq	r1, r3
  4082b2:	bf1e      	ittt	ne
  4082b4:	2100      	movne	r1, #0
  4082b6:	2000      	movne	r0, #0
  4082b8:	bd30      	popne	{r4, r5, pc}
  4082ba:	ea5f 5c54 	movs.w	ip, r4, lsr #21
  4082be:	d105      	bne.n	4082cc <__adddf3+0x230>
  4082c0:	0040      	lsls	r0, r0, #1
  4082c2:	4149      	adcs	r1, r1
  4082c4:	bf28      	it	cs
  4082c6:	f041 4100 	orrcs.w	r1, r1, #2147483648	; 0x80000000
  4082ca:	bd30      	pop	{r4, r5, pc}
  4082cc:	f514 0480 	adds.w	r4, r4, #4194304	; 0x400000
  4082d0:	bf3c      	itt	cc
  4082d2:	f501 1180 	addcc.w	r1, r1, #1048576	; 0x100000
  4082d6:	bd30      	popcc	{r4, r5, pc}
  4082d8:	f001 4500 	and.w	r5, r1, #2147483648	; 0x80000000
  4082dc:	f045 41fe 	orr.w	r1, r5, #2130706432	; 0x7f000000
  4082e0:	f441 0170 	orr.w	r1, r1, #15728640	; 0xf00000
  4082e4:	f04f 0000 	mov.w	r0, #0
  4082e8:	bd30      	pop	{r4, r5, pc}
  4082ea:	ea7f 5c64 	mvns.w	ip, r4, asr #21
  4082ee:	bf1a      	itte	ne
  4082f0:	4619      	movne	r1, r3
  4082f2:	4610      	movne	r0, r2
  4082f4:	ea7f 5c65 	mvnseq.w	ip, r5, asr #21
  4082f8:	bf1c      	itt	ne
  4082fa:	460b      	movne	r3, r1
  4082fc:	4602      	movne	r2, r0
  4082fe:	ea50 3401 	orrs.w	r4, r0, r1, lsl #12
  408302:	bf06      	itte	eq
  408304:	ea52 3503 	orrseq.w	r5, r2, r3, lsl #12
  408308:	ea91 0f03 	teqeq	r1, r3
  40830c:	f441 2100 	orrne.w	r1, r1, #524288	; 0x80000
  408310:	bd30      	pop	{r4, r5, pc}
  408312:	bf00      	nop

00408314 <__aeabi_ui2d>:
  408314:	f090 0f00 	teq	r0, #0
  408318:	bf04      	itt	eq
  40831a:	2100      	moveq	r1, #0
  40831c:	4770      	bxeq	lr
  40831e:	b530      	push	{r4, r5, lr}
  408320:	f44f 6480 	mov.w	r4, #1024	; 0x400
  408324:	f104 0432 	add.w	r4, r4, #50	; 0x32
  408328:	f04f 0500 	mov.w	r5, #0
  40832c:	f04f 0100 	mov.w	r1, #0
  408330:	e750      	b.n	4081d4 <__adddf3+0x138>
  408332:	bf00      	nop

00408334 <__aeabi_i2d>:
  408334:	f090 0f00 	teq	r0, #0
  408338:	bf04      	itt	eq
  40833a:	2100      	moveq	r1, #0
  40833c:	4770      	bxeq	lr
  40833e:	b530      	push	{r4, r5, lr}
  408340:	f44f 6480 	mov.w	r4, #1024	; 0x400
  408344:	f104 0432 	add.w	r4, r4, #50	; 0x32
  408348:	f010 4500 	ands.w	r5, r0, #2147483648	; 0x80000000
  40834c:	bf48      	it	mi
  40834e:	4240      	negmi	r0, r0
  408350:	f04f 0100 	mov.w	r1, #0
  408354:	e73e      	b.n	4081d4 <__adddf3+0x138>
  408356:	bf00      	nop

00408358 <__aeabi_f2d>:
  408358:	0042      	lsls	r2, r0, #1
  40835a:	ea4f 01e2 	mov.w	r1, r2, asr #3
  40835e:	ea4f 0131 	mov.w	r1, r1, rrx
  408362:	ea4f 7002 	mov.w	r0, r2, lsl #28
  408366:	bf1f      	itttt	ne
  408368:	f012 437f 	andsne.w	r3, r2, #4278190080	; 0xff000000
  40836c:	f093 4f7f 	teqne	r3, #4278190080	; 0xff000000
  408370:	f081 5160 	eorne.w	r1, r1, #939524096	; 0x38000000
  408374:	4770      	bxne	lr
  408376:	f092 0f00 	teq	r2, #0
  40837a:	bf14      	ite	ne
  40837c:	f093 4f7f 	teqne	r3, #4278190080	; 0xff000000
  408380:	4770      	bxeq	lr
  408382:	b530      	push	{r4, r5, lr}
  408384:	f44f 7460 	mov.w	r4, #896	; 0x380
  408388:	f001 4500 	and.w	r5, r1, #2147483648	; 0x80000000
  40838c:	f021 4100 	bic.w	r1, r1, #2147483648	; 0x80000000
  408390:	e720      	b.n	4081d4 <__adddf3+0x138>
  408392:	bf00      	nop

00408394 <__aeabi_ul2d>:
  408394:	ea50 0201 	orrs.w	r2, r0, r1
  408398:	bf08      	it	eq
  40839a:	4770      	bxeq	lr
  40839c:	b530      	push	{r4, r5, lr}
  40839e:	f04f 0500 	mov.w	r5, #0
  4083a2:	e00a      	b.n	4083ba <__aeabi_l2d+0x16>

004083a4 <__aeabi_l2d>:
  4083a4:	ea50 0201 	orrs.w	r2, r0, r1
  4083a8:	bf08      	it	eq
  4083aa:	4770      	bxeq	lr
  4083ac:	b530      	push	{r4, r5, lr}
  4083ae:	f011 4500 	ands.w	r5, r1, #2147483648	; 0x80000000
  4083b2:	d502      	bpl.n	4083ba <__aeabi_l2d+0x16>
  4083b4:	4240      	negs	r0, r0
  4083b6:	eb61 0141 	sbc.w	r1, r1, r1, lsl #1
  4083ba:	f44f 6480 	mov.w	r4, #1024	; 0x400
  4083be:	f104 0432 	add.w	r4, r4, #50	; 0x32
  4083c2:	ea5f 5c91 	movs.w	ip, r1, lsr #22
  4083c6:	f43f aedc 	beq.w	408182 <__adddf3+0xe6>
  4083ca:	f04f 0203 	mov.w	r2, #3
  4083ce:	ea5f 0cdc 	movs.w	ip, ip, lsr #3
  4083d2:	bf18      	it	ne
  4083d4:	3203      	addne	r2, #3
  4083d6:	ea5f 0cdc 	movs.w	ip, ip, lsr #3
  4083da:	bf18      	it	ne
  4083dc:	3203      	addne	r2, #3
  4083de:	eb02 02dc 	add.w	r2, r2, ip, lsr #3
  4083e2:	f1c2 0320 	rsb	r3, r2, #32
  4083e6:	fa00 fc03 	lsl.w	ip, r0, r3
  4083ea:	fa20 f002 	lsr.w	r0, r0, r2
  4083ee:	fa01 fe03 	lsl.w	lr, r1, r3
  4083f2:	ea40 000e 	orr.w	r0, r0, lr
  4083f6:	fa21 f102 	lsr.w	r1, r1, r2
  4083fa:	4414      	add	r4, r2
  4083fc:	e6c1      	b.n	408182 <__adddf3+0xe6>
  4083fe:	bf00      	nop

00408400 <__aeabi_dmul>:
  408400:	b570      	push	{r4, r5, r6, lr}
  408402:	f04f 0cff 	mov.w	ip, #255	; 0xff
  408406:	f44c 6ce0 	orr.w	ip, ip, #1792	; 0x700
  40840a:	ea1c 5411 	ands.w	r4, ip, r1, lsr #20
  40840e:	bf1d      	ittte	ne
  408410:	ea1c 5513 	andsne.w	r5, ip, r3, lsr #20
  408414:	ea94 0f0c 	teqne	r4, ip
  408418:	ea95 0f0c 	teqne	r5, ip
  40841c:	f000 f8de 	bleq	4085dc <__aeabi_dmul+0x1dc>
  408420:	442c      	add	r4, r5
  408422:	ea81 0603 	eor.w	r6, r1, r3
  408426:	ea21 514c 	bic.w	r1, r1, ip, lsl #21
  40842a:	ea23 534c 	bic.w	r3, r3, ip, lsl #21
  40842e:	ea50 3501 	orrs.w	r5, r0, r1, lsl #12
  408432:	bf18      	it	ne
  408434:	ea52 3503 	orrsne.w	r5, r2, r3, lsl #12
  408438:	f441 1180 	orr.w	r1, r1, #1048576	; 0x100000
  40843c:	f443 1380 	orr.w	r3, r3, #1048576	; 0x100000
  408440:	d038      	beq.n	4084b4 <__aeabi_dmul+0xb4>
  408442:	fba0 ce02 	umull	ip, lr, r0, r2
  408446:	f04f 0500 	mov.w	r5, #0
  40844a:	fbe1 e502 	umlal	lr, r5, r1, r2
  40844e:	f006 4200 	and.w	r2, r6, #2147483648	; 0x80000000
  408452:	fbe0 e503 	umlal	lr, r5, r0, r3
  408456:	f04f 0600 	mov.w	r6, #0
  40845a:	fbe1 5603 	umlal	r5, r6, r1, r3
  40845e:	f09c 0f00 	teq	ip, #0
  408462:	bf18      	it	ne
  408464:	f04e 0e01 	orrne.w	lr, lr, #1
  408468:	f1a4 04ff 	sub.w	r4, r4, #255	; 0xff
  40846c:	f5b6 7f00 	cmp.w	r6, #512	; 0x200
  408470:	f564 7440 	sbc.w	r4, r4, #768	; 0x300
  408474:	d204      	bcs.n	408480 <__aeabi_dmul+0x80>
  408476:	ea5f 0e4e 	movs.w	lr, lr, lsl #1
  40847a:	416d      	adcs	r5, r5
  40847c:	eb46 0606 	adc.w	r6, r6, r6
  408480:	ea42 21c6 	orr.w	r1, r2, r6, lsl #11
  408484:	ea41 5155 	orr.w	r1, r1, r5, lsr #21
  408488:	ea4f 20c5 	mov.w	r0, r5, lsl #11
  40848c:	ea40 505e 	orr.w	r0, r0, lr, lsr #21
  408490:	ea4f 2ece 	mov.w	lr, lr, lsl #11
  408494:	f1b4 0cfd 	subs.w	ip, r4, #253	; 0xfd
  408498:	bf88      	it	hi
  40849a:	f5bc 6fe0 	cmphi.w	ip, #1792	; 0x700
  40849e:	d81e      	bhi.n	4084de <__aeabi_dmul+0xde>
  4084a0:	f1be 4f00 	cmp.w	lr, #2147483648	; 0x80000000
  4084a4:	bf08      	it	eq
  4084a6:	ea5f 0e50 	movseq.w	lr, r0, lsr #1
  4084aa:	f150 0000 	adcs.w	r0, r0, #0
  4084ae:	eb41 5104 	adc.w	r1, r1, r4, lsl #20
  4084b2:	bd70      	pop	{r4, r5, r6, pc}
  4084b4:	f006 4600 	and.w	r6, r6, #2147483648	; 0x80000000
  4084b8:	ea46 0101 	orr.w	r1, r6, r1
  4084bc:	ea40 0002 	orr.w	r0, r0, r2
  4084c0:	ea81 0103 	eor.w	r1, r1, r3
  4084c4:	ebb4 045c 	subs.w	r4, r4, ip, lsr #1
  4084c8:	bfc2      	ittt	gt
  4084ca:	ebd4 050c 	rsbsgt	r5, r4, ip
  4084ce:	ea41 5104 	orrgt.w	r1, r1, r4, lsl #20
  4084d2:	bd70      	popgt	{r4, r5, r6, pc}
  4084d4:	f441 1180 	orr.w	r1, r1, #1048576	; 0x100000
  4084d8:	f04f 0e00 	mov.w	lr, #0
  4084dc:	3c01      	subs	r4, #1
  4084de:	f300 80ab 	bgt.w	408638 <__aeabi_dmul+0x238>
  4084e2:	f114 0f36 	cmn.w	r4, #54	; 0x36
  4084e6:	bfde      	ittt	le
  4084e8:	2000      	movle	r0, #0
  4084ea:	f001 4100 	andle.w	r1, r1, #2147483648	; 0x80000000
  4084ee:	bd70      	pople	{r4, r5, r6, pc}
  4084f0:	f1c4 0400 	rsb	r4, r4, #0
  4084f4:	3c20      	subs	r4, #32
  4084f6:	da35      	bge.n	408564 <__aeabi_dmul+0x164>
  4084f8:	340c      	adds	r4, #12
  4084fa:	dc1b      	bgt.n	408534 <__aeabi_dmul+0x134>
  4084fc:	f104 0414 	add.w	r4, r4, #20
  408500:	f1c4 0520 	rsb	r5, r4, #32
  408504:	fa00 f305 	lsl.w	r3, r0, r5
  408508:	fa20 f004 	lsr.w	r0, r0, r4
  40850c:	fa01 f205 	lsl.w	r2, r1, r5
  408510:	ea40 0002 	orr.w	r0, r0, r2
  408514:	f001 4200 	and.w	r2, r1, #2147483648	; 0x80000000
  408518:	f021 4100 	bic.w	r1, r1, #2147483648	; 0x80000000
  40851c:	eb10 70d3 	adds.w	r0, r0, r3, lsr #31
  408520:	fa21 f604 	lsr.w	r6, r1, r4
  408524:	eb42 0106 	adc.w	r1, r2, r6
  408528:	ea5e 0e43 	orrs.w	lr, lr, r3, lsl #1
  40852c:	bf08      	it	eq
  40852e:	ea20 70d3 	biceq.w	r0, r0, r3, lsr #31
  408532:	bd70      	pop	{r4, r5, r6, pc}
  408534:	f1c4 040c 	rsb	r4, r4, #12
  408538:	f1c4 0520 	rsb	r5, r4, #32
  40853c:	fa00 f304 	lsl.w	r3, r0, r4
  408540:	fa20 f005 	lsr.w	r0, r0, r5
  408544:	fa01 f204 	lsl.w	r2, r1, r4
  408548:	ea40 0002 	orr.w	r0, r0, r2
  40854c:	f001 4100 	and.w	r1, r1, #2147483648	; 0x80000000
  408550:	eb10 70d3 	adds.w	r0, r0, r3, lsr #31
  408554:	f141 0100 	adc.w	r1, r1, #0
  408558:	ea5e 0e43 	orrs.w	lr, lr, r3, lsl #1
  40855c:	bf08      	it	eq
  40855e:	ea20 70d3 	biceq.w	r0, r0, r3, lsr #31
  408562:	bd70      	pop	{r4, r5, r6, pc}
  408564:	f1c4 0520 	rsb	r5, r4, #32
  408568:	fa00 f205 	lsl.w	r2, r0, r5
  40856c:	ea4e 0e02 	orr.w	lr, lr, r2
  408570:	fa20 f304 	lsr.w	r3, r0, r4
  408574:	fa01 f205 	lsl.w	r2, r1, r5
  408578:	ea43 0302 	orr.w	r3, r3, r2
  40857c:	fa21 f004 	lsr.w	r0, r1, r4
  408580:	f001 4100 	and.w	r1, r1, #2147483648	; 0x80000000
  408584:	fa21 f204 	lsr.w	r2, r1, r4
  408588:	ea20 0002 	bic.w	r0, r0, r2
  40858c:	eb00 70d3 	add.w	r0, r0, r3, lsr #31
  408590:	ea5e 0e43 	orrs.w	lr, lr, r3, lsl #1
  408594:	bf08      	it	eq
  408596:	ea20 70d3 	biceq.w	r0, r0, r3, lsr #31
  40859a:	bd70      	pop	{r4, r5, r6, pc}
  40859c:	f094 0f00 	teq	r4, #0
  4085a0:	d10f      	bne.n	4085c2 <__aeabi_dmul+0x1c2>
  4085a2:	f001 4600 	and.w	r6, r1, #2147483648	; 0x80000000
  4085a6:	0040      	lsls	r0, r0, #1
  4085a8:	eb41 0101 	adc.w	r1, r1, r1
  4085ac:	f411 1f80 	tst.w	r1, #1048576	; 0x100000
  4085b0:	bf08      	it	eq
  4085b2:	3c01      	subeq	r4, #1
  4085b4:	d0f7      	beq.n	4085a6 <__aeabi_dmul+0x1a6>
  4085b6:	ea41 0106 	orr.w	r1, r1, r6
  4085ba:	f095 0f00 	teq	r5, #0
  4085be:	bf18      	it	ne
  4085c0:	4770      	bxne	lr
  4085c2:	f003 4600 	and.w	r6, r3, #2147483648	; 0x80000000
  4085c6:	0052      	lsls	r2, r2, #1
  4085c8:	eb43 0303 	adc.w	r3, r3, r3
  4085cc:	f413 1f80 	tst.w	r3, #1048576	; 0x100000
  4085d0:	bf08      	it	eq
  4085d2:	3d01      	subeq	r5, #1
  4085d4:	d0f7      	beq.n	4085c6 <__aeabi_dmul+0x1c6>
  4085d6:	ea43 0306 	orr.w	r3, r3, r6
  4085da:	4770      	bx	lr
  4085dc:	ea94 0f0c 	teq	r4, ip
  4085e0:	ea0c 5513 	and.w	r5, ip, r3, lsr #20
  4085e4:	bf18      	it	ne
  4085e6:	ea95 0f0c 	teqne	r5, ip
  4085ea:	d00c      	beq.n	408606 <__aeabi_dmul+0x206>
  4085ec:	ea50 0641 	orrs.w	r6, r0, r1, lsl #1
  4085f0:	bf18      	it	ne
  4085f2:	ea52 0643 	orrsne.w	r6, r2, r3, lsl #1
  4085f6:	d1d1      	bne.n	40859c <__aeabi_dmul+0x19c>
  4085f8:	ea81 0103 	eor.w	r1, r1, r3
  4085fc:	f001 4100 	and.w	r1, r1, #2147483648	; 0x80000000
  408600:	f04f 0000 	mov.w	r0, #0
  408604:	bd70      	pop	{r4, r5, r6, pc}
  408606:	ea50 0641 	orrs.w	r6, r0, r1, lsl #1
  40860a:	bf06      	itte	eq
  40860c:	4610      	moveq	r0, r2
  40860e:	4619      	moveq	r1, r3
  408610:	ea52 0643 	orrsne.w	r6, r2, r3, lsl #1
  408614:	d019      	beq.n	40864a <__aeabi_dmul+0x24a>
  408616:	ea94 0f0c 	teq	r4, ip
  40861a:	d102      	bne.n	408622 <__aeabi_dmul+0x222>
  40861c:	ea50 3601 	orrs.w	r6, r0, r1, lsl #12
  408620:	d113      	bne.n	40864a <__aeabi_dmul+0x24a>
  408622:	ea95 0f0c 	teq	r5, ip
  408626:	d105      	bne.n	408634 <__aeabi_dmul+0x234>
  408628:	ea52 3603 	orrs.w	r6, r2, r3, lsl #12
  40862c:	bf1c      	itt	ne
  40862e:	4610      	movne	r0, r2
  408630:	4619      	movne	r1, r3
  408632:	d10a      	bne.n	40864a <__aeabi_dmul+0x24a>
  408634:	ea81 0103 	eor.w	r1, r1, r3
  408638:	f001 4100 	and.w	r1, r1, #2147483648	; 0x80000000
  40863c:	f041 41fe 	orr.w	r1, r1, #2130706432	; 0x7f000000
  408640:	f441 0170 	orr.w	r1, r1, #15728640	; 0xf00000
  408644:	f04f 0000 	mov.w	r0, #0
  408648:	bd70      	pop	{r4, r5, r6, pc}
  40864a:	f041 41fe 	orr.w	r1, r1, #2130706432	; 0x7f000000
  40864e:	f441 0178 	orr.w	r1, r1, #16252928	; 0xf80000
  408652:	bd70      	pop	{r4, r5, r6, pc}

00408654 <__aeabi_ddiv>:
  408654:	b570      	push	{r4, r5, r6, lr}
  408656:	f04f 0cff 	mov.w	ip, #255	; 0xff
  40865a:	f44c 6ce0 	orr.w	ip, ip, #1792	; 0x700
  40865e:	ea1c 5411 	ands.w	r4, ip, r1, lsr #20
  408662:	bf1d      	ittte	ne
  408664:	ea1c 5513 	andsne.w	r5, ip, r3, lsr #20
  408668:	ea94 0f0c 	teqne	r4, ip
  40866c:	ea95 0f0c 	teqne	r5, ip
  408670:	f000 f8a7 	bleq	4087c2 <__aeabi_ddiv+0x16e>
  408674:	eba4 0405 	sub.w	r4, r4, r5
  408678:	ea81 0e03 	eor.w	lr, r1, r3
  40867c:	ea52 3503 	orrs.w	r5, r2, r3, lsl #12
  408680:	ea4f 3101 	mov.w	r1, r1, lsl #12
  408684:	f000 8088 	beq.w	408798 <__aeabi_ddiv+0x144>
  408688:	ea4f 3303 	mov.w	r3, r3, lsl #12
  40868c:	f04f 5580 	mov.w	r5, #268435456	; 0x10000000
  408690:	ea45 1313 	orr.w	r3, r5, r3, lsr #4
  408694:	ea43 6312 	orr.w	r3, r3, r2, lsr #24
  408698:	ea4f 2202 	mov.w	r2, r2, lsl #8
  40869c:	ea45 1511 	orr.w	r5, r5, r1, lsr #4
  4086a0:	ea45 6510 	orr.w	r5, r5, r0, lsr #24
  4086a4:	ea4f 2600 	mov.w	r6, r0, lsl #8
  4086a8:	f00e 4100 	and.w	r1, lr, #2147483648	; 0x80000000
  4086ac:	429d      	cmp	r5, r3
  4086ae:	bf08      	it	eq
  4086b0:	4296      	cmpeq	r6, r2
  4086b2:	f144 04fd 	adc.w	r4, r4, #253	; 0xfd
  4086b6:	f504 7440 	add.w	r4, r4, #768	; 0x300
  4086ba:	d202      	bcs.n	4086c2 <__aeabi_ddiv+0x6e>
  4086bc:	085b      	lsrs	r3, r3, #1
  4086be:	ea4f 0232 	mov.w	r2, r2, rrx
  4086c2:	1ab6      	subs	r6, r6, r2
  4086c4:	eb65 0503 	sbc.w	r5, r5, r3
  4086c8:	085b      	lsrs	r3, r3, #1
  4086ca:	ea4f 0232 	mov.w	r2, r2, rrx
  4086ce:	f44f 1080 	mov.w	r0, #1048576	; 0x100000
  4086d2:	f44f 2c00 	mov.w	ip, #524288	; 0x80000
  4086d6:	ebb6 0e02 	subs.w	lr, r6, r2
  4086da:	eb75 0e03 	sbcs.w	lr, r5, r3
  4086de:	bf22      	ittt	cs
  4086e0:	1ab6      	subcs	r6, r6, r2
  4086e2:	4675      	movcs	r5, lr
  4086e4:	ea40 000c 	orrcs.w	r0, r0, ip
  4086e8:	085b      	lsrs	r3, r3, #1
  4086ea:	ea4f 0232 	mov.w	r2, r2, rrx
  4086ee:	ebb6 0e02 	subs.w	lr, r6, r2
  4086f2:	eb75 0e03 	sbcs.w	lr, r5, r3
  4086f6:	bf22      	ittt	cs
  4086f8:	1ab6      	subcs	r6, r6, r2
  4086fa:	4675      	movcs	r5, lr
  4086fc:	ea40 005c 	orrcs.w	r0, r0, ip, lsr #1
  408700:	085b      	lsrs	r3, r3, #1
  408702:	ea4f 0232 	mov.w	r2, r2, rrx
  408706:	ebb6 0e02 	subs.w	lr, r6, r2
  40870a:	eb75 0e03 	sbcs.w	lr, r5, r3
  40870e:	bf22      	ittt	cs
  408710:	1ab6      	subcs	r6, r6, r2
  408712:	4675      	movcs	r5, lr
  408714:	ea40 009c 	orrcs.w	r0, r0, ip, lsr #2
  408718:	085b      	lsrs	r3, r3, #1
  40871a:	ea4f 0232 	mov.w	r2, r2, rrx
  40871e:	ebb6 0e02 	subs.w	lr, r6, r2
  408722:	eb75 0e03 	sbcs.w	lr, r5, r3
  408726:	bf22      	ittt	cs
  408728:	1ab6      	subcs	r6, r6, r2
  40872a:	4675      	movcs	r5, lr
  40872c:	ea40 00dc 	orrcs.w	r0, r0, ip, lsr #3
  408730:	ea55 0e06 	orrs.w	lr, r5, r6
  408734:	d018      	beq.n	408768 <__aeabi_ddiv+0x114>
  408736:	ea4f 1505 	mov.w	r5, r5, lsl #4
  40873a:	ea45 7516 	orr.w	r5, r5, r6, lsr #28
  40873e:	ea4f 1606 	mov.w	r6, r6, lsl #4
  408742:	ea4f 03c3 	mov.w	r3, r3, lsl #3
  408746:	ea43 7352 	orr.w	r3, r3, r2, lsr #29
  40874a:	ea4f 02c2 	mov.w	r2, r2, lsl #3
  40874e:	ea5f 1c1c 	movs.w	ip, ip, lsr #4
  408752:	d1c0      	bne.n	4086d6 <__aeabi_ddiv+0x82>
  408754:	f411 1f80 	tst.w	r1, #1048576	; 0x100000
  408758:	d10b      	bne.n	408772 <__aeabi_ddiv+0x11e>
  40875a:	ea41 0100 	orr.w	r1, r1, r0
  40875e:	f04f 0000 	mov.w	r0, #0
  408762:	f04f 4c00 	mov.w	ip, #2147483648	; 0x80000000
  408766:	e7b6      	b.n	4086d6 <__aeabi_ddiv+0x82>
  408768:	f411 1f80 	tst.w	r1, #1048576	; 0x100000
  40876c:	bf04      	itt	eq
  40876e:	4301      	orreq	r1, r0
  408770:	2000      	moveq	r0, #0
  408772:	f1b4 0cfd 	subs.w	ip, r4, #253	; 0xfd
  408776:	bf88      	it	hi
  408778:	f5bc 6fe0 	cmphi.w	ip, #1792	; 0x700
  40877c:	f63f aeaf 	bhi.w	4084de <__aeabi_dmul+0xde>
  408780:	ebb5 0c03 	subs.w	ip, r5, r3
  408784:	bf04      	itt	eq
  408786:	ebb6 0c02 	subseq.w	ip, r6, r2
  40878a:	ea5f 0c50 	movseq.w	ip, r0, lsr #1
  40878e:	f150 0000 	adcs.w	r0, r0, #0
  408792:	eb41 5104 	adc.w	r1, r1, r4, lsl #20
  408796:	bd70      	pop	{r4, r5, r6, pc}
  408798:	f00e 4e00 	and.w	lr, lr, #2147483648	; 0x80000000
  40879c:	ea4e 3111 	orr.w	r1, lr, r1, lsr #12
  4087a0:	eb14 045c 	adds.w	r4, r4, ip, lsr #1
  4087a4:	bfc2      	ittt	gt
  4087a6:	ebd4 050c 	rsbsgt	r5, r4, ip
  4087aa:	ea41 5104 	orrgt.w	r1, r1, r4, lsl #20
  4087ae:	bd70      	popgt	{r4, r5, r6, pc}
  4087b0:	f441 1180 	orr.w	r1, r1, #1048576	; 0x100000
  4087b4:	f04f 0e00 	mov.w	lr, #0
  4087b8:	3c01      	subs	r4, #1
  4087ba:	e690      	b.n	4084de <__aeabi_dmul+0xde>
  4087bc:	ea45 0e06 	orr.w	lr, r5, r6
  4087c0:	e68d      	b.n	4084de <__aeabi_dmul+0xde>
  4087c2:	ea0c 5513 	and.w	r5, ip, r3, lsr #20
  4087c6:	ea94 0f0c 	teq	r4, ip
  4087ca:	bf08      	it	eq
  4087cc:	ea95 0f0c 	teqeq	r5, ip
  4087d0:	f43f af3b 	beq.w	40864a <__aeabi_dmul+0x24a>
  4087d4:	ea94 0f0c 	teq	r4, ip
  4087d8:	d10a      	bne.n	4087f0 <__aeabi_ddiv+0x19c>
  4087da:	ea50 3401 	orrs.w	r4, r0, r1, lsl #12
  4087de:	f47f af34 	bne.w	40864a <__aeabi_dmul+0x24a>
  4087e2:	ea95 0f0c 	teq	r5, ip
  4087e6:	f47f af25 	bne.w	408634 <__aeabi_dmul+0x234>
  4087ea:	4610      	mov	r0, r2
  4087ec:	4619      	mov	r1, r3
  4087ee:	e72c      	b.n	40864a <__aeabi_dmul+0x24a>
  4087f0:	ea95 0f0c 	teq	r5, ip
  4087f4:	d106      	bne.n	408804 <__aeabi_ddiv+0x1b0>
  4087f6:	ea52 3503 	orrs.w	r5, r2, r3, lsl #12
  4087fa:	f43f aefd 	beq.w	4085f8 <__aeabi_dmul+0x1f8>
  4087fe:	4610      	mov	r0, r2
  408800:	4619      	mov	r1, r3
  408802:	e722      	b.n	40864a <__aeabi_dmul+0x24a>
  408804:	ea50 0641 	orrs.w	r6, r0, r1, lsl #1
  408808:	bf18      	it	ne
  40880a:	ea52 0643 	orrsne.w	r6, r2, r3, lsl #1
  40880e:	f47f aec5 	bne.w	40859c <__aeabi_dmul+0x19c>
  408812:	ea50 0441 	orrs.w	r4, r0, r1, lsl #1
  408816:	f47f af0d 	bne.w	408634 <__aeabi_dmul+0x234>
  40881a:	ea52 0543 	orrs.w	r5, r2, r3, lsl #1
  40881e:	f47f aeeb 	bne.w	4085f8 <__aeabi_dmul+0x1f8>
  408822:	e712      	b.n	40864a <__aeabi_dmul+0x24a>

00408824 <__gedf2>:
  408824:	f04f 3cff 	mov.w	ip, #4294967295
  408828:	e006      	b.n	408838 <__cmpdf2+0x4>
  40882a:	bf00      	nop

0040882c <__ledf2>:
  40882c:	f04f 0c01 	mov.w	ip, #1
  408830:	e002      	b.n	408838 <__cmpdf2+0x4>
  408832:	bf00      	nop

00408834 <__cmpdf2>:
  408834:	f04f 0c01 	mov.w	ip, #1
  408838:	f84d cd04 	str.w	ip, [sp, #-4]!
  40883c:	ea4f 0c41 	mov.w	ip, r1, lsl #1
  408840:	ea7f 5c6c 	mvns.w	ip, ip, asr #21
  408844:	ea4f 0c43 	mov.w	ip, r3, lsl #1
  408848:	bf18      	it	ne
  40884a:	ea7f 5c6c 	mvnsne.w	ip, ip, asr #21
  40884e:	d01b      	beq.n	408888 <__cmpdf2+0x54>
  408850:	b001      	add	sp, #4
  408852:	ea50 0c41 	orrs.w	ip, r0, r1, lsl #1
  408856:	bf0c      	ite	eq
  408858:	ea52 0c43 	orrseq.w	ip, r2, r3, lsl #1
  40885c:	ea91 0f03 	teqne	r1, r3
  408860:	bf02      	ittt	eq
  408862:	ea90 0f02 	teqeq	r0, r2
  408866:	2000      	moveq	r0, #0
  408868:	4770      	bxeq	lr
  40886a:	f110 0f00 	cmn.w	r0, #0
  40886e:	ea91 0f03 	teq	r1, r3
  408872:	bf58      	it	pl
  408874:	4299      	cmppl	r1, r3
  408876:	bf08      	it	eq
  408878:	4290      	cmpeq	r0, r2
  40887a:	bf2c      	ite	cs
  40887c:	17d8      	asrcs	r0, r3, #31
  40887e:	ea6f 70e3 	mvncc.w	r0, r3, asr #31
  408882:	f040 0001 	orr.w	r0, r0, #1
  408886:	4770      	bx	lr
  408888:	ea4f 0c41 	mov.w	ip, r1, lsl #1
  40888c:	ea7f 5c6c 	mvns.w	ip, ip, asr #21
  408890:	d102      	bne.n	408898 <__cmpdf2+0x64>
  408892:	ea50 3c01 	orrs.w	ip, r0, r1, lsl #12
  408896:	d107      	bne.n	4088a8 <__cmpdf2+0x74>
  408898:	ea4f 0c43 	mov.w	ip, r3, lsl #1
  40889c:	ea7f 5c6c 	mvns.w	ip, ip, asr #21
  4088a0:	d1d6      	bne.n	408850 <__cmpdf2+0x1c>
  4088a2:	ea52 3c03 	orrs.w	ip, r2, r3, lsl #12
  4088a6:	d0d3      	beq.n	408850 <__cmpdf2+0x1c>
  4088a8:	f85d 0b04 	ldr.w	r0, [sp], #4
  4088ac:	4770      	bx	lr
  4088ae:	bf00      	nop

004088b0 <__aeabi_cdrcmple>:
  4088b0:	4684      	mov	ip, r0
  4088b2:	4610      	mov	r0, r2
  4088b4:	4662      	mov	r2, ip
  4088b6:	468c      	mov	ip, r1
  4088b8:	4619      	mov	r1, r3
  4088ba:	4663      	mov	r3, ip
  4088bc:	e000      	b.n	4088c0 <__aeabi_cdcmpeq>
  4088be:	bf00      	nop

004088c0 <__aeabi_cdcmpeq>:
  4088c0:	b501      	push	{r0, lr}
  4088c2:	f7ff ffb7 	bl	408834 <__cmpdf2>
  4088c6:	2800      	cmp	r0, #0
  4088c8:	bf48      	it	mi
  4088ca:	f110 0f00 	cmnmi.w	r0, #0
  4088ce:	bd01      	pop	{r0, pc}

004088d0 <__aeabi_dcmpeq>:
  4088d0:	f84d ed08 	str.w	lr, [sp, #-8]!
  4088d4:	f7ff fff4 	bl	4088c0 <__aeabi_cdcmpeq>
  4088d8:	bf0c      	ite	eq
  4088da:	2001      	moveq	r0, #1
  4088dc:	2000      	movne	r0, #0
  4088de:	f85d fb08 	ldr.w	pc, [sp], #8
  4088e2:	bf00      	nop

004088e4 <__aeabi_dcmplt>:
  4088e4:	f84d ed08 	str.w	lr, [sp, #-8]!
  4088e8:	f7ff ffea 	bl	4088c0 <__aeabi_cdcmpeq>
  4088ec:	bf34      	ite	cc
  4088ee:	2001      	movcc	r0, #1
  4088f0:	2000      	movcs	r0, #0
  4088f2:	f85d fb08 	ldr.w	pc, [sp], #8
  4088f6:	bf00      	nop

004088f8 <__aeabi_dcmple>:
  4088f8:	f84d ed08 	str.w	lr, [sp, #-8]!
  4088fc:	f7ff ffe0 	bl	4088c0 <__aeabi_cdcmpeq>
  408900:	bf94      	ite	ls
  408902:	2001      	movls	r0, #1
  408904:	2000      	movhi	r0, #0
  408906:	f85d fb08 	ldr.w	pc, [sp], #8
  40890a:	bf00      	nop

0040890c <__aeabi_dcmpge>:
  40890c:	f84d ed08 	str.w	lr, [sp, #-8]!
  408910:	f7ff ffce 	bl	4088b0 <__aeabi_cdrcmple>
  408914:	bf94      	ite	ls
  408916:	2001      	movls	r0, #1
  408918:	2000      	movhi	r0, #0
  40891a:	f85d fb08 	ldr.w	pc, [sp], #8
  40891e:	bf00      	nop

00408920 <__aeabi_dcmpgt>:
  408920:	f84d ed08 	str.w	lr, [sp, #-8]!
  408924:	f7ff ffc4 	bl	4088b0 <__aeabi_cdrcmple>
  408928:	bf34      	ite	cc
  40892a:	2001      	movcc	r0, #1
  40892c:	2000      	movcs	r0, #0
  40892e:	f85d fb08 	ldr.w	pc, [sp], #8
  408932:	bf00      	nop

00408934 <__aeabi_dcmpun>:
  408934:	ea4f 0c41 	mov.w	ip, r1, lsl #1
  408938:	ea7f 5c6c 	mvns.w	ip, ip, asr #21
  40893c:	d102      	bne.n	408944 <__aeabi_dcmpun+0x10>
  40893e:	ea50 3c01 	orrs.w	ip, r0, r1, lsl #12
  408942:	d10a      	bne.n	40895a <__aeabi_dcmpun+0x26>
  408944:	ea4f 0c43 	mov.w	ip, r3, lsl #1
  408948:	ea7f 5c6c 	mvns.w	ip, ip, asr #21
  40894c:	d102      	bne.n	408954 <__aeabi_dcmpun+0x20>
  40894e:	ea52 3c03 	orrs.w	ip, r2, r3, lsl #12
  408952:	d102      	bne.n	40895a <__aeabi_dcmpun+0x26>
  408954:	f04f 0000 	mov.w	r0, #0
  408958:	4770      	bx	lr
  40895a:	f04f 0001 	mov.w	r0, #1
  40895e:	4770      	bx	lr

00408960 <__aeabi_d2iz>:
  408960:	ea4f 0241 	mov.w	r2, r1, lsl #1
  408964:	f512 1200 	adds.w	r2, r2, #2097152	; 0x200000
  408968:	d215      	bcs.n	408996 <__aeabi_d2iz+0x36>
  40896a:	d511      	bpl.n	408990 <__aeabi_d2iz+0x30>
  40896c:	f46f 7378 	mvn.w	r3, #992	; 0x3e0
  408970:	ebb3 5262 	subs.w	r2, r3, r2, asr #21
  408974:	d912      	bls.n	40899c <__aeabi_d2iz+0x3c>
  408976:	ea4f 23c1 	mov.w	r3, r1, lsl #11
  40897a:	f043 4300 	orr.w	r3, r3, #2147483648	; 0x80000000
  40897e:	ea43 5350 	orr.w	r3, r3, r0, lsr #21
  408982:	f011 4f00 	tst.w	r1, #2147483648	; 0x80000000
  408986:	fa23 f002 	lsr.w	r0, r3, r2
  40898a:	bf18      	it	ne
  40898c:	4240      	negne	r0, r0
  40898e:	4770      	bx	lr
  408990:	f04f 0000 	mov.w	r0, #0
  408994:	4770      	bx	lr
  408996:	ea50 3001 	orrs.w	r0, r0, r1, lsl #12
  40899a:	d105      	bne.n	4089a8 <__aeabi_d2iz+0x48>
  40899c:	f011 4000 	ands.w	r0, r1, #2147483648	; 0x80000000
  4089a0:	bf08      	it	eq
  4089a2:	f06f 4000 	mvneq.w	r0, #2147483648	; 0x80000000
  4089a6:	4770      	bx	lr
  4089a8:	f04f 0000 	mov.w	r0, #0
  4089ac:	4770      	bx	lr
  4089ae:	bf00      	nop

004089b0 <__aeabi_uldivmod>:
  4089b0:	b953      	cbnz	r3, 4089c8 <__aeabi_uldivmod+0x18>
  4089b2:	b94a      	cbnz	r2, 4089c8 <__aeabi_uldivmod+0x18>
  4089b4:	2900      	cmp	r1, #0
  4089b6:	bf08      	it	eq
  4089b8:	2800      	cmpeq	r0, #0
  4089ba:	bf1c      	itt	ne
  4089bc:	f04f 31ff 	movne.w	r1, #4294967295
  4089c0:	f04f 30ff 	movne.w	r0, #4294967295
  4089c4:	f000 b97a 	b.w	408cbc <__aeabi_idiv0>
  4089c8:	f1ad 0c08 	sub.w	ip, sp, #8
  4089cc:	e96d ce04 	strd	ip, lr, [sp, #-16]!
  4089d0:	f000 f806 	bl	4089e0 <__udivmoddi4>
  4089d4:	f8dd e004 	ldr.w	lr, [sp, #4]
  4089d8:	e9dd 2302 	ldrd	r2, r3, [sp, #8]
  4089dc:	b004      	add	sp, #16
  4089de:	4770      	bx	lr

004089e0 <__udivmoddi4>:
  4089e0:	e92d 47f0 	stmdb	sp!, {r4, r5, r6, r7, r8, r9, sl, lr}
  4089e4:	468c      	mov	ip, r1
  4089e6:	460d      	mov	r5, r1
  4089e8:	4604      	mov	r4, r0
  4089ea:	9e08      	ldr	r6, [sp, #32]
  4089ec:	2b00      	cmp	r3, #0
  4089ee:	d151      	bne.n	408a94 <__udivmoddi4+0xb4>
  4089f0:	428a      	cmp	r2, r1
  4089f2:	4617      	mov	r7, r2
  4089f4:	d96d      	bls.n	408ad2 <__udivmoddi4+0xf2>
  4089f6:	fab2 fe82 	clz	lr, r2
  4089fa:	f1be 0f00 	cmp.w	lr, #0
  4089fe:	d00b      	beq.n	408a18 <__udivmoddi4+0x38>
  408a00:	f1ce 0c20 	rsb	ip, lr, #32
  408a04:	fa01 f50e 	lsl.w	r5, r1, lr
  408a08:	fa20 fc0c 	lsr.w	ip, r0, ip
  408a0c:	fa02 f70e 	lsl.w	r7, r2, lr
  408a10:	ea4c 0c05 	orr.w	ip, ip, r5
  408a14:	fa00 f40e 	lsl.w	r4, r0, lr
  408a18:	ea4f 4a17 	mov.w	sl, r7, lsr #16
  408a1c:	0c25      	lsrs	r5, r4, #16
  408a1e:	fbbc f8fa 	udiv	r8, ip, sl
  408a22:	fa1f f987 	uxth.w	r9, r7
  408a26:	fb0a cc18 	mls	ip, sl, r8, ip
  408a2a:	ea45 450c 	orr.w	r5, r5, ip, lsl #16
  408a2e:	fb08 f309 	mul.w	r3, r8, r9
  408a32:	42ab      	cmp	r3, r5
  408a34:	d90a      	bls.n	408a4c <__udivmoddi4+0x6c>
  408a36:	19ed      	adds	r5, r5, r7
  408a38:	f108 32ff 	add.w	r2, r8, #4294967295
  408a3c:	f080 8123 	bcs.w	408c86 <__udivmoddi4+0x2a6>
  408a40:	42ab      	cmp	r3, r5
  408a42:	f240 8120 	bls.w	408c86 <__udivmoddi4+0x2a6>
  408a46:	f1a8 0802 	sub.w	r8, r8, #2
  408a4a:	443d      	add	r5, r7
  408a4c:	1aed      	subs	r5, r5, r3
  408a4e:	b2a4      	uxth	r4, r4
  408a50:	fbb5 f0fa 	udiv	r0, r5, sl
  408a54:	fb0a 5510 	mls	r5, sl, r0, r5
  408a58:	ea44 4405 	orr.w	r4, r4, r5, lsl #16
  408a5c:	fb00 f909 	mul.w	r9, r0, r9
  408a60:	45a1      	cmp	r9, r4
  408a62:	d909      	bls.n	408a78 <__udivmoddi4+0x98>
  408a64:	19e4      	adds	r4, r4, r7
  408a66:	f100 33ff 	add.w	r3, r0, #4294967295
  408a6a:	f080 810a 	bcs.w	408c82 <__udivmoddi4+0x2a2>
  408a6e:	45a1      	cmp	r9, r4
  408a70:	f240 8107 	bls.w	408c82 <__udivmoddi4+0x2a2>
  408a74:	3802      	subs	r0, #2
  408a76:	443c      	add	r4, r7
  408a78:	eba4 0409 	sub.w	r4, r4, r9
  408a7c:	ea40 4008 	orr.w	r0, r0, r8, lsl #16
  408a80:	2100      	movs	r1, #0
  408a82:	2e00      	cmp	r6, #0
  408a84:	d061      	beq.n	408b4a <__udivmoddi4+0x16a>
  408a86:	fa24 f40e 	lsr.w	r4, r4, lr
  408a8a:	2300      	movs	r3, #0
  408a8c:	6034      	str	r4, [r6, #0]
  408a8e:	6073      	str	r3, [r6, #4]
  408a90:	e8bd 87f0 	ldmia.w	sp!, {r4, r5, r6, r7, r8, r9, sl, pc}
  408a94:	428b      	cmp	r3, r1
  408a96:	d907      	bls.n	408aa8 <__udivmoddi4+0xc8>
  408a98:	2e00      	cmp	r6, #0
  408a9a:	d054      	beq.n	408b46 <__udivmoddi4+0x166>
  408a9c:	2100      	movs	r1, #0
  408a9e:	e886 0021 	stmia.w	r6, {r0, r5}
  408aa2:	4608      	mov	r0, r1
  408aa4:	e8bd 87f0 	ldmia.w	sp!, {r4, r5, r6, r7, r8, r9, sl, pc}
  408aa8:	fab3 f183 	clz	r1, r3
  408aac:	2900      	cmp	r1, #0
  408aae:	f040 808e 	bne.w	408bce <__udivmoddi4+0x1ee>
  408ab2:	42ab      	cmp	r3, r5
  408ab4:	d302      	bcc.n	408abc <__udivmoddi4+0xdc>
  408ab6:	4282      	cmp	r2, r0
  408ab8:	f200 80fa 	bhi.w	408cb0 <__udivmoddi4+0x2d0>
  408abc:	1a84      	subs	r4, r0, r2
  408abe:	eb65 0503 	sbc.w	r5, r5, r3
  408ac2:	2001      	movs	r0, #1
  408ac4:	46ac      	mov	ip, r5
  408ac6:	2e00      	cmp	r6, #0
  408ac8:	d03f      	beq.n	408b4a <__udivmoddi4+0x16a>
  408aca:	e886 1010 	stmia.w	r6, {r4, ip}
  408ace:	e8bd 87f0 	ldmia.w	sp!, {r4, r5, r6, r7, r8, r9, sl, pc}
  408ad2:	b912      	cbnz	r2, 408ada <__udivmoddi4+0xfa>
  408ad4:	2701      	movs	r7, #1
  408ad6:	fbb7 f7f2 	udiv	r7, r7, r2
  408ada:	fab7 fe87 	clz	lr, r7
  408ade:	f1be 0f00 	cmp.w	lr, #0
  408ae2:	d134      	bne.n	408b4e <__udivmoddi4+0x16e>
  408ae4:	1beb      	subs	r3, r5, r7
  408ae6:	0c3a      	lsrs	r2, r7, #16
  408ae8:	fa1f fc87 	uxth.w	ip, r7
  408aec:	2101      	movs	r1, #1
  408aee:	fbb3 f8f2 	udiv	r8, r3, r2
  408af2:	0c25      	lsrs	r5, r4, #16
  408af4:	fb02 3318 	mls	r3, r2, r8, r3
  408af8:	ea45 4503 	orr.w	r5, r5, r3, lsl #16
  408afc:	fb0c f308 	mul.w	r3, ip, r8
  408b00:	42ab      	cmp	r3, r5
  408b02:	d907      	bls.n	408b14 <__udivmoddi4+0x134>
  408b04:	19ed      	adds	r5, r5, r7
  408b06:	f108 30ff 	add.w	r0, r8, #4294967295
  408b0a:	d202      	bcs.n	408b12 <__udivmoddi4+0x132>
  408b0c:	42ab      	cmp	r3, r5
  408b0e:	f200 80d1 	bhi.w	408cb4 <__udivmoddi4+0x2d4>
  408b12:	4680      	mov	r8, r0
  408b14:	1aed      	subs	r5, r5, r3
  408b16:	b2a3      	uxth	r3, r4
  408b18:	fbb5 f0f2 	udiv	r0, r5, r2
  408b1c:	fb02 5510 	mls	r5, r2, r0, r5
  408b20:	ea43 4405 	orr.w	r4, r3, r5, lsl #16
  408b24:	fb0c fc00 	mul.w	ip, ip, r0
  408b28:	45a4      	cmp	ip, r4
  408b2a:	d907      	bls.n	408b3c <__udivmoddi4+0x15c>
  408b2c:	19e4      	adds	r4, r4, r7
  408b2e:	f100 33ff 	add.w	r3, r0, #4294967295
  408b32:	d202      	bcs.n	408b3a <__udivmoddi4+0x15a>
  408b34:	45a4      	cmp	ip, r4
  408b36:	f200 80b8 	bhi.w	408caa <__udivmoddi4+0x2ca>
  408b3a:	4618      	mov	r0, r3
  408b3c:	eba4 040c 	sub.w	r4, r4, ip
  408b40:	ea40 4008 	orr.w	r0, r0, r8, lsl #16
  408b44:	e79d      	b.n	408a82 <__udivmoddi4+0xa2>
  408b46:	4631      	mov	r1, r6
  408b48:	4630      	mov	r0, r6
  408b4a:	e8bd 87f0 	ldmia.w	sp!, {r4, r5, r6, r7, r8, r9, sl, pc}
  408b4e:	f1ce 0420 	rsb	r4, lr, #32
  408b52:	fa05 f30e 	lsl.w	r3, r5, lr
  408b56:	fa07 f70e 	lsl.w	r7, r7, lr
  408b5a:	fa20 f804 	lsr.w	r8, r0, r4
  408b5e:	0c3a      	lsrs	r2, r7, #16
  408b60:	fa25 f404 	lsr.w	r4, r5, r4
  408b64:	ea48 0803 	orr.w	r8, r8, r3
  408b68:	fbb4 f1f2 	udiv	r1, r4, r2
  408b6c:	ea4f 4518 	mov.w	r5, r8, lsr #16
  408b70:	fb02 4411 	mls	r4, r2, r1, r4
  408b74:	fa1f fc87 	uxth.w	ip, r7
  408b78:	ea45 4504 	orr.w	r5, r5, r4, lsl #16
  408b7c:	fb01 f30c 	mul.w	r3, r1, ip
  408b80:	42ab      	cmp	r3, r5
  408b82:	fa00 f40e 	lsl.w	r4, r0, lr
  408b86:	d909      	bls.n	408b9c <__udivmoddi4+0x1bc>
  408b88:	19ed      	adds	r5, r5, r7
  408b8a:	f101 30ff 	add.w	r0, r1, #4294967295
  408b8e:	f080 808a 	bcs.w	408ca6 <__udivmoddi4+0x2c6>
  408b92:	42ab      	cmp	r3, r5
  408b94:	f240 8087 	bls.w	408ca6 <__udivmoddi4+0x2c6>
  408b98:	3902      	subs	r1, #2
  408b9a:	443d      	add	r5, r7
  408b9c:	1aeb      	subs	r3, r5, r3
  408b9e:	fa1f f588 	uxth.w	r5, r8
  408ba2:	fbb3 f0f2 	udiv	r0, r3, r2
  408ba6:	fb02 3310 	mls	r3, r2, r0, r3
  408baa:	ea45 4503 	orr.w	r5, r5, r3, lsl #16
  408bae:	fb00 f30c 	mul.w	r3, r0, ip
  408bb2:	42ab      	cmp	r3, r5
  408bb4:	d907      	bls.n	408bc6 <__udivmoddi4+0x1e6>
  408bb6:	19ed      	adds	r5, r5, r7
  408bb8:	f100 38ff 	add.w	r8, r0, #4294967295
  408bbc:	d26f      	bcs.n	408c9e <__udivmoddi4+0x2be>
  408bbe:	42ab      	cmp	r3, r5
  408bc0:	d96d      	bls.n	408c9e <__udivmoddi4+0x2be>
  408bc2:	3802      	subs	r0, #2
  408bc4:	443d      	add	r5, r7
  408bc6:	1aeb      	subs	r3, r5, r3
  408bc8:	ea40 4101 	orr.w	r1, r0, r1, lsl #16
  408bcc:	e78f      	b.n	408aee <__udivmoddi4+0x10e>
  408bce:	f1c1 0720 	rsb	r7, r1, #32
  408bd2:	fa22 f807 	lsr.w	r8, r2, r7
  408bd6:	408b      	lsls	r3, r1
  408bd8:	fa05 f401 	lsl.w	r4, r5, r1
  408bdc:	ea48 0303 	orr.w	r3, r8, r3
  408be0:	fa20 fe07 	lsr.w	lr, r0, r7
  408be4:	ea4f 4c13 	mov.w	ip, r3, lsr #16
  408be8:	40fd      	lsrs	r5, r7
  408bea:	ea4e 0e04 	orr.w	lr, lr, r4
  408bee:	fbb5 f9fc 	udiv	r9, r5, ip
  408bf2:	ea4f 441e 	mov.w	r4, lr, lsr #16
  408bf6:	fb0c 5519 	mls	r5, ip, r9, r5
  408bfa:	fa1f f883 	uxth.w	r8, r3
  408bfe:	ea44 4505 	orr.w	r5, r4, r5, lsl #16
  408c02:	fb09 f408 	mul.w	r4, r9, r8
  408c06:	42ac      	cmp	r4, r5
  408c08:	fa02 f201 	lsl.w	r2, r2, r1
  408c0c:	fa00 fa01 	lsl.w	sl, r0, r1
  408c10:	d908      	bls.n	408c24 <__udivmoddi4+0x244>
  408c12:	18ed      	adds	r5, r5, r3
  408c14:	f109 30ff 	add.w	r0, r9, #4294967295
  408c18:	d243      	bcs.n	408ca2 <__udivmoddi4+0x2c2>
  408c1a:	42ac      	cmp	r4, r5
  408c1c:	d941      	bls.n	408ca2 <__udivmoddi4+0x2c2>
  408c1e:	f1a9 0902 	sub.w	r9, r9, #2
  408c22:	441d      	add	r5, r3
  408c24:	1b2d      	subs	r5, r5, r4
  408c26:	fa1f fe8e 	uxth.w	lr, lr
  408c2a:	fbb5 f0fc 	udiv	r0, r5, ip
  408c2e:	fb0c 5510 	mls	r5, ip, r0, r5
  408c32:	ea4e 4405 	orr.w	r4, lr, r5, lsl #16
  408c36:	fb00 f808 	mul.w	r8, r0, r8
  408c3a:	45a0      	cmp	r8, r4
  408c3c:	d907      	bls.n	408c4e <__udivmoddi4+0x26e>
  408c3e:	18e4      	adds	r4, r4, r3
  408c40:	f100 35ff 	add.w	r5, r0, #4294967295
  408c44:	d229      	bcs.n	408c9a <__udivmoddi4+0x2ba>
  408c46:	45a0      	cmp	r8, r4
  408c48:	d927      	bls.n	408c9a <__udivmoddi4+0x2ba>
  408c4a:	3802      	subs	r0, #2
  408c4c:	441c      	add	r4, r3
  408c4e:	ea40 4009 	orr.w	r0, r0, r9, lsl #16
  408c52:	eba4 0408 	sub.w	r4, r4, r8
  408c56:	fba0 8902 	umull	r8, r9, r0, r2
  408c5a:	454c      	cmp	r4, r9
  408c5c:	46c6      	mov	lr, r8
  408c5e:	464d      	mov	r5, r9
  408c60:	d315      	bcc.n	408c8e <__udivmoddi4+0x2ae>
  408c62:	d012      	beq.n	408c8a <__udivmoddi4+0x2aa>
  408c64:	b156      	cbz	r6, 408c7c <__udivmoddi4+0x29c>
  408c66:	ebba 030e 	subs.w	r3, sl, lr
  408c6a:	eb64 0405 	sbc.w	r4, r4, r5
  408c6e:	fa04 f707 	lsl.w	r7, r4, r7
  408c72:	40cb      	lsrs	r3, r1
  408c74:	431f      	orrs	r7, r3
  408c76:	40cc      	lsrs	r4, r1
  408c78:	6037      	str	r7, [r6, #0]
  408c7a:	6074      	str	r4, [r6, #4]
  408c7c:	2100      	movs	r1, #0
  408c7e:	e8bd 87f0 	ldmia.w	sp!, {r4, r5, r6, r7, r8, r9, sl, pc}
  408c82:	4618      	mov	r0, r3
  408c84:	e6f8      	b.n	408a78 <__udivmoddi4+0x98>
  408c86:	4690      	mov	r8, r2
  408c88:	e6e0      	b.n	408a4c <__udivmoddi4+0x6c>
  408c8a:	45c2      	cmp	sl, r8
  408c8c:	d2ea      	bcs.n	408c64 <__udivmoddi4+0x284>
  408c8e:	ebb8 0e02 	subs.w	lr, r8, r2
  408c92:	eb69 0503 	sbc.w	r5, r9, r3
  408c96:	3801      	subs	r0, #1
  408c98:	e7e4      	b.n	408c64 <__udivmoddi4+0x284>
  408c9a:	4628      	mov	r0, r5
  408c9c:	e7d7      	b.n	408c4e <__udivmoddi4+0x26e>
  408c9e:	4640      	mov	r0, r8
  408ca0:	e791      	b.n	408bc6 <__udivmoddi4+0x1e6>
  408ca2:	4681      	mov	r9, r0
  408ca4:	e7be      	b.n	408c24 <__udivmoddi4+0x244>
  408ca6:	4601      	mov	r1, r0
  408ca8:	e778      	b.n	408b9c <__udivmoddi4+0x1bc>
  408caa:	3802      	subs	r0, #2
  408cac:	443c      	add	r4, r7
  408cae:	e745      	b.n	408b3c <__udivmoddi4+0x15c>
  408cb0:	4608      	mov	r0, r1
  408cb2:	e708      	b.n	408ac6 <__udivmoddi4+0xe6>
  408cb4:	f1a8 0802 	sub.w	r8, r8, #2
  408cb8:	443d      	add	r5, r7
  408cba:	e72b      	b.n	408b14 <__udivmoddi4+0x134>

00408cbc <__aeabi_idiv0>:
  408cbc:	4770      	bx	lr
  408cbe:	bf00      	nop
  408cc0:	454c4449 	.word	0x454c4449
  408cc4:	00000000 	.word	0x00000000
  408cc8:	51726d54 	.word	0x51726d54
  408ccc:	00000000 	.word	0x00000000
  408cd0:	20726d54 	.word	0x20726d54
  408cd4:	00637653 	.word	0x00637653
  408cd8:	6c696146 	.word	0x6c696146
  408cdc:	74206465 	.word	0x74206465
  408ce0:	7263206f 	.word	0x7263206f
  408ce4:	65746165 	.word	0x65746165
  408ce8:	6d657320 	.word	0x6d657320
  408cec:	6f687061 	.word	0x6f687061
  408cf0:	000d6572 	.word	0x000d6572
  408cf4:	75626564 	.word	0x75626564
  408cf8:	00000067 	.word	0x00000067
  408cfc:	6c696146 	.word	0x6c696146
  408d00:	74206465 	.word	0x74206465
  408d04:	7263206f 	.word	0x7263206f
  408d08:	65746165 	.word	0x65746165
  408d0c:	62656420 	.word	0x62656420
  408d10:	74206775 	.word	0x74206775
  408d14:	0d6b7361 	.word	0x0d6b7361
  408d18:	00000000 	.word	0x00000000
  408d1c:	63617473 	.word	0x63617473
  408d20:	766f206b 	.word	0x766f206b
  408d24:	6c667265 	.word	0x6c667265
  408d28:	2520776f 	.word	0x2520776f
  408d2c:	73252078 	.word	0x73252078
  408d30:	00000a0d 	.word	0x00000a0d

00408d34 <_global_impure_ptr>:
  408d34:	20400018 0000000a 00464e49 00666e69     ..@ ....INF.inf.
  408d44:	004e414e 006e616e 33323130 37363534     NAN.nan.01234567
  408d54:	42413938 46454443 00000000 33323130     89ABCDEF....0123
  408d64:	37363534 62613938 66656463 00000000     456789abcdef....
  408d74:	6c756e28 0000296c 00000030              (null)..0...

00408d80 <blanks.7238>:
  408d80:	20202020 20202020 20202020 20202020                     

00408d90 <zeroes.7239>:
  408d90:	30303030 30303030 30303030 30303030     0000000000000000
  408da0:	69666e49 7974696e 00000000 004e614e     Infinity....NaN.

00408db0 <__mprec_bigtens>:
  408db0:	37e08000 4341c379 b5056e17 4693b8b5     ...7y.AC.n.....F
  408dc0:	e93ff9f5 4d384f03 f9301d32 5a827748     ..?..O8M2.0.Hw.Z
  408dd0:	7f73bf3c 75154fdd                       <.s..O.u

00408dd8 <__mprec_tens>:
  408dd8:	00000000 3ff00000 00000000 40240000     .......?......$@
  408de8:	00000000 40590000 00000000 408f4000     ......Y@.....@.@
  408df8:	00000000 40c38800 00000000 40f86a00     .......@.....j.@
  408e08:	00000000 412e8480 00000000 416312d0     .......A......cA
  408e18:	00000000 4197d784 00000000 41cdcd65     .......A....e..A
  408e28:	20000000 4202a05f e8000000 42374876     ... _..B....vH7B
  408e38:	a2000000 426d1a94 e5400000 42a2309c     ......mB..@..0.B
  408e48:	1e900000 42d6bcc4 26340000 430c6bf5     .......B..4&.k.C
  408e58:	37e08000 4341c379 85d8a000 43763457     ...7y.AC....W4vC
  408e68:	674ec800 43abc16d 60913d00 43e158e4     ..Ngm..C.=.`.X.C
  408e78:	78b58c40 4415af1d d6e2ef50 444b1ae4     @..x...DP.....KD
  408e88:	064dd592 4480f0cf c7e14af6 44b52d02     ..M....D.J...-.D
  408e98:	79d99db4 44ea7843                       ...yCx.D

00408ea0 <p05.6055>:
  408ea0:	00000005 00000019 0000007d 00000043     ........}...C...
  408eb0:	49534f50 00000058 0000002e              POSIX.......

00408ebc <_ctype_>:
  408ebc:	20202000 20202020 28282020 20282828     .         ((((( 
  408ecc:	20202020 20202020 20202020 20202020                     
  408edc:	10108820 10101010 10101010 10101010      ...............
  408eec:	04040410 04040404 10040404 10101010     ................
  408efc:	41411010 41414141 01010101 01010101     ..AAAAAA........
  408f0c:	01010101 01010101 01010101 10101010     ................
  408f1c:	42421010 42424242 02020202 02020202     ..BBBBBB........
  408f2c:	02020202 02020202 02020202 10101010     ................
  408f3c:	00000020 00000000 00000000 00000000      ...............
	...

00408fc0 <_init>:
  408fc0:	b5f8      	push	{r3, r4, r5, r6, r7, lr}
  408fc2:	bf00      	nop
  408fc4:	bcf8      	pop	{r3, r4, r5, r6, r7}
  408fc6:	bc08      	pop	{r3}
  408fc8:	469e      	mov	lr, r3
  408fca:	4770      	bx	lr

00408fcc <__init_array_start>:
  408fcc:	00405681 	.word	0x00405681

00408fd0 <__frame_dummy_init_array_entry>:
  408fd0:	00400165                                e.@.

00408fd4 <_fini>:
  408fd4:	b5f8      	push	{r3, r4, r5, r6, r7, lr}
  408fd6:	bf00      	nop
  408fd8:	bcf8      	pop	{r3, r4, r5, r6, r7}
  408fda:	bc08      	pop	{r3}
  408fdc:	469e      	mov	lr, r3
  408fde:	4770      	bx	lr

00408fe0 <__fini_array_start>:
  408fe0:	00400141 	.word	0x00400141

Disassembly of section .relocate:

20400000 <portable_delay_cycles>:
20400000:	f3bf 8f5f 	dmb	sy
20400004:	3801      	subs	r0, #1
20400006:	d1fb      	bne.n	20400000 <portable_delay_cycles>
20400008:	4770      	bx	lr

2040000a <g_interrupt_enabled>:
2040000a:	0001                                        ..

2040000c <SystemCoreClock>:
2040000c:	0900 003d                                   ..=.

20400010 <uxCriticalNesting>:
20400010:	aaaa aaaa                                   ....

20400014 <_impure_ptr>:
20400014:	0018 2040                                   ..@ 

20400018 <impure_data>:
20400018:	0000 0000 0304 2040 036c 2040 03d4 2040     ......@ l.@ ..@ 
	...
204000c0:	0001 0000 0000 0000 330e abcd 1234 e66d     .........3..4.m.
204000d0:	deec 0005 000b 0000 0000 0000 0000 0000     ................
	...

20400440 <__malloc_av_>:
	...
20400448:	0440 2040 0440 2040 0448 2040 0448 2040     @.@ @.@ H.@ H.@ 
20400458:	0450 2040 0450 2040 0458 2040 0458 2040     P.@ P.@ X.@ X.@ 
20400468:	0460 2040 0460 2040 0468 2040 0468 2040     `.@ `.@ h.@ h.@ 
20400478:	0470 2040 0470 2040 0478 2040 0478 2040     p.@ p.@ x.@ x.@ 
20400488:	0480 2040 0480 2040 0488 2040 0488 2040     ..@ ..@ ..@ ..@ 
20400498:	0490 2040 0490 2040 0498 2040 0498 2040     ..@ ..@ ..@ ..@ 
204004a8:	04a0 2040 04a0 2040 04a8 2040 04a8 2040     ..@ ..@ ..@ ..@ 
204004b8:	04b0 2040 04b0 2040 04b8 2040 04b8 2040     ..@ ..@ ..@ ..@ 
204004c8:	04c0 2040 04c0 2040 04c8 2040 04c8 2040     ..@ ..@ ..@ ..@ 
204004d8:	04d0 2040 04d0 2040 04d8 2040 04d8 2040     ..@ ..@ ..@ ..@ 
204004e8:	04e0 2040 04e0 2040 04e8 2040 04e8 2040     ..@ ..@ ..@ ..@ 
204004f8:	04f0 2040 04f0 2040 04f8 2040 04f8 2040     ..@ ..@ ..@ ..@ 
20400508:	0500 2040 0500 2040 0508 2040 0508 2040     ..@ ..@ ..@ ..@ 
20400518:	0510 2040 0510 2040 0518 2040 0518 2040     ..@ ..@ ..@ ..@ 
20400528:	0520 2040 0520 2040 0528 2040 0528 2040      .@  .@ (.@ (.@ 
20400538:	0530 2040 0530 2040 0538 2040 0538 2040     0.@ 0.@ 8.@ 8.@ 
20400548:	0540 2040 0540 2040 0548 2040 0548 2040     @.@ @.@ H.@ H.@ 
20400558:	0550 2040 0550 2040 0558 2040 0558 2040     P.@ P.@ X.@ X.@ 
20400568:	0560 2040 0560 2040 0568 2040 0568 2040     `.@ `.@ h.@ h.@ 
20400578:	0570 2040 0570 2040 0578 2040 0578 2040     p.@ p.@ x.@ x.@ 
20400588:	0580 2040 0580 2040 0588 2040 0588 2040     ..@ ..@ ..@ ..@ 
20400598:	0590 2040 0590 2040 0598 2040 0598 2040     ..@ ..@ ..@ ..@ 
204005a8:	05a0 2040 05a0 2040 05a8 2040 05a8 2040     ..@ ..@ ..@ ..@ 
204005b8:	05b0 2040 05b0 2040 05b8 2040 05b8 2040     ..@ ..@ ..@ ..@ 
204005c8:	05c0 2040 05c0 2040 05c8 2040 05c8 2040     ..@ ..@ ..@ ..@ 
204005d8:	05d0 2040 05d0 2040 05d8 2040 05d8 2040     ..@ ..@ ..@ ..@ 
204005e8:	05e0 2040 05e0 2040 05e8 2040 05e8 2040     ..@ ..@ ..@ ..@ 
204005f8:	05f0 2040 05f0 2040 05f8 2040 05f8 2040     ..@ ..@ ..@ ..@ 
20400608:	0600 2040 0600 2040 0608 2040 0608 2040     ..@ ..@ ..@ ..@ 
20400618:	0610 2040 0610 2040 0618 2040 0618 2040     ..@ ..@ ..@ ..@ 
20400628:	0620 2040 0620 2040 0628 2040 0628 2040      .@  .@ (.@ (.@ 
20400638:	0630 2040 0630 2040 0638 2040 0638 2040     0.@ 0.@ 8.@ 8.@ 
20400648:	0640 2040 0640 2040 0648 2040 0648 2040     @.@ @.@ H.@ H.@ 
20400658:	0650 2040 0650 2040 0658 2040 0658 2040     P.@ P.@ X.@ X.@ 
20400668:	0660 2040 0660 2040 0668 2040 0668 2040     `.@ `.@ h.@ h.@ 
20400678:	0670 2040 0670 2040 0678 2040 0678 2040     p.@ p.@ x.@ x.@ 
20400688:	0680 2040 0680 2040 0688 2040 0688 2040     ..@ ..@ ..@ ..@ 
20400698:	0690 2040 0690 2040 0698 2040 0698 2040     ..@ ..@ ..@ ..@ 
204006a8:	06a0 2040 06a0 2040 06a8 2040 06a8 2040     ..@ ..@ ..@ ..@ 
204006b8:	06b0 2040 06b0 2040 06b8 2040 06b8 2040     ..@ ..@ ..@ ..@ 
204006c8:	06c0 2040 06c0 2040 06c8 2040 06c8 2040     ..@ ..@ ..@ ..@ 
204006d8:	06d0 2040 06d0 2040 06d8 2040 06d8 2040     ..@ ..@ ..@ ..@ 
204006e8:	06e0 2040 06e0 2040 06e8 2040 06e8 2040     ..@ ..@ ..@ ..@ 
204006f8:	06f0 2040 06f0 2040 06f8 2040 06f8 2040     ..@ ..@ ..@ ..@ 
20400708:	0700 2040 0700 2040 0708 2040 0708 2040     ..@ ..@ ..@ ..@ 
20400718:	0710 2040 0710 2040 0718 2040 0718 2040     ..@ ..@ ..@ ..@ 
20400728:	0720 2040 0720 2040 0728 2040 0728 2040      .@  .@ (.@ (.@ 
20400738:	0730 2040 0730 2040 0738 2040 0738 2040     0.@ 0.@ 8.@ 8.@ 
20400748:	0740 2040 0740 2040 0748 2040 0748 2040     @.@ @.@ H.@ H.@ 
20400758:	0750 2040 0750 2040 0758 2040 0758 2040     P.@ P.@ X.@ X.@ 
20400768:	0760 2040 0760 2040 0768 2040 0768 2040     `.@ `.@ h.@ h.@ 
20400778:	0770 2040 0770 2040 0778 2040 0778 2040     p.@ p.@ x.@ x.@ 
20400788:	0780 2040 0780 2040 0788 2040 0788 2040     ..@ ..@ ..@ ..@ 
20400798:	0790 2040 0790 2040 0798 2040 0798 2040     ..@ ..@ ..@ ..@ 
204007a8:	07a0 2040 07a0 2040 07a8 2040 07a8 2040     ..@ ..@ ..@ ..@ 
204007b8:	07b0 2040 07b0 2040 07b8 2040 07b8 2040     ..@ ..@ ..@ ..@ 
204007c8:	07c0 2040 07c0 2040 07c8 2040 07c8 2040     ..@ ..@ ..@ ..@ 
204007d8:	07d0 2040 07d0 2040 07d8 2040 07d8 2040     ..@ ..@ ..@ ..@ 
204007e8:	07e0 2040 07e0 2040 07e8 2040 07e8 2040     ..@ ..@ ..@ ..@ 
204007f8:	07f0 2040 07f0 2040 07f8 2040 07f8 2040     ..@ ..@ ..@ ..@ 
20400808:	0800 2040 0800 2040 0808 2040 0808 2040     ..@ ..@ ..@ ..@ 
20400818:	0810 2040 0810 2040 0818 2040 0818 2040     ..@ ..@ ..@ ..@ 
20400828:	0820 2040 0820 2040 0828 2040 0828 2040      .@  .@ (.@ (.@ 
20400838:	0830 2040 0830 2040 0838 2040 0838 2040     0.@ 0.@ 8.@ 8.@ 

20400848 <__malloc_sbrk_base>:
20400848:	ffff ffff                                   ....

2040084c <__malloc_trim_threshold>:
2040084c:	0000 0002                                   ....

20400850 <__atexit_recursive_mutex>:
20400850:	0e20 2040                                    .@ 

20400854 <__global_locale>:
20400854:	0043 0000 0000 0000 0000 0000 0000 0000     C...............
	...
20400874:	0043 0000 0000 0000 0000 0000 0000 0000     C...............
	...
20400894:	0043 0000 0000 0000 0000 0000 0000 0000     C...............
	...
204008b4:	0043 0000 0000 0000 0000 0000 0000 0000     C...............
	...
204008d4:	0043 0000 0000 0000 0000 0000 0000 0000     C...............
	...
204008f4:	0043 0000 0000 0000 0000 0000 0000 0000     C...............
	...
20400914:	0043 0000 0000 0000 0000 0000 0000 0000     C...............
	...
20400934:	8075 0040 7f19 0040 0000 0000 8ebc 0040     u.@...@.......@.
20400944:	8eb8 0040 8d18 0040 8d18 0040 8d18 0040     ..@...@...@...@.
20400954:	8d18 0040 8d18 0040 8d18 0040 8d18 0040     ..@...@...@...@.
20400964:	8d18 0040 8d18 0040 ffff ffff ffff ffff     ..@...@.........
20400974:	ffff ffff ffff 0000 0001 5341 4943 0049     ..........ASCII.
	...
2040099c:	0000 5341 4943 0049 0000 0000 0000 0000     ..ASCII.........
	...
